ARM GAS  /tmp/ccjPiDbo.s 			page 1


   1              		.cpu cortex-m0
   2              		.eabi_attribute 20, 1
   3              		.eabi_attribute 21, 1
   4              		.eabi_attribute 23, 3
   5              		.eabi_attribute 24, 1
   6              		.eabi_attribute 25, 1
   7              		.eabi_attribute 26, 1
   8              		.eabi_attribute 30, 2
   9              		.eabi_attribute 34, 0
  10              		.eabi_attribute 18, 4
  11              		.file	"stm32f0xx_hal_dma.c"
  12              		.text
  13              	.Ltext0:
  14              		.cfi_sections	.debug_frame
  15              		.global	__aeabi_uidiv
  16              		.section	.text.HAL_DMA_Init,"ax",%progbits
  17              		.align	1
  18              		.p2align 2,,3
  19              		.global	HAL_DMA_Init
  20              		.arch armv6s-m
  21              		.syntax unified
  22              		.code	16
  23              		.thumb_func
  24              		.fpu softvfp
  26              	HAL_DMA_Init:
  27              	.LVL0:
  28              	.LFB37:
  29              		.file 1 "Drivers/STM32F0xx_HAL_Driver/Src/stm32f0xx_hal_dma.c"
   1:Drivers/STM32F0xx_HAL_Driver/Src/stm32f0xx_hal_dma.c **** /**
   2:Drivers/STM32F0xx_HAL_Driver/Src/stm32f0xx_hal_dma.c ****   ******************************************************************************
   3:Drivers/STM32F0xx_HAL_Driver/Src/stm32f0xx_hal_dma.c ****   * @file    stm32f0xx_hal_dma.c
   4:Drivers/STM32F0xx_HAL_Driver/Src/stm32f0xx_hal_dma.c ****   * @author  MCD Application Team
   5:Drivers/STM32F0xx_HAL_Driver/Src/stm32f0xx_hal_dma.c ****   * @brief   DMA HAL module driver.
   6:Drivers/STM32F0xx_HAL_Driver/Src/stm32f0xx_hal_dma.c ****   *    
   7:Drivers/STM32F0xx_HAL_Driver/Src/stm32f0xx_hal_dma.c ****   *         This file provides firmware functions to manage the following 
   8:Drivers/STM32F0xx_HAL_Driver/Src/stm32f0xx_hal_dma.c ****   *         functionalities of the Direct Memory Access (DMA) peripheral:
   9:Drivers/STM32F0xx_HAL_Driver/Src/stm32f0xx_hal_dma.c ****   *           + Initialization and de-initialization functions
  10:Drivers/STM32F0xx_HAL_Driver/Src/stm32f0xx_hal_dma.c ****   *           + IO operation functions
  11:Drivers/STM32F0xx_HAL_Driver/Src/stm32f0xx_hal_dma.c ****   *           + Peripheral State and errors functions
  12:Drivers/STM32F0xx_HAL_Driver/Src/stm32f0xx_hal_dma.c ****   @verbatim     
  13:Drivers/STM32F0xx_HAL_Driver/Src/stm32f0xx_hal_dma.c ****   ==============================================================================      
  14:Drivers/STM32F0xx_HAL_Driver/Src/stm32f0xx_hal_dma.c ****                         ##### How to use this driver #####
  15:Drivers/STM32F0xx_HAL_Driver/Src/stm32f0xx_hal_dma.c ****   ============================================================================== 
  16:Drivers/STM32F0xx_HAL_Driver/Src/stm32f0xx_hal_dma.c ****   [..]
  17:Drivers/STM32F0xx_HAL_Driver/Src/stm32f0xx_hal_dma.c ****    (#) Enable and configure the peripheral to be connected to the DMA Channel
  18:Drivers/STM32F0xx_HAL_Driver/Src/stm32f0xx_hal_dma.c ****        (except for internal SRAM / FLASH memories: no initialization is 
  19:Drivers/STM32F0xx_HAL_Driver/Src/stm32f0xx_hal_dma.c ****        necessary). Please refer to Reference manual for connection between peripherals
  20:Drivers/STM32F0xx_HAL_Driver/Src/stm32f0xx_hal_dma.c ****        and DMA requests .
  21:Drivers/STM32F0xx_HAL_Driver/Src/stm32f0xx_hal_dma.c **** 
  22:Drivers/STM32F0xx_HAL_Driver/Src/stm32f0xx_hal_dma.c ****    (#) For a given Channel, program the required configuration through the following parameters:   
  23:Drivers/STM32F0xx_HAL_Driver/Src/stm32f0xx_hal_dma.c ****        Transfer Direction, Source and Destination data formats, 
  24:Drivers/STM32F0xx_HAL_Driver/Src/stm32f0xx_hal_dma.c ****        Circular or Normal mode, Channel Priority level, Source and Destination Increment mode, 
  25:Drivers/STM32F0xx_HAL_Driver/Src/stm32f0xx_hal_dma.c ****        using HAL_DMA_Init() function.
  26:Drivers/STM32F0xx_HAL_Driver/Src/stm32f0xx_hal_dma.c **** 
  27:Drivers/STM32F0xx_HAL_Driver/Src/stm32f0xx_hal_dma.c ****    (#) Use HAL_DMA_GetState() function to return the DMA state and HAL_DMA_GetError() in case of er
  28:Drivers/STM32F0xx_HAL_Driver/Src/stm32f0xx_hal_dma.c ****        detection.
  29:Drivers/STM32F0xx_HAL_Driver/Src/stm32f0xx_hal_dma.c ****                     
ARM GAS  /tmp/ccjPiDbo.s 			page 2


  30:Drivers/STM32F0xx_HAL_Driver/Src/stm32f0xx_hal_dma.c ****    (#) Use HAL_DMA_Abort() function to abort the current transfer
  31:Drivers/STM32F0xx_HAL_Driver/Src/stm32f0xx_hal_dma.c ****                    
  32:Drivers/STM32F0xx_HAL_Driver/Src/stm32f0xx_hal_dma.c ****      -@-   In Memory-to-Memory transfer mode, Circular mode is not allowed.
  33:Drivers/STM32F0xx_HAL_Driver/Src/stm32f0xx_hal_dma.c ****      *** Polling mode IO operation ***
  34:Drivers/STM32F0xx_HAL_Driver/Src/stm32f0xx_hal_dma.c ****      =================================   
  35:Drivers/STM32F0xx_HAL_Driver/Src/stm32f0xx_hal_dma.c ****     [..] 
  36:Drivers/STM32F0xx_HAL_Driver/Src/stm32f0xx_hal_dma.c ****       (+) Use HAL_DMA_Start() to start DMA transfer after the configuration of Source 
  37:Drivers/STM32F0xx_HAL_Driver/Src/stm32f0xx_hal_dma.c ****           address and destination address and the Length of data to be transferred
  38:Drivers/STM32F0xx_HAL_Driver/Src/stm32f0xx_hal_dma.c ****       (+) Use HAL_DMA_PollForTransfer() to poll for the end of current transfer, in this  
  39:Drivers/STM32F0xx_HAL_Driver/Src/stm32f0xx_hal_dma.c ****           case a fixed Timeout can be configured by User depending from his application.
  40:Drivers/STM32F0xx_HAL_Driver/Src/stm32f0xx_hal_dma.c **** 
  41:Drivers/STM32F0xx_HAL_Driver/Src/stm32f0xx_hal_dma.c ****      *** Interrupt mode IO operation ***    
  42:Drivers/STM32F0xx_HAL_Driver/Src/stm32f0xx_hal_dma.c ****      =================================== 
  43:Drivers/STM32F0xx_HAL_Driver/Src/stm32f0xx_hal_dma.c ****     [..]
  44:Drivers/STM32F0xx_HAL_Driver/Src/stm32f0xx_hal_dma.c ****       (+) Configure the DMA interrupt priority using HAL_NVIC_SetPriority()
  45:Drivers/STM32F0xx_HAL_Driver/Src/stm32f0xx_hal_dma.c ****       (+) Enable the DMA IRQ handler using HAL_NVIC_EnableIRQ() 
  46:Drivers/STM32F0xx_HAL_Driver/Src/stm32f0xx_hal_dma.c ****       (+) Use HAL_DMA_Start_IT() to start DMA transfer after the configuration of  
  47:Drivers/STM32F0xx_HAL_Driver/Src/stm32f0xx_hal_dma.c ****           Source address and destination address and the Length of data to be transferred. 
  48:Drivers/STM32F0xx_HAL_Driver/Src/stm32f0xx_hal_dma.c ****           In this case the DMA interrupt is configured 
  49:Drivers/STM32F0xx_HAL_Driver/Src/stm32f0xx_hal_dma.c ****       (+) Use HAL_DMA_Channel_IRQHandler() called under DMA_IRQHandler() Interrupt subroutine
  50:Drivers/STM32F0xx_HAL_Driver/Src/stm32f0xx_hal_dma.c ****       (+) At the end of data transfer HAL_DMA_IRQHandler() function is executed and user can 
  51:Drivers/STM32F0xx_HAL_Driver/Src/stm32f0xx_hal_dma.c ****           add his own function by customization of function pointer XferCpltCallback and 
  52:Drivers/STM32F0xx_HAL_Driver/Src/stm32f0xx_hal_dma.c ****           XferErrorCallback (i.e a member of DMA handle structure). 
  53:Drivers/STM32F0xx_HAL_Driver/Src/stm32f0xx_hal_dma.c **** 
  54:Drivers/STM32F0xx_HAL_Driver/Src/stm32f0xx_hal_dma.c ****      *** DMA HAL driver macros list ***
  55:Drivers/STM32F0xx_HAL_Driver/Src/stm32f0xx_hal_dma.c ****      ============================================= 
  56:Drivers/STM32F0xx_HAL_Driver/Src/stm32f0xx_hal_dma.c ****      [..]
  57:Drivers/STM32F0xx_HAL_Driver/Src/stm32f0xx_hal_dma.c ****        Below the list of most used macros in DMA HAL driver.
  58:Drivers/STM32F0xx_HAL_Driver/Src/stm32f0xx_hal_dma.c **** 
  59:Drivers/STM32F0xx_HAL_Driver/Src/stm32f0xx_hal_dma.c ****      [..] 
  60:Drivers/STM32F0xx_HAL_Driver/Src/stm32f0xx_hal_dma.c ****       (@) You can refer to the DMA HAL driver header file for more useful macros  
  61:Drivers/STM32F0xx_HAL_Driver/Src/stm32f0xx_hal_dma.c **** 
  62:Drivers/STM32F0xx_HAL_Driver/Src/stm32f0xx_hal_dma.c ****   @endverbatim
  63:Drivers/STM32F0xx_HAL_Driver/Src/stm32f0xx_hal_dma.c ****   ******************************************************************************
  64:Drivers/STM32F0xx_HAL_Driver/Src/stm32f0xx_hal_dma.c ****   * @attention
  65:Drivers/STM32F0xx_HAL_Driver/Src/stm32f0xx_hal_dma.c ****   *
  66:Drivers/STM32F0xx_HAL_Driver/Src/stm32f0xx_hal_dma.c ****   * <h2><center>&copy; COPYRIGHT(c) 2016 STMicroelectronics</center></h2>
  67:Drivers/STM32F0xx_HAL_Driver/Src/stm32f0xx_hal_dma.c ****   *
  68:Drivers/STM32F0xx_HAL_Driver/Src/stm32f0xx_hal_dma.c ****   * Redistribution and use in source and binary forms, with or without modification,
  69:Drivers/STM32F0xx_HAL_Driver/Src/stm32f0xx_hal_dma.c ****   * are permitted provided that the following conditions are met:
  70:Drivers/STM32F0xx_HAL_Driver/Src/stm32f0xx_hal_dma.c ****   *   1. Redistributions of source code must retain the above copyright notice,
  71:Drivers/STM32F0xx_HAL_Driver/Src/stm32f0xx_hal_dma.c ****   *      this list of conditions and the following disclaimer.
  72:Drivers/STM32F0xx_HAL_Driver/Src/stm32f0xx_hal_dma.c ****   *   2. Redistributions in binary form must reproduce the above copyright notice,
  73:Drivers/STM32F0xx_HAL_Driver/Src/stm32f0xx_hal_dma.c ****   *      this list of conditions and the following disclaimer in the documentation
  74:Drivers/STM32F0xx_HAL_Driver/Src/stm32f0xx_hal_dma.c ****   *      and/or other materials provided with the distribution.
  75:Drivers/STM32F0xx_HAL_Driver/Src/stm32f0xx_hal_dma.c ****   *   3. Neither the name of STMicroelectronics nor the names of its contributors
  76:Drivers/STM32F0xx_HAL_Driver/Src/stm32f0xx_hal_dma.c ****   *      may be used to endorse or promote products derived from this software
  77:Drivers/STM32F0xx_HAL_Driver/Src/stm32f0xx_hal_dma.c ****   *      without specific prior written permission.
  78:Drivers/STM32F0xx_HAL_Driver/Src/stm32f0xx_hal_dma.c ****   *
  79:Drivers/STM32F0xx_HAL_Driver/Src/stm32f0xx_hal_dma.c ****   * THIS SOFTWARE IS PROVIDED BY THE COPYRIGHT HOLDERS AND CONTRIBUTORS "AS IS"
  80:Drivers/STM32F0xx_HAL_Driver/Src/stm32f0xx_hal_dma.c ****   * AND ANY EXPRESS OR IMPLIED WARRANTIES, INCLUDING, BUT NOT LIMITED TO, THE
  81:Drivers/STM32F0xx_HAL_Driver/Src/stm32f0xx_hal_dma.c ****   * IMPLIED WARRANTIES OF MERCHANTABILITY AND FITNESS FOR A PARTICULAR PURPOSE ARE
  82:Drivers/STM32F0xx_HAL_Driver/Src/stm32f0xx_hal_dma.c ****   * DISCLAIMED. IN NO EVENT SHALL THE COPYRIGHT HOLDER OR CONTRIBUTORS BE LIABLE
  83:Drivers/STM32F0xx_HAL_Driver/Src/stm32f0xx_hal_dma.c ****   * FOR ANY DIRECT, INDIRECT, INCIDENTAL, SPECIAL, EXEMPLARY, OR CONSEQUENTIAL
  84:Drivers/STM32F0xx_HAL_Driver/Src/stm32f0xx_hal_dma.c ****   * DAMAGES (INCLUDING, BUT NOT LIMITED TO, PROCUREMENT OF SUBSTITUTE GOODS OR
  85:Drivers/STM32F0xx_HAL_Driver/Src/stm32f0xx_hal_dma.c ****   * SERVICES; LOSS OF USE, DATA, OR PROFITS; OR BUSINESS INTERRUPTION) HOWEVER
  86:Drivers/STM32F0xx_HAL_Driver/Src/stm32f0xx_hal_dma.c ****   * CAUSED AND ON ANY THEORY OF LIABILITY, WHETHER IN CONTRACT, STRICT LIABILITY,
ARM GAS  /tmp/ccjPiDbo.s 			page 3


  87:Drivers/STM32F0xx_HAL_Driver/Src/stm32f0xx_hal_dma.c ****   * OR TORT (INCLUDING NEGLIGENCE OR OTHERWISE) ARISING IN ANY WAY OUT OF THE USE
  88:Drivers/STM32F0xx_HAL_Driver/Src/stm32f0xx_hal_dma.c ****   * OF THIS SOFTWARE, EVEN IF ADVISED OF THE POSSIBILITY OF SUCH DAMAGE.
  89:Drivers/STM32F0xx_HAL_Driver/Src/stm32f0xx_hal_dma.c ****   *
  90:Drivers/STM32F0xx_HAL_Driver/Src/stm32f0xx_hal_dma.c ****   ******************************************************************************
  91:Drivers/STM32F0xx_HAL_Driver/Src/stm32f0xx_hal_dma.c ****   */ 
  92:Drivers/STM32F0xx_HAL_Driver/Src/stm32f0xx_hal_dma.c **** 
  93:Drivers/STM32F0xx_HAL_Driver/Src/stm32f0xx_hal_dma.c **** /* Includes ------------------------------------------------------------------*/
  94:Drivers/STM32F0xx_HAL_Driver/Src/stm32f0xx_hal_dma.c **** #include "stm32f0xx_hal.h"
  95:Drivers/STM32F0xx_HAL_Driver/Src/stm32f0xx_hal_dma.c **** 
  96:Drivers/STM32F0xx_HAL_Driver/Src/stm32f0xx_hal_dma.c **** /** @addtogroup STM32F0xx_HAL_Driver
  97:Drivers/STM32F0xx_HAL_Driver/Src/stm32f0xx_hal_dma.c ****   * @{
  98:Drivers/STM32F0xx_HAL_Driver/Src/stm32f0xx_hal_dma.c ****   */
  99:Drivers/STM32F0xx_HAL_Driver/Src/stm32f0xx_hal_dma.c **** 
 100:Drivers/STM32F0xx_HAL_Driver/Src/stm32f0xx_hal_dma.c **** 
 101:Drivers/STM32F0xx_HAL_Driver/Src/stm32f0xx_hal_dma.c **** /** @defgroup DMA DMA
 102:Drivers/STM32F0xx_HAL_Driver/Src/stm32f0xx_hal_dma.c ****   * @brief DMA HAL module driver
 103:Drivers/STM32F0xx_HAL_Driver/Src/stm32f0xx_hal_dma.c ****   * @{
 104:Drivers/STM32F0xx_HAL_Driver/Src/stm32f0xx_hal_dma.c ****   */
 105:Drivers/STM32F0xx_HAL_Driver/Src/stm32f0xx_hal_dma.c **** 
 106:Drivers/STM32F0xx_HAL_Driver/Src/stm32f0xx_hal_dma.c **** #ifdef HAL_DMA_MODULE_ENABLED
 107:Drivers/STM32F0xx_HAL_Driver/Src/stm32f0xx_hal_dma.c **** 
 108:Drivers/STM32F0xx_HAL_Driver/Src/stm32f0xx_hal_dma.c **** /* Private typedef -----------------------------------------------------------*/
 109:Drivers/STM32F0xx_HAL_Driver/Src/stm32f0xx_hal_dma.c **** /* Private define ------------------------------------------------------------*/
 110:Drivers/STM32F0xx_HAL_Driver/Src/stm32f0xx_hal_dma.c **** /* Private macro -------------------------------------------------------------*/
 111:Drivers/STM32F0xx_HAL_Driver/Src/stm32f0xx_hal_dma.c **** /* Private variables ---------------------------------------------------------*/
 112:Drivers/STM32F0xx_HAL_Driver/Src/stm32f0xx_hal_dma.c **** /* Private function prototypes -----------------------------------------------*/
 113:Drivers/STM32F0xx_HAL_Driver/Src/stm32f0xx_hal_dma.c **** /** @defgroup DMA_Private_Functions DMA Private Functions
 114:Drivers/STM32F0xx_HAL_Driver/Src/stm32f0xx_hal_dma.c ****   * @{
 115:Drivers/STM32F0xx_HAL_Driver/Src/stm32f0xx_hal_dma.c ****   */
 116:Drivers/STM32F0xx_HAL_Driver/Src/stm32f0xx_hal_dma.c **** static void DMA_SetConfig(DMA_HandleTypeDef *hdma, uint32_t SrcAddress, uint32_t DstAddress, uint32
 117:Drivers/STM32F0xx_HAL_Driver/Src/stm32f0xx_hal_dma.c **** static void DMA_CalcBaseAndBitshift(DMA_HandleTypeDef *hdma);
 118:Drivers/STM32F0xx_HAL_Driver/Src/stm32f0xx_hal_dma.c **** /**
 119:Drivers/STM32F0xx_HAL_Driver/Src/stm32f0xx_hal_dma.c ****   * @}
 120:Drivers/STM32F0xx_HAL_Driver/Src/stm32f0xx_hal_dma.c ****   */
 121:Drivers/STM32F0xx_HAL_Driver/Src/stm32f0xx_hal_dma.c **** 
 122:Drivers/STM32F0xx_HAL_Driver/Src/stm32f0xx_hal_dma.c **** /* Exported functions ---------------------------------------------------------*/
 123:Drivers/STM32F0xx_HAL_Driver/Src/stm32f0xx_hal_dma.c **** 
 124:Drivers/STM32F0xx_HAL_Driver/Src/stm32f0xx_hal_dma.c **** /** @defgroup DMA_Exported_Functions DMA Exported Functions
 125:Drivers/STM32F0xx_HAL_Driver/Src/stm32f0xx_hal_dma.c ****   * @{
 126:Drivers/STM32F0xx_HAL_Driver/Src/stm32f0xx_hal_dma.c ****   */
 127:Drivers/STM32F0xx_HAL_Driver/Src/stm32f0xx_hal_dma.c **** 
 128:Drivers/STM32F0xx_HAL_Driver/Src/stm32f0xx_hal_dma.c **** /** @defgroup DMA_Exported_Functions_Group1 Initialization and de-initialization functions
 129:Drivers/STM32F0xx_HAL_Driver/Src/stm32f0xx_hal_dma.c ****  *  @brief   Initialization and de-initialization functions 
 130:Drivers/STM32F0xx_HAL_Driver/Src/stm32f0xx_hal_dma.c ****  *
 131:Drivers/STM32F0xx_HAL_Driver/Src/stm32f0xx_hal_dma.c **** @verbatim   
 132:Drivers/STM32F0xx_HAL_Driver/Src/stm32f0xx_hal_dma.c ****  ===============================================================================
 133:Drivers/STM32F0xx_HAL_Driver/Src/stm32f0xx_hal_dma.c ****              ##### Initialization and de-initialization functions  #####
 134:Drivers/STM32F0xx_HAL_Driver/Src/stm32f0xx_hal_dma.c ****  ===============================================================================  
 135:Drivers/STM32F0xx_HAL_Driver/Src/stm32f0xx_hal_dma.c ****     [..]
 136:Drivers/STM32F0xx_HAL_Driver/Src/stm32f0xx_hal_dma.c ****     This section provides functions allowing to initialize the DMA Channel source
 137:Drivers/STM32F0xx_HAL_Driver/Src/stm32f0xx_hal_dma.c ****     and destination addresses, incrementation and data sizes, transfer direction, 
 138:Drivers/STM32F0xx_HAL_Driver/Src/stm32f0xx_hal_dma.c ****     circular/normal mode selection, memory-to-memory mode selection and Channel priority value.
 139:Drivers/STM32F0xx_HAL_Driver/Src/stm32f0xx_hal_dma.c ****     [..]
 140:Drivers/STM32F0xx_HAL_Driver/Src/stm32f0xx_hal_dma.c ****     The HAL_DMA_Init() function follows the DMA configuration procedures as described in
 141:Drivers/STM32F0xx_HAL_Driver/Src/stm32f0xx_hal_dma.c ****     reference manual.  
 142:Drivers/STM32F0xx_HAL_Driver/Src/stm32f0xx_hal_dma.c **** 
 143:Drivers/STM32F0xx_HAL_Driver/Src/stm32f0xx_hal_dma.c **** @endverbatim
ARM GAS  /tmp/ccjPiDbo.s 			page 4


 144:Drivers/STM32F0xx_HAL_Driver/Src/stm32f0xx_hal_dma.c ****   * @{
 145:Drivers/STM32F0xx_HAL_Driver/Src/stm32f0xx_hal_dma.c ****   */
 146:Drivers/STM32F0xx_HAL_Driver/Src/stm32f0xx_hal_dma.c ****   
 147:Drivers/STM32F0xx_HAL_Driver/Src/stm32f0xx_hal_dma.c **** /**
 148:Drivers/STM32F0xx_HAL_Driver/Src/stm32f0xx_hal_dma.c ****   * @brief  Initialize the DMA according to the specified
 149:Drivers/STM32F0xx_HAL_Driver/Src/stm32f0xx_hal_dma.c ****   *         parameters in the DMA_InitTypeDef and initialize the associated handle.
 150:Drivers/STM32F0xx_HAL_Driver/Src/stm32f0xx_hal_dma.c ****   * @param  hdma Pointer to a DMA_HandleTypeDef structure that contains
 151:Drivers/STM32F0xx_HAL_Driver/Src/stm32f0xx_hal_dma.c ****   *               the configuration information for the specified DMA Channel.  
 152:Drivers/STM32F0xx_HAL_Driver/Src/stm32f0xx_hal_dma.c ****   * @retval HAL status
 153:Drivers/STM32F0xx_HAL_Driver/Src/stm32f0xx_hal_dma.c ****   */
 154:Drivers/STM32F0xx_HAL_Driver/Src/stm32f0xx_hal_dma.c **** HAL_StatusTypeDef HAL_DMA_Init(DMA_HandleTypeDef *hdma)
 155:Drivers/STM32F0xx_HAL_Driver/Src/stm32f0xx_hal_dma.c **** { 
  30              		.loc 1 155 1 view -0
  31              		.cfi_startproc
  32              		@ args = 0, pretend = 0, frame = 0
  33              		@ frame_needed = 0, uses_anonymous_args = 0
 156:Drivers/STM32F0xx_HAL_Driver/Src/stm32f0xx_hal_dma.c ****   uint32_t tmp = 0U;
  34              		.loc 1 156 3 view .LVU1
 157:Drivers/STM32F0xx_HAL_Driver/Src/stm32f0xx_hal_dma.c ****   
 158:Drivers/STM32F0xx_HAL_Driver/Src/stm32f0xx_hal_dma.c ****   /* Check the DMA handle allocation */
 159:Drivers/STM32F0xx_HAL_Driver/Src/stm32f0xx_hal_dma.c ****   if(NULL == hdma)
  35              		.loc 1 159 3 view .LVU2
 155:Drivers/STM32F0xx_HAL_Driver/Src/stm32f0xx_hal_dma.c ****   uint32_t tmp = 0U;
  36              		.loc 1 155 1 is_stmt 0 view .LVU3
  37 0000 10B5     		push	{r4, lr}
  38              	.LCFI0:
  39              		.cfi_def_cfa_offset 8
  40              		.cfi_offset 4, -8
  41              		.cfi_offset 14, -4
 155:Drivers/STM32F0xx_HAL_Driver/Src/stm32f0xx_hal_dma.c ****   uint32_t tmp = 0U;
  42              		.loc 1 155 1 view .LVU4
  43 0002 041E     		subs	r4, r0, #0
  44              		.loc 1 159 5 view .LVU5
  45 0004 38D0     		beq	.L5
 160:Drivers/STM32F0xx_HAL_Driver/Src/stm32f0xx_hal_dma.c ****   {
 161:Drivers/STM32F0xx_HAL_Driver/Src/stm32f0xx_hal_dma.c ****     return HAL_ERROR;
 162:Drivers/STM32F0xx_HAL_Driver/Src/stm32f0xx_hal_dma.c ****   }
 163:Drivers/STM32F0xx_HAL_Driver/Src/stm32f0xx_hal_dma.c ****   
 164:Drivers/STM32F0xx_HAL_Driver/Src/stm32f0xx_hal_dma.c ****   /* Check the parameters */
 165:Drivers/STM32F0xx_HAL_Driver/Src/stm32f0xx_hal_dma.c ****   assert_param(IS_DMA_ALL_INSTANCE(hdma->Instance));
  46              		.loc 1 165 3 is_stmt 1 view .LVU6
 166:Drivers/STM32F0xx_HAL_Driver/Src/stm32f0xx_hal_dma.c ****   assert_param(IS_DMA_DIRECTION(hdma->Init.Direction));
  47              		.loc 1 166 3 view .LVU7
 167:Drivers/STM32F0xx_HAL_Driver/Src/stm32f0xx_hal_dma.c ****   assert_param(IS_DMA_PERIPHERAL_INC_STATE(hdma->Init.PeriphInc));
  48              		.loc 1 167 3 view .LVU8
 168:Drivers/STM32F0xx_HAL_Driver/Src/stm32f0xx_hal_dma.c ****   assert_param(IS_DMA_MEMORY_INC_STATE(hdma->Init.MemInc));
  49              		.loc 1 168 3 view .LVU9
 169:Drivers/STM32F0xx_HAL_Driver/Src/stm32f0xx_hal_dma.c ****   assert_param(IS_DMA_PERIPHERAL_DATA_SIZE(hdma->Init.PeriphDataAlignment));
  50              		.loc 1 169 3 view .LVU10
 170:Drivers/STM32F0xx_HAL_Driver/Src/stm32f0xx_hal_dma.c ****   assert_param(IS_DMA_MEMORY_DATA_SIZE(hdma->Init.MemDataAlignment));
  51              		.loc 1 170 3 view .LVU11
 171:Drivers/STM32F0xx_HAL_Driver/Src/stm32f0xx_hal_dma.c ****   assert_param(IS_DMA_MODE(hdma->Init.Mode));
  52              		.loc 1 171 3 view .LVU12
 172:Drivers/STM32F0xx_HAL_Driver/Src/stm32f0xx_hal_dma.c ****   assert_param(IS_DMA_PRIORITY(hdma->Init.Priority));
  53              		.loc 1 172 3 view .LVU13
 173:Drivers/STM32F0xx_HAL_Driver/Src/stm32f0xx_hal_dma.c ****   
 174:Drivers/STM32F0xx_HAL_Driver/Src/stm32f0xx_hal_dma.c ****   /* Change DMA peripheral state */
ARM GAS  /tmp/ccjPiDbo.s 			page 5


 175:Drivers/STM32F0xx_HAL_Driver/Src/stm32f0xx_hal_dma.c ****   hdma->State = HAL_DMA_STATE_BUSY;
  54              		.loc 1 175 3 view .LVU14
  55              		.loc 1 175 15 is_stmt 0 view .LVU15
  56 0006 2123     		movs	r3, #33
  57 0008 0222     		movs	r2, #2
  58 000a C254     		strb	r2, [r0, r3]
 176:Drivers/STM32F0xx_HAL_Driver/Src/stm32f0xx_hal_dma.c **** 
 177:Drivers/STM32F0xx_HAL_Driver/Src/stm32f0xx_hal_dma.c ****   /* Get the CR register value */
 178:Drivers/STM32F0xx_HAL_Driver/Src/stm32f0xx_hal_dma.c ****   tmp = hdma->Instance->CCR;
  59              		.loc 1 178 3 is_stmt 1 view .LVU16
  60              		.loc 1 178 13 is_stmt 0 view .LVU17
  61 000c 0068     		ldr	r0, [r0]
  62              	.LVL1:
 179:Drivers/STM32F0xx_HAL_Driver/Src/stm32f0xx_hal_dma.c ****   
 180:Drivers/STM32F0xx_HAL_Driver/Src/stm32f0xx_hal_dma.c ****   /* Clear PL, MSIZE, PSIZE, MINC, PINC, CIRC, DIR bits */
 181:Drivers/STM32F0xx_HAL_Driver/Src/stm32f0xx_hal_dma.c ****   tmp &= ((uint32_t)~(DMA_CCR_PL    | DMA_CCR_MSIZE  | DMA_CCR_PSIZE  | \
  63              		.loc 1 181 7 view .LVU18
  64 000e 1B4A     		ldr	r2, .L8
 178:Drivers/STM32F0xx_HAL_Driver/Src/stm32f0xx_hal_dma.c ****   
  65              		.loc 1 178 7 view .LVU19
  66 0010 0368     		ldr	r3, [r0]
  67              	.LVL2:
  68              		.loc 1 181 3 is_stmt 1 view .LVU20
 182:Drivers/STM32F0xx_HAL_Driver/Src/stm32f0xx_hal_dma.c ****                       DMA_CCR_MINC  | DMA_CCR_PINC   | DMA_CCR_CIRC   | \
 183:Drivers/STM32F0xx_HAL_Driver/Src/stm32f0xx_hal_dma.c ****                       DMA_CCR_DIR));
 184:Drivers/STM32F0xx_HAL_Driver/Src/stm32f0xx_hal_dma.c ****   
 185:Drivers/STM32F0xx_HAL_Driver/Src/stm32f0xx_hal_dma.c ****   /* Prepare the DMA Channel configuration */
 186:Drivers/STM32F0xx_HAL_Driver/Src/stm32f0xx_hal_dma.c ****   tmp |=  hdma->Init.Direction        |
  69              		.loc 1 186 39 is_stmt 0 view .LVU21
  70 0012 A168     		ldr	r1, [r4, #8]
 181:Drivers/STM32F0xx_HAL_Driver/Src/stm32f0xx_hal_dma.c ****                       DMA_CCR_MINC  | DMA_CCR_PINC   | DMA_CCR_CIRC   | \
  71              		.loc 1 181 7 view .LVU22
  72 0014 1A40     		ands	r2, r3
  73              	.LVL3:
  74              		.loc 1 186 3 is_stmt 1 view .LVU23
  75              		.loc 1 186 39 is_stmt 0 view .LVU24
  76 0016 6368     		ldr	r3, [r4, #4]
  77 0018 0B43     		orrs	r3, r1
 187:Drivers/STM32F0xx_HAL_Driver/Src/stm32f0xx_hal_dma.c ****           hdma->Init.PeriphInc           | hdma->Init.MemInc           |
  78              		.loc 1 187 42 view .LVU25
  79 001a E168     		ldr	r1, [r4, #12]
  80 001c 0B43     		orrs	r3, r1
  81              		.loc 1 187 72 view .LVU26
  82 001e 2169     		ldr	r1, [r4, #16]
  83 0020 0B43     		orrs	r3, r1
 188:Drivers/STM32F0xx_HAL_Driver/Src/stm32f0xx_hal_dma.c ****           hdma->Init.PeriphDataAlignment | hdma->Init.MemDataAlignment |
  84              		.loc 1 188 42 view .LVU27
  85 0022 6169     		ldr	r1, [r4, #20]
  86 0024 0B43     		orrs	r3, r1
  87              		.loc 1 188 72 view .LVU28
  88 0026 A169     		ldr	r1, [r4, #24]
  89 0028 0B43     		orrs	r3, r1
 189:Drivers/STM32F0xx_HAL_Driver/Src/stm32f0xx_hal_dma.c ****           hdma->Init.Mode                | hdma->Init.Priority;
  90              		.loc 1 189 42 view .LVU29
  91 002a E169     		ldr	r1, [r4, #28]
  92 002c 0B43     		orrs	r3, r1
 186:Drivers/STM32F0xx_HAL_Driver/Src/stm32f0xx_hal_dma.c ****           hdma->Init.PeriphInc           | hdma->Init.MemInc           |
ARM GAS  /tmp/ccjPiDbo.s 			page 6


  93              		.loc 1 186 7 view .LVU30
  94 002e 1343     		orrs	r3, r2
  95              	.LVL4:
 190:Drivers/STM32F0xx_HAL_Driver/Src/stm32f0xx_hal_dma.c **** 
 191:Drivers/STM32F0xx_HAL_Driver/Src/stm32f0xx_hal_dma.c ****   /* Write to DMA Channel CR register */
 192:Drivers/STM32F0xx_HAL_Driver/Src/stm32f0xx_hal_dma.c ****   hdma->Instance->CCR = tmp;  
  96              		.loc 1 192 3 is_stmt 1 view .LVU31
  97              		.loc 1 192 23 is_stmt 0 view .LVU32
  98 0030 0360     		str	r3, [r0]
 193:Drivers/STM32F0xx_HAL_Driver/Src/stm32f0xx_hal_dma.c ****   
 194:Drivers/STM32F0xx_HAL_Driver/Src/stm32f0xx_hal_dma.c ****   /* Initialize DmaBaseAddress and ChannelIndex parameters used 
 195:Drivers/STM32F0xx_HAL_Driver/Src/stm32f0xx_hal_dma.c ****      by HAL_DMA_IRQHandler() and HAL_DMA_PollForTransfer() */
 196:Drivers/STM32F0xx_HAL_Driver/Src/stm32f0xx_hal_dma.c ****   DMA_CalcBaseAndBitshift(hdma);
  99              		.loc 1 196 3 is_stmt 1 view .LVU33
 100              	.LVL5:
 101              	.LBB10:
 102              	.LBI10:
 197:Drivers/STM32F0xx_HAL_Driver/Src/stm32f0xx_hal_dma.c ****   
 198:Drivers/STM32F0xx_HAL_Driver/Src/stm32f0xx_hal_dma.c ****   /* Clean callbacks */
 199:Drivers/STM32F0xx_HAL_Driver/Src/stm32f0xx_hal_dma.c ****   hdma->XferCpltCallback = NULL;
 200:Drivers/STM32F0xx_HAL_Driver/Src/stm32f0xx_hal_dma.c ****   hdma->XferHalfCpltCallback = NULL;
 201:Drivers/STM32F0xx_HAL_Driver/Src/stm32f0xx_hal_dma.c ****   hdma->XferErrorCallback = NULL;
 202:Drivers/STM32F0xx_HAL_Driver/Src/stm32f0xx_hal_dma.c ****   hdma->XferAbortCallback = NULL;
 203:Drivers/STM32F0xx_HAL_Driver/Src/stm32f0xx_hal_dma.c ****   
 204:Drivers/STM32F0xx_HAL_Driver/Src/stm32f0xx_hal_dma.c ****   /* Initialise the error code */
 205:Drivers/STM32F0xx_HAL_Driver/Src/stm32f0xx_hal_dma.c ****   hdma->ErrorCode = HAL_DMA_ERROR_NONE;
 206:Drivers/STM32F0xx_HAL_Driver/Src/stm32f0xx_hal_dma.c **** 
 207:Drivers/STM32F0xx_HAL_Driver/Src/stm32f0xx_hal_dma.c ****   /* Initialize the DMA state*/
 208:Drivers/STM32F0xx_HAL_Driver/Src/stm32f0xx_hal_dma.c ****   hdma->State = HAL_DMA_STATE_READY;
 209:Drivers/STM32F0xx_HAL_Driver/Src/stm32f0xx_hal_dma.c ****   
 210:Drivers/STM32F0xx_HAL_Driver/Src/stm32f0xx_hal_dma.c ****   /* Allocate lock resource and initialize it */
 211:Drivers/STM32F0xx_HAL_Driver/Src/stm32f0xx_hal_dma.c ****   hdma->Lock = HAL_UNLOCKED;
 212:Drivers/STM32F0xx_HAL_Driver/Src/stm32f0xx_hal_dma.c ****   
 213:Drivers/STM32F0xx_HAL_Driver/Src/stm32f0xx_hal_dma.c ****   return HAL_OK;
 214:Drivers/STM32F0xx_HAL_Driver/Src/stm32f0xx_hal_dma.c **** }  
 215:Drivers/STM32F0xx_HAL_Driver/Src/stm32f0xx_hal_dma.c ****   
 216:Drivers/STM32F0xx_HAL_Driver/Src/stm32f0xx_hal_dma.c **** /**
 217:Drivers/STM32F0xx_HAL_Driver/Src/stm32f0xx_hal_dma.c ****   * @brief  DeInitialize the DMA peripheral 
 218:Drivers/STM32F0xx_HAL_Driver/Src/stm32f0xx_hal_dma.c ****   * @param  hdma pointer to a DMA_HandleTypeDef structure that contains
 219:Drivers/STM32F0xx_HAL_Driver/Src/stm32f0xx_hal_dma.c ****   *               the configuration information for the specified DMA Channel.  
 220:Drivers/STM32F0xx_HAL_Driver/Src/stm32f0xx_hal_dma.c ****   * @retval HAL status
 221:Drivers/STM32F0xx_HAL_Driver/Src/stm32f0xx_hal_dma.c ****   */
 222:Drivers/STM32F0xx_HAL_Driver/Src/stm32f0xx_hal_dma.c **** HAL_StatusTypeDef HAL_DMA_DeInit(DMA_HandleTypeDef *hdma)
 223:Drivers/STM32F0xx_HAL_Driver/Src/stm32f0xx_hal_dma.c **** {
 224:Drivers/STM32F0xx_HAL_Driver/Src/stm32f0xx_hal_dma.c ****   /* Check the DMA handle allocation */
 225:Drivers/STM32F0xx_HAL_Driver/Src/stm32f0xx_hal_dma.c ****   if(NULL == hdma)
 226:Drivers/STM32F0xx_HAL_Driver/Src/stm32f0xx_hal_dma.c ****   {
 227:Drivers/STM32F0xx_HAL_Driver/Src/stm32f0xx_hal_dma.c ****     return HAL_ERROR;
 228:Drivers/STM32F0xx_HAL_Driver/Src/stm32f0xx_hal_dma.c ****   }
 229:Drivers/STM32F0xx_HAL_Driver/Src/stm32f0xx_hal_dma.c ****   
 230:Drivers/STM32F0xx_HAL_Driver/Src/stm32f0xx_hal_dma.c ****   /* Check the parameters */
 231:Drivers/STM32F0xx_HAL_Driver/Src/stm32f0xx_hal_dma.c ****   assert_param(IS_DMA_ALL_INSTANCE(hdma->Instance));
 232:Drivers/STM32F0xx_HAL_Driver/Src/stm32f0xx_hal_dma.c **** 
 233:Drivers/STM32F0xx_HAL_Driver/Src/stm32f0xx_hal_dma.c ****   /* Disable the selected DMA Channelx */
 234:Drivers/STM32F0xx_HAL_Driver/Src/stm32f0xx_hal_dma.c ****   hdma->Instance->CCR &= ~DMA_CCR_EN;
 235:Drivers/STM32F0xx_HAL_Driver/Src/stm32f0xx_hal_dma.c **** 
 236:Drivers/STM32F0xx_HAL_Driver/Src/stm32f0xx_hal_dma.c ****   /* Reset DMA Channel control register */
ARM GAS  /tmp/ccjPiDbo.s 			page 7


 237:Drivers/STM32F0xx_HAL_Driver/Src/stm32f0xx_hal_dma.c ****   hdma->Instance->CCR  = 0U;
 238:Drivers/STM32F0xx_HAL_Driver/Src/stm32f0xx_hal_dma.c **** 
 239:Drivers/STM32F0xx_HAL_Driver/Src/stm32f0xx_hal_dma.c ****   /* Reset DMA Channel Number of Data to Transfer register */
 240:Drivers/STM32F0xx_HAL_Driver/Src/stm32f0xx_hal_dma.c ****   hdma->Instance->CNDTR = 0U;
 241:Drivers/STM32F0xx_HAL_Driver/Src/stm32f0xx_hal_dma.c **** 
 242:Drivers/STM32F0xx_HAL_Driver/Src/stm32f0xx_hal_dma.c ****   /* Reset DMA Channel peripheral address register */
 243:Drivers/STM32F0xx_HAL_Driver/Src/stm32f0xx_hal_dma.c ****   hdma->Instance->CPAR  = 0U;
 244:Drivers/STM32F0xx_HAL_Driver/Src/stm32f0xx_hal_dma.c ****   
 245:Drivers/STM32F0xx_HAL_Driver/Src/stm32f0xx_hal_dma.c ****   /* Reset DMA Channel memory address register */
 246:Drivers/STM32F0xx_HAL_Driver/Src/stm32f0xx_hal_dma.c ****   hdma->Instance->CMAR = 0U;
 247:Drivers/STM32F0xx_HAL_Driver/Src/stm32f0xx_hal_dma.c **** 
 248:Drivers/STM32F0xx_HAL_Driver/Src/stm32f0xx_hal_dma.c **** /* Get DMA Base Address */  
 249:Drivers/STM32F0xx_HAL_Driver/Src/stm32f0xx_hal_dma.c ****   DMA_CalcBaseAndBitshift(hdma);
 250:Drivers/STM32F0xx_HAL_Driver/Src/stm32f0xx_hal_dma.c **** 
 251:Drivers/STM32F0xx_HAL_Driver/Src/stm32f0xx_hal_dma.c ****   /* Clear all flags */
 252:Drivers/STM32F0xx_HAL_Driver/Src/stm32f0xx_hal_dma.c ****   hdma->DmaBaseAddress->IFCR = DMA_FLAG_GL1 << hdma->ChannelIndex;
 253:Drivers/STM32F0xx_HAL_Driver/Src/stm32f0xx_hal_dma.c **** 
 254:Drivers/STM32F0xx_HAL_Driver/Src/stm32f0xx_hal_dma.c ****   /* Initialize the error code */
 255:Drivers/STM32F0xx_HAL_Driver/Src/stm32f0xx_hal_dma.c ****   hdma->ErrorCode = HAL_DMA_ERROR_NONE;
 256:Drivers/STM32F0xx_HAL_Driver/Src/stm32f0xx_hal_dma.c **** 
 257:Drivers/STM32F0xx_HAL_Driver/Src/stm32f0xx_hal_dma.c ****   /* Initialize the DMA state */
 258:Drivers/STM32F0xx_HAL_Driver/Src/stm32f0xx_hal_dma.c ****   hdma->State = HAL_DMA_STATE_RESET;
 259:Drivers/STM32F0xx_HAL_Driver/Src/stm32f0xx_hal_dma.c **** 
 260:Drivers/STM32F0xx_HAL_Driver/Src/stm32f0xx_hal_dma.c ****   /* Release Lock */
 261:Drivers/STM32F0xx_HAL_Driver/Src/stm32f0xx_hal_dma.c ****   __HAL_UNLOCK(hdma);
 262:Drivers/STM32F0xx_HAL_Driver/Src/stm32f0xx_hal_dma.c **** 
 263:Drivers/STM32F0xx_HAL_Driver/Src/stm32f0xx_hal_dma.c ****   return HAL_OK;
 264:Drivers/STM32F0xx_HAL_Driver/Src/stm32f0xx_hal_dma.c **** }
 265:Drivers/STM32F0xx_HAL_Driver/Src/stm32f0xx_hal_dma.c **** 
 266:Drivers/STM32F0xx_HAL_Driver/Src/stm32f0xx_hal_dma.c **** /**
 267:Drivers/STM32F0xx_HAL_Driver/Src/stm32f0xx_hal_dma.c ****   * @}
 268:Drivers/STM32F0xx_HAL_Driver/Src/stm32f0xx_hal_dma.c ****   */
 269:Drivers/STM32F0xx_HAL_Driver/Src/stm32f0xx_hal_dma.c **** 
 270:Drivers/STM32F0xx_HAL_Driver/Src/stm32f0xx_hal_dma.c **** /** @defgroup DMA_Exported_Functions_Group2 Input and Output operation functions 
 271:Drivers/STM32F0xx_HAL_Driver/Src/stm32f0xx_hal_dma.c ****  *  @brief   I/O operation functions  
 272:Drivers/STM32F0xx_HAL_Driver/Src/stm32f0xx_hal_dma.c ****  *
 273:Drivers/STM32F0xx_HAL_Driver/Src/stm32f0xx_hal_dma.c **** @verbatim   
 274:Drivers/STM32F0xx_HAL_Driver/Src/stm32f0xx_hal_dma.c ****  ===============================================================================
 275:Drivers/STM32F0xx_HAL_Driver/Src/stm32f0xx_hal_dma.c ****                       #####  IO operation functions  #####
 276:Drivers/STM32F0xx_HAL_Driver/Src/stm32f0xx_hal_dma.c ****  ===============================================================================  
 277:Drivers/STM32F0xx_HAL_Driver/Src/stm32f0xx_hal_dma.c ****     [..]  This section provides functions allowing to:
 278:Drivers/STM32F0xx_HAL_Driver/Src/stm32f0xx_hal_dma.c ****       (+) Configure the source, destination address and data length and Start DMA transfer
 279:Drivers/STM32F0xx_HAL_Driver/Src/stm32f0xx_hal_dma.c ****       (+) Configure the source, destination address and data length and 
 280:Drivers/STM32F0xx_HAL_Driver/Src/stm32f0xx_hal_dma.c ****           Start DMA transfer with interrupt
 281:Drivers/STM32F0xx_HAL_Driver/Src/stm32f0xx_hal_dma.c ****       (+) Abort DMA transfer
 282:Drivers/STM32F0xx_HAL_Driver/Src/stm32f0xx_hal_dma.c ****       (+) Poll for transfer complete
 283:Drivers/STM32F0xx_HAL_Driver/Src/stm32f0xx_hal_dma.c ****       (+) Handle DMA interrupt request  
 284:Drivers/STM32F0xx_HAL_Driver/Src/stm32f0xx_hal_dma.c **** 
 285:Drivers/STM32F0xx_HAL_Driver/Src/stm32f0xx_hal_dma.c **** @endverbatim
 286:Drivers/STM32F0xx_HAL_Driver/Src/stm32f0xx_hal_dma.c ****   * @{
 287:Drivers/STM32F0xx_HAL_Driver/Src/stm32f0xx_hal_dma.c ****   */
 288:Drivers/STM32F0xx_HAL_Driver/Src/stm32f0xx_hal_dma.c **** 
 289:Drivers/STM32F0xx_HAL_Driver/Src/stm32f0xx_hal_dma.c **** /**
 290:Drivers/STM32F0xx_HAL_Driver/Src/stm32f0xx_hal_dma.c ****   * @brief  Start the DMA Transfer.
 291:Drivers/STM32F0xx_HAL_Driver/Src/stm32f0xx_hal_dma.c ****   * @param  hdma pointer to a DMA_HandleTypeDef structure that contains
 292:Drivers/STM32F0xx_HAL_Driver/Src/stm32f0xx_hal_dma.c ****   *              the configuration information for the specified DMA Channel.  
 293:Drivers/STM32F0xx_HAL_Driver/Src/stm32f0xx_hal_dma.c ****   * @param  SrcAddress The source memory Buffer address
ARM GAS  /tmp/ccjPiDbo.s 			page 8


 294:Drivers/STM32F0xx_HAL_Driver/Src/stm32f0xx_hal_dma.c ****   * @param  DstAddress The destination memory Buffer address
 295:Drivers/STM32F0xx_HAL_Driver/Src/stm32f0xx_hal_dma.c ****   * @param  DataLength The length of data to be transferred from source to destination
 296:Drivers/STM32F0xx_HAL_Driver/Src/stm32f0xx_hal_dma.c ****   * @retval HAL status
 297:Drivers/STM32F0xx_HAL_Driver/Src/stm32f0xx_hal_dma.c ****   */
 298:Drivers/STM32F0xx_HAL_Driver/Src/stm32f0xx_hal_dma.c **** HAL_StatusTypeDef HAL_DMA_Start(DMA_HandleTypeDef *hdma, uint32_t SrcAddress, uint32_t DstAddress, 
 299:Drivers/STM32F0xx_HAL_Driver/Src/stm32f0xx_hal_dma.c **** {
 300:Drivers/STM32F0xx_HAL_Driver/Src/stm32f0xx_hal_dma.c **** 	HAL_StatusTypeDef status = HAL_OK;
 301:Drivers/STM32F0xx_HAL_Driver/Src/stm32f0xx_hal_dma.c **** 
 302:Drivers/STM32F0xx_HAL_Driver/Src/stm32f0xx_hal_dma.c ****   /* Check the parameters */
 303:Drivers/STM32F0xx_HAL_Driver/Src/stm32f0xx_hal_dma.c ****   assert_param(IS_DMA_BUFFER_SIZE(DataLength));
 304:Drivers/STM32F0xx_HAL_Driver/Src/stm32f0xx_hal_dma.c ****   
 305:Drivers/STM32F0xx_HAL_Driver/Src/stm32f0xx_hal_dma.c ****   /* Process locked */
 306:Drivers/STM32F0xx_HAL_Driver/Src/stm32f0xx_hal_dma.c ****   __HAL_LOCK(hdma);
 307:Drivers/STM32F0xx_HAL_Driver/Src/stm32f0xx_hal_dma.c ****   
 308:Drivers/STM32F0xx_HAL_Driver/Src/stm32f0xx_hal_dma.c ****   if(HAL_DMA_STATE_READY == hdma->State)
 309:Drivers/STM32F0xx_HAL_Driver/Src/stm32f0xx_hal_dma.c ****   {
 310:Drivers/STM32F0xx_HAL_Driver/Src/stm32f0xx_hal_dma.c ****   	/* Change DMA peripheral state */  
 311:Drivers/STM32F0xx_HAL_Driver/Src/stm32f0xx_hal_dma.c ****   	hdma->State = HAL_DMA_STATE_BUSY;
 312:Drivers/STM32F0xx_HAL_Driver/Src/stm32f0xx_hal_dma.c ****   	
 313:Drivers/STM32F0xx_HAL_Driver/Src/stm32f0xx_hal_dma.c ****   	hdma->ErrorCode = HAL_DMA_ERROR_NONE;
 314:Drivers/STM32F0xx_HAL_Driver/Src/stm32f0xx_hal_dma.c ****   	
 315:Drivers/STM32F0xx_HAL_Driver/Src/stm32f0xx_hal_dma.c ****   	/* Disable the peripheral */
 316:Drivers/STM32F0xx_HAL_Driver/Src/stm32f0xx_hal_dma.c ****   	hdma->Instance->CCR &= ~DMA_CCR_EN;  
 317:Drivers/STM32F0xx_HAL_Driver/Src/stm32f0xx_hal_dma.c ****   	
 318:Drivers/STM32F0xx_HAL_Driver/Src/stm32f0xx_hal_dma.c ****   	/* Configure the source, destination address and the data length */
 319:Drivers/STM32F0xx_HAL_Driver/Src/stm32f0xx_hal_dma.c ****   	DMA_SetConfig(hdma, SrcAddress, DstAddress, DataLength);
 320:Drivers/STM32F0xx_HAL_Driver/Src/stm32f0xx_hal_dma.c ****   	
 321:Drivers/STM32F0xx_HAL_Driver/Src/stm32f0xx_hal_dma.c ****   	/* Enable the Peripheral */
 322:Drivers/STM32F0xx_HAL_Driver/Src/stm32f0xx_hal_dma.c ****   	hdma->Instance->CCR |= DMA_CCR_EN;  
 323:Drivers/STM32F0xx_HAL_Driver/Src/stm32f0xx_hal_dma.c ****   }
 324:Drivers/STM32F0xx_HAL_Driver/Src/stm32f0xx_hal_dma.c ****   else
 325:Drivers/STM32F0xx_HAL_Driver/Src/stm32f0xx_hal_dma.c ****   {
 326:Drivers/STM32F0xx_HAL_Driver/Src/stm32f0xx_hal_dma.c ****   	/* Process Unlocked */
 327:Drivers/STM32F0xx_HAL_Driver/Src/stm32f0xx_hal_dma.c ****   	__HAL_UNLOCK(hdma);
 328:Drivers/STM32F0xx_HAL_Driver/Src/stm32f0xx_hal_dma.c ****   	
 329:Drivers/STM32F0xx_HAL_Driver/Src/stm32f0xx_hal_dma.c ****   	/* Remain BUSY */
 330:Drivers/STM32F0xx_HAL_Driver/Src/stm32f0xx_hal_dma.c ****   	status = HAL_BUSY;
 331:Drivers/STM32F0xx_HAL_Driver/Src/stm32f0xx_hal_dma.c ****   }  
 332:Drivers/STM32F0xx_HAL_Driver/Src/stm32f0xx_hal_dma.c **** 
 333:Drivers/STM32F0xx_HAL_Driver/Src/stm32f0xx_hal_dma.c ****   return status; 
 334:Drivers/STM32F0xx_HAL_Driver/Src/stm32f0xx_hal_dma.c **** } 
 335:Drivers/STM32F0xx_HAL_Driver/Src/stm32f0xx_hal_dma.c **** 
 336:Drivers/STM32F0xx_HAL_Driver/Src/stm32f0xx_hal_dma.c **** /**
 337:Drivers/STM32F0xx_HAL_Driver/Src/stm32f0xx_hal_dma.c ****   * @brief  Start the DMA Transfer with interrupt enabled.
 338:Drivers/STM32F0xx_HAL_Driver/Src/stm32f0xx_hal_dma.c ****   * @param  hdma       pointer to a DMA_HandleTypeDef structure that contains
 339:Drivers/STM32F0xx_HAL_Driver/Src/stm32f0xx_hal_dma.c ****   *                     the configuration information for the specified DMA Channel.  
 340:Drivers/STM32F0xx_HAL_Driver/Src/stm32f0xx_hal_dma.c ****   * @param  SrcAddress The source memory Buffer address
 341:Drivers/STM32F0xx_HAL_Driver/Src/stm32f0xx_hal_dma.c ****   * @param  DstAddress The destination memory Buffer address
 342:Drivers/STM32F0xx_HAL_Driver/Src/stm32f0xx_hal_dma.c ****   * @param  DataLength The length of data to be transferred from source to destination
 343:Drivers/STM32F0xx_HAL_Driver/Src/stm32f0xx_hal_dma.c ****   * @retval HAL status
 344:Drivers/STM32F0xx_HAL_Driver/Src/stm32f0xx_hal_dma.c ****   */
 345:Drivers/STM32F0xx_HAL_Driver/Src/stm32f0xx_hal_dma.c **** HAL_StatusTypeDef HAL_DMA_Start_IT(DMA_HandleTypeDef *hdma, uint32_t SrcAddress, uint32_t DstAddres
 346:Drivers/STM32F0xx_HAL_Driver/Src/stm32f0xx_hal_dma.c **** {
 347:Drivers/STM32F0xx_HAL_Driver/Src/stm32f0xx_hal_dma.c **** 	HAL_StatusTypeDef status = HAL_OK;
 348:Drivers/STM32F0xx_HAL_Driver/Src/stm32f0xx_hal_dma.c **** 
 349:Drivers/STM32F0xx_HAL_Driver/Src/stm32f0xx_hal_dma.c ****   /* Check the parameters */
 350:Drivers/STM32F0xx_HAL_Driver/Src/stm32f0xx_hal_dma.c ****   assert_param(IS_DMA_BUFFER_SIZE(DataLength));
ARM GAS  /tmp/ccjPiDbo.s 			page 9


 351:Drivers/STM32F0xx_HAL_Driver/Src/stm32f0xx_hal_dma.c ****   
 352:Drivers/STM32F0xx_HAL_Driver/Src/stm32f0xx_hal_dma.c ****   /* Process locked */
 353:Drivers/STM32F0xx_HAL_Driver/Src/stm32f0xx_hal_dma.c ****   __HAL_LOCK(hdma);
 354:Drivers/STM32F0xx_HAL_Driver/Src/stm32f0xx_hal_dma.c ****   
 355:Drivers/STM32F0xx_HAL_Driver/Src/stm32f0xx_hal_dma.c ****   if(HAL_DMA_STATE_READY == hdma->State)
 356:Drivers/STM32F0xx_HAL_Driver/Src/stm32f0xx_hal_dma.c ****   {
 357:Drivers/STM32F0xx_HAL_Driver/Src/stm32f0xx_hal_dma.c ****   	/* Change DMA peripheral state */  
 358:Drivers/STM32F0xx_HAL_Driver/Src/stm32f0xx_hal_dma.c ****   	hdma->State = HAL_DMA_STATE_BUSY;
 359:Drivers/STM32F0xx_HAL_Driver/Src/stm32f0xx_hal_dma.c ****   	
 360:Drivers/STM32F0xx_HAL_Driver/Src/stm32f0xx_hal_dma.c ****   	hdma->ErrorCode = HAL_DMA_ERROR_NONE;
 361:Drivers/STM32F0xx_HAL_Driver/Src/stm32f0xx_hal_dma.c ****   	
 362:Drivers/STM32F0xx_HAL_Driver/Src/stm32f0xx_hal_dma.c ****   	/* Disable the peripheral */
 363:Drivers/STM32F0xx_HAL_Driver/Src/stm32f0xx_hal_dma.c ****   	hdma->Instance->CCR &= ~DMA_CCR_EN;
 364:Drivers/STM32F0xx_HAL_Driver/Src/stm32f0xx_hal_dma.c ****   	
 365:Drivers/STM32F0xx_HAL_Driver/Src/stm32f0xx_hal_dma.c ****   	/* Configure the source, destination address and the data length */  
 366:Drivers/STM32F0xx_HAL_Driver/Src/stm32f0xx_hal_dma.c ****   	DMA_SetConfig(hdma, SrcAddress, DstAddress, DataLength);
 367:Drivers/STM32F0xx_HAL_Driver/Src/stm32f0xx_hal_dma.c ****   	
 368:Drivers/STM32F0xx_HAL_Driver/Src/stm32f0xx_hal_dma.c ****   	/* Enable the transfer complete, & transfer error interrupts */
 369:Drivers/STM32F0xx_HAL_Driver/Src/stm32f0xx_hal_dma.c ****   	/* Half transfer interrupt is optional: enable it only if associated callback is available */
 370:Drivers/STM32F0xx_HAL_Driver/Src/stm32f0xx_hal_dma.c ****     if(NULL != hdma->XferHalfCpltCallback )
 371:Drivers/STM32F0xx_HAL_Driver/Src/stm32f0xx_hal_dma.c ****     {
 372:Drivers/STM32F0xx_HAL_Driver/Src/stm32f0xx_hal_dma.c ****       hdma->Instance->CCR |= (DMA_IT_TC | DMA_IT_HT | DMA_IT_TE);
 373:Drivers/STM32F0xx_HAL_Driver/Src/stm32f0xx_hal_dma.c ****     }
 374:Drivers/STM32F0xx_HAL_Driver/Src/stm32f0xx_hal_dma.c ****   	else
 375:Drivers/STM32F0xx_HAL_Driver/Src/stm32f0xx_hal_dma.c ****   	{
 376:Drivers/STM32F0xx_HAL_Driver/Src/stm32f0xx_hal_dma.c ****   		hdma->Instance->CCR |= (DMA_IT_TC | DMA_IT_TE);
 377:Drivers/STM32F0xx_HAL_Driver/Src/stm32f0xx_hal_dma.c ****   		hdma->Instance->CCR &= ~DMA_IT_HT;
 378:Drivers/STM32F0xx_HAL_Driver/Src/stm32f0xx_hal_dma.c ****   	}
 379:Drivers/STM32F0xx_HAL_Driver/Src/stm32f0xx_hal_dma.c ****   	
 380:Drivers/STM32F0xx_HAL_Driver/Src/stm32f0xx_hal_dma.c ****   	/* Enable the Peripheral */
 381:Drivers/STM32F0xx_HAL_Driver/Src/stm32f0xx_hal_dma.c ****   	hdma->Instance->CCR |= DMA_CCR_EN;
 382:Drivers/STM32F0xx_HAL_Driver/Src/stm32f0xx_hal_dma.c ****   }
 383:Drivers/STM32F0xx_HAL_Driver/Src/stm32f0xx_hal_dma.c ****   else
 384:Drivers/STM32F0xx_HAL_Driver/Src/stm32f0xx_hal_dma.c ****   {
 385:Drivers/STM32F0xx_HAL_Driver/Src/stm32f0xx_hal_dma.c ****   	/* Process Unlocked */
 386:Drivers/STM32F0xx_HAL_Driver/Src/stm32f0xx_hal_dma.c ****     __HAL_UNLOCK(hdma); 
 387:Drivers/STM32F0xx_HAL_Driver/Src/stm32f0xx_hal_dma.c ****   
 388:Drivers/STM32F0xx_HAL_Driver/Src/stm32f0xx_hal_dma.c ****     /* Remain BUSY */
 389:Drivers/STM32F0xx_HAL_Driver/Src/stm32f0xx_hal_dma.c ****     status = HAL_BUSY;
 390:Drivers/STM32F0xx_HAL_Driver/Src/stm32f0xx_hal_dma.c ****   }     
 391:Drivers/STM32F0xx_HAL_Driver/Src/stm32f0xx_hal_dma.c ****   
 392:Drivers/STM32F0xx_HAL_Driver/Src/stm32f0xx_hal_dma.c ****   return status;    
 393:Drivers/STM32F0xx_HAL_Driver/Src/stm32f0xx_hal_dma.c **** } 
 394:Drivers/STM32F0xx_HAL_Driver/Src/stm32f0xx_hal_dma.c **** 
 395:Drivers/STM32F0xx_HAL_Driver/Src/stm32f0xx_hal_dma.c **** /**
 396:Drivers/STM32F0xx_HAL_Driver/Src/stm32f0xx_hal_dma.c ****   * @brief  Abort the DMA Transfer.
 397:Drivers/STM32F0xx_HAL_Driver/Src/stm32f0xx_hal_dma.c ****   * @param  hdma  pointer to a DMA_HandleTypeDef structure that contains
 398:Drivers/STM32F0xx_HAL_Driver/Src/stm32f0xx_hal_dma.c ****   *               the configuration information for the specified DMA Channel.                  
 399:Drivers/STM32F0xx_HAL_Driver/Src/stm32f0xx_hal_dma.c ****   * @retval HAL status
 400:Drivers/STM32F0xx_HAL_Driver/Src/stm32f0xx_hal_dma.c ****   */
 401:Drivers/STM32F0xx_HAL_Driver/Src/stm32f0xx_hal_dma.c **** HAL_StatusTypeDef HAL_DMA_Abort(DMA_HandleTypeDef *hdma)
 402:Drivers/STM32F0xx_HAL_Driver/Src/stm32f0xx_hal_dma.c **** {
 403:Drivers/STM32F0xx_HAL_Driver/Src/stm32f0xx_hal_dma.c **** 	/* Disable DMA IT */
 404:Drivers/STM32F0xx_HAL_Driver/Src/stm32f0xx_hal_dma.c **** 	 hdma->Instance->CCR &= ~(DMA_IT_TC | DMA_IT_HT | DMA_IT_TE);
 405:Drivers/STM32F0xx_HAL_Driver/Src/stm32f0xx_hal_dma.c **** 	
 406:Drivers/STM32F0xx_HAL_Driver/Src/stm32f0xx_hal_dma.c **** 	/* Disable the channel */
 407:Drivers/STM32F0xx_HAL_Driver/Src/stm32f0xx_hal_dma.c **** 	hdma->Instance->CCR &= ~DMA_CCR_EN;
ARM GAS  /tmp/ccjPiDbo.s 			page 10


 408:Drivers/STM32F0xx_HAL_Driver/Src/stm32f0xx_hal_dma.c **** 	
 409:Drivers/STM32F0xx_HAL_Driver/Src/stm32f0xx_hal_dma.c **** 	/* Clear all flags */
 410:Drivers/STM32F0xx_HAL_Driver/Src/stm32f0xx_hal_dma.c **** 	hdma->DmaBaseAddress->IFCR = (DMA_FLAG_GL1 << hdma->ChannelIndex);
 411:Drivers/STM32F0xx_HAL_Driver/Src/stm32f0xx_hal_dma.c **** 	
 412:Drivers/STM32F0xx_HAL_Driver/Src/stm32f0xx_hal_dma.c **** 	/* Change the DMA state*/
 413:Drivers/STM32F0xx_HAL_Driver/Src/stm32f0xx_hal_dma.c **** 	hdma->State = HAL_DMA_STATE_READY; 
 414:Drivers/STM32F0xx_HAL_Driver/Src/stm32f0xx_hal_dma.c **** 	
 415:Drivers/STM32F0xx_HAL_Driver/Src/stm32f0xx_hal_dma.c **** 	/* Process Unlocked */
 416:Drivers/STM32F0xx_HAL_Driver/Src/stm32f0xx_hal_dma.c **** 	__HAL_UNLOCK(hdma);
 417:Drivers/STM32F0xx_HAL_Driver/Src/stm32f0xx_hal_dma.c **** 	
 418:Drivers/STM32F0xx_HAL_Driver/Src/stm32f0xx_hal_dma.c **** 	return HAL_OK; 
 419:Drivers/STM32F0xx_HAL_Driver/Src/stm32f0xx_hal_dma.c **** }
 420:Drivers/STM32F0xx_HAL_Driver/Src/stm32f0xx_hal_dma.c **** 
 421:Drivers/STM32F0xx_HAL_Driver/Src/stm32f0xx_hal_dma.c **** /**
 422:Drivers/STM32F0xx_HAL_Driver/Src/stm32f0xx_hal_dma.c ****   * @brief  Abort the DMA Transfer in Interrupt mode.
 423:Drivers/STM32F0xx_HAL_Driver/Src/stm32f0xx_hal_dma.c ****   * @param  hdma  pointer to a DMA_HandleTypeDef structure that contains
 424:Drivers/STM32F0xx_HAL_Driver/Src/stm32f0xx_hal_dma.c ****   *               the configuration information for the specified DMA Stream.
 425:Drivers/STM32F0xx_HAL_Driver/Src/stm32f0xx_hal_dma.c ****   * @retval HAL status
 426:Drivers/STM32F0xx_HAL_Driver/Src/stm32f0xx_hal_dma.c ****   */
 427:Drivers/STM32F0xx_HAL_Driver/Src/stm32f0xx_hal_dma.c **** HAL_StatusTypeDef HAL_DMA_Abort_IT(DMA_HandleTypeDef *hdma)
 428:Drivers/STM32F0xx_HAL_Driver/Src/stm32f0xx_hal_dma.c **** {  
 429:Drivers/STM32F0xx_HAL_Driver/Src/stm32f0xx_hal_dma.c ****   HAL_StatusTypeDef status = HAL_OK;
 430:Drivers/STM32F0xx_HAL_Driver/Src/stm32f0xx_hal_dma.c ****   
 431:Drivers/STM32F0xx_HAL_Driver/Src/stm32f0xx_hal_dma.c ****   if(HAL_DMA_STATE_BUSY != hdma->State)
 432:Drivers/STM32F0xx_HAL_Driver/Src/stm32f0xx_hal_dma.c ****   {
 433:Drivers/STM32F0xx_HAL_Driver/Src/stm32f0xx_hal_dma.c ****     /* no transfer ongoing */
 434:Drivers/STM32F0xx_HAL_Driver/Src/stm32f0xx_hal_dma.c ****     hdma->ErrorCode = HAL_DMA_ERROR_NO_XFER;
 435:Drivers/STM32F0xx_HAL_Driver/Src/stm32f0xx_hal_dma.c ****         
 436:Drivers/STM32F0xx_HAL_Driver/Src/stm32f0xx_hal_dma.c ****     status = HAL_ERROR;
 437:Drivers/STM32F0xx_HAL_Driver/Src/stm32f0xx_hal_dma.c ****   }
 438:Drivers/STM32F0xx_HAL_Driver/Src/stm32f0xx_hal_dma.c ****   else
 439:Drivers/STM32F0xx_HAL_Driver/Src/stm32f0xx_hal_dma.c ****   { 
 440:Drivers/STM32F0xx_HAL_Driver/Src/stm32f0xx_hal_dma.c ****   
 441:Drivers/STM32F0xx_HAL_Driver/Src/stm32f0xx_hal_dma.c ****     /* Disable DMA IT */
 442:Drivers/STM32F0xx_HAL_Driver/Src/stm32f0xx_hal_dma.c ****     hdma->Instance->CCR &= ~(DMA_IT_TC | DMA_IT_HT | DMA_IT_TE);
 443:Drivers/STM32F0xx_HAL_Driver/Src/stm32f0xx_hal_dma.c ****     
 444:Drivers/STM32F0xx_HAL_Driver/Src/stm32f0xx_hal_dma.c ****     /* Disable the channel */
 445:Drivers/STM32F0xx_HAL_Driver/Src/stm32f0xx_hal_dma.c ****     hdma->Instance->CCR &= ~DMA_CCR_EN;
 446:Drivers/STM32F0xx_HAL_Driver/Src/stm32f0xx_hal_dma.c ****     
 447:Drivers/STM32F0xx_HAL_Driver/Src/stm32f0xx_hal_dma.c ****     /* Clear all flags */
 448:Drivers/STM32F0xx_HAL_Driver/Src/stm32f0xx_hal_dma.c ****     hdma->DmaBaseAddress->IFCR = DMA_FLAG_GL1 << hdma->ChannelIndex;
 449:Drivers/STM32F0xx_HAL_Driver/Src/stm32f0xx_hal_dma.c ****     
 450:Drivers/STM32F0xx_HAL_Driver/Src/stm32f0xx_hal_dma.c ****     /* Change the DMA state */
 451:Drivers/STM32F0xx_HAL_Driver/Src/stm32f0xx_hal_dma.c ****     hdma->State = HAL_DMA_STATE_READY;
 452:Drivers/STM32F0xx_HAL_Driver/Src/stm32f0xx_hal_dma.c ****     
 453:Drivers/STM32F0xx_HAL_Driver/Src/stm32f0xx_hal_dma.c ****     /* Process Unlocked */
 454:Drivers/STM32F0xx_HAL_Driver/Src/stm32f0xx_hal_dma.c ****     __HAL_UNLOCK(hdma);
 455:Drivers/STM32F0xx_HAL_Driver/Src/stm32f0xx_hal_dma.c ****     
 456:Drivers/STM32F0xx_HAL_Driver/Src/stm32f0xx_hal_dma.c ****     /* Call User Abort callback */ 
 457:Drivers/STM32F0xx_HAL_Driver/Src/stm32f0xx_hal_dma.c ****     if(hdma->XferAbortCallback != NULL)
 458:Drivers/STM32F0xx_HAL_Driver/Src/stm32f0xx_hal_dma.c ****     {
 459:Drivers/STM32F0xx_HAL_Driver/Src/stm32f0xx_hal_dma.c ****       hdma->XferAbortCallback(hdma);
 460:Drivers/STM32F0xx_HAL_Driver/Src/stm32f0xx_hal_dma.c ****     } 
 461:Drivers/STM32F0xx_HAL_Driver/Src/stm32f0xx_hal_dma.c ****   }
 462:Drivers/STM32F0xx_HAL_Driver/Src/stm32f0xx_hal_dma.c ****   return status;
 463:Drivers/STM32F0xx_HAL_Driver/Src/stm32f0xx_hal_dma.c **** }
 464:Drivers/STM32F0xx_HAL_Driver/Src/stm32f0xx_hal_dma.c **** 
ARM GAS  /tmp/ccjPiDbo.s 			page 11


 465:Drivers/STM32F0xx_HAL_Driver/Src/stm32f0xx_hal_dma.c **** /**
 466:Drivers/STM32F0xx_HAL_Driver/Src/stm32f0xx_hal_dma.c ****   * @brief  Polling for transfer complete.
 467:Drivers/STM32F0xx_HAL_Driver/Src/stm32f0xx_hal_dma.c ****   * @param  hdma    pointer to a DMA_HandleTypeDef structure that contains
 468:Drivers/STM32F0xx_HAL_Driver/Src/stm32f0xx_hal_dma.c ****   *                  the configuration information for the specified DMA Channel.
 469:Drivers/STM32F0xx_HAL_Driver/Src/stm32f0xx_hal_dma.c ****   * @param  CompleteLevel Specifies the DMA level complete.  
 470:Drivers/STM32F0xx_HAL_Driver/Src/stm32f0xx_hal_dma.c ****   * @param  Timeout       Timeout duration.
 471:Drivers/STM32F0xx_HAL_Driver/Src/stm32f0xx_hal_dma.c ****   * @retval HAL status
 472:Drivers/STM32F0xx_HAL_Driver/Src/stm32f0xx_hal_dma.c ****   */
 473:Drivers/STM32F0xx_HAL_Driver/Src/stm32f0xx_hal_dma.c **** HAL_StatusTypeDef HAL_DMA_PollForTransfer(DMA_HandleTypeDef *hdma, uint32_t CompleteLevel, uint32_t
 474:Drivers/STM32F0xx_HAL_Driver/Src/stm32f0xx_hal_dma.c **** {
 475:Drivers/STM32F0xx_HAL_Driver/Src/stm32f0xx_hal_dma.c ****   uint32_t temp;
 476:Drivers/STM32F0xx_HAL_Driver/Src/stm32f0xx_hal_dma.c ****   uint32_t tickstart = 0U;
 477:Drivers/STM32F0xx_HAL_Driver/Src/stm32f0xx_hal_dma.c ****   
 478:Drivers/STM32F0xx_HAL_Driver/Src/stm32f0xx_hal_dma.c ****   if(HAL_DMA_STATE_BUSY != hdma->State)
 479:Drivers/STM32F0xx_HAL_Driver/Src/stm32f0xx_hal_dma.c ****   {
 480:Drivers/STM32F0xx_HAL_Driver/Src/stm32f0xx_hal_dma.c ****     /* no transfer ongoing */
 481:Drivers/STM32F0xx_HAL_Driver/Src/stm32f0xx_hal_dma.c ****     hdma->ErrorCode = HAL_DMA_ERROR_NO_XFER;
 482:Drivers/STM32F0xx_HAL_Driver/Src/stm32f0xx_hal_dma.c ****     __HAL_UNLOCK(hdma);
 483:Drivers/STM32F0xx_HAL_Driver/Src/stm32f0xx_hal_dma.c ****     return HAL_ERROR;
 484:Drivers/STM32F0xx_HAL_Driver/Src/stm32f0xx_hal_dma.c ****   }
 485:Drivers/STM32F0xx_HAL_Driver/Src/stm32f0xx_hal_dma.c ****   
 486:Drivers/STM32F0xx_HAL_Driver/Src/stm32f0xx_hal_dma.c ****   /* Polling mode not supported in circular mode */
 487:Drivers/STM32F0xx_HAL_Driver/Src/stm32f0xx_hal_dma.c ****   if (RESET != (hdma->Instance->CCR & DMA_CCR_CIRC))
 488:Drivers/STM32F0xx_HAL_Driver/Src/stm32f0xx_hal_dma.c ****   {
 489:Drivers/STM32F0xx_HAL_Driver/Src/stm32f0xx_hal_dma.c ****     hdma->ErrorCode = HAL_DMA_ERROR_NOT_SUPPORTED;
 490:Drivers/STM32F0xx_HAL_Driver/Src/stm32f0xx_hal_dma.c ****     return HAL_ERROR;
 491:Drivers/STM32F0xx_HAL_Driver/Src/stm32f0xx_hal_dma.c ****   }
 492:Drivers/STM32F0xx_HAL_Driver/Src/stm32f0xx_hal_dma.c ****   
 493:Drivers/STM32F0xx_HAL_Driver/Src/stm32f0xx_hal_dma.c ****   /* Get the level transfer complete flag */
 494:Drivers/STM32F0xx_HAL_Driver/Src/stm32f0xx_hal_dma.c ****   if(HAL_DMA_FULL_TRANSFER == CompleteLevel)
 495:Drivers/STM32F0xx_HAL_Driver/Src/stm32f0xx_hal_dma.c ****   {
 496:Drivers/STM32F0xx_HAL_Driver/Src/stm32f0xx_hal_dma.c ****     /* Transfer Complete flag */
 497:Drivers/STM32F0xx_HAL_Driver/Src/stm32f0xx_hal_dma.c ****     temp = DMA_FLAG_TC1 << hdma->ChannelIndex;
 498:Drivers/STM32F0xx_HAL_Driver/Src/stm32f0xx_hal_dma.c ****   }
 499:Drivers/STM32F0xx_HAL_Driver/Src/stm32f0xx_hal_dma.c ****   else
 500:Drivers/STM32F0xx_HAL_Driver/Src/stm32f0xx_hal_dma.c ****   {
 501:Drivers/STM32F0xx_HAL_Driver/Src/stm32f0xx_hal_dma.c ****     /* Half Transfer Complete flag */
 502:Drivers/STM32F0xx_HAL_Driver/Src/stm32f0xx_hal_dma.c ****     temp = DMA_FLAG_HT1 << hdma->ChannelIndex;
 503:Drivers/STM32F0xx_HAL_Driver/Src/stm32f0xx_hal_dma.c ****   }
 504:Drivers/STM32F0xx_HAL_Driver/Src/stm32f0xx_hal_dma.c **** 
 505:Drivers/STM32F0xx_HAL_Driver/Src/stm32f0xx_hal_dma.c ****   /* Get tick */
 506:Drivers/STM32F0xx_HAL_Driver/Src/stm32f0xx_hal_dma.c ****   tickstart = HAL_GetTick();
 507:Drivers/STM32F0xx_HAL_Driver/Src/stm32f0xx_hal_dma.c **** 
 508:Drivers/STM32F0xx_HAL_Driver/Src/stm32f0xx_hal_dma.c ****   while(RESET == (hdma->DmaBaseAddress->ISR & temp))
 509:Drivers/STM32F0xx_HAL_Driver/Src/stm32f0xx_hal_dma.c ****   {
 510:Drivers/STM32F0xx_HAL_Driver/Src/stm32f0xx_hal_dma.c ****     if(RESET != (hdma->DmaBaseAddress->ISR & (DMA_FLAG_TE1 << hdma->ChannelIndex)))
 511:Drivers/STM32F0xx_HAL_Driver/Src/stm32f0xx_hal_dma.c ****     {      
 512:Drivers/STM32F0xx_HAL_Driver/Src/stm32f0xx_hal_dma.c ****       /* When a DMA transfer error occurs */
 513:Drivers/STM32F0xx_HAL_Driver/Src/stm32f0xx_hal_dma.c ****       /* A hardware clear of its EN bits is performed */
 514:Drivers/STM32F0xx_HAL_Driver/Src/stm32f0xx_hal_dma.c ****       /* Clear all flags */
 515:Drivers/STM32F0xx_HAL_Driver/Src/stm32f0xx_hal_dma.c ****       hdma->DmaBaseAddress->IFCR = DMA_FLAG_GL1 << hdma->ChannelIndex;
 516:Drivers/STM32F0xx_HAL_Driver/Src/stm32f0xx_hal_dma.c ****       
 517:Drivers/STM32F0xx_HAL_Driver/Src/stm32f0xx_hal_dma.c ****       /* Update error code */
 518:Drivers/STM32F0xx_HAL_Driver/Src/stm32f0xx_hal_dma.c ****       hdma->ErrorCode = HAL_DMA_ERROR_TE;
 519:Drivers/STM32F0xx_HAL_Driver/Src/stm32f0xx_hal_dma.c **** 
 520:Drivers/STM32F0xx_HAL_Driver/Src/stm32f0xx_hal_dma.c ****       /* Change the DMA state */
 521:Drivers/STM32F0xx_HAL_Driver/Src/stm32f0xx_hal_dma.c ****       hdma->State= HAL_DMA_STATE_READY;       
ARM GAS  /tmp/ccjPiDbo.s 			page 12


 522:Drivers/STM32F0xx_HAL_Driver/Src/stm32f0xx_hal_dma.c ****       
 523:Drivers/STM32F0xx_HAL_Driver/Src/stm32f0xx_hal_dma.c ****       /* Process Unlocked */
 524:Drivers/STM32F0xx_HAL_Driver/Src/stm32f0xx_hal_dma.c ****       __HAL_UNLOCK(hdma);
 525:Drivers/STM32F0xx_HAL_Driver/Src/stm32f0xx_hal_dma.c ****       
 526:Drivers/STM32F0xx_HAL_Driver/Src/stm32f0xx_hal_dma.c ****       return HAL_ERROR;      
 527:Drivers/STM32F0xx_HAL_Driver/Src/stm32f0xx_hal_dma.c ****     }      
 528:Drivers/STM32F0xx_HAL_Driver/Src/stm32f0xx_hal_dma.c ****     /* Check for the Timeout */
 529:Drivers/STM32F0xx_HAL_Driver/Src/stm32f0xx_hal_dma.c ****     if(Timeout != HAL_MAX_DELAY)
 530:Drivers/STM32F0xx_HAL_Driver/Src/stm32f0xx_hal_dma.c ****     {
 531:Drivers/STM32F0xx_HAL_Driver/Src/stm32f0xx_hal_dma.c ****       if((Timeout == 0U) || ((HAL_GetTick() - tickstart) > Timeout))
 532:Drivers/STM32F0xx_HAL_Driver/Src/stm32f0xx_hal_dma.c ****       {
 533:Drivers/STM32F0xx_HAL_Driver/Src/stm32f0xx_hal_dma.c ****         /* Update error code */
 534:Drivers/STM32F0xx_HAL_Driver/Src/stm32f0xx_hal_dma.c ****         hdma->ErrorCode = HAL_DMA_ERROR_TIMEOUT;
 535:Drivers/STM32F0xx_HAL_Driver/Src/stm32f0xx_hal_dma.c ****         
 536:Drivers/STM32F0xx_HAL_Driver/Src/stm32f0xx_hal_dma.c ****         /* Change the DMA state */
 537:Drivers/STM32F0xx_HAL_Driver/Src/stm32f0xx_hal_dma.c ****         hdma->State = HAL_DMA_STATE_READY;
 538:Drivers/STM32F0xx_HAL_Driver/Src/stm32f0xx_hal_dma.c **** 
 539:Drivers/STM32F0xx_HAL_Driver/Src/stm32f0xx_hal_dma.c ****         /* Process Unlocked */
 540:Drivers/STM32F0xx_HAL_Driver/Src/stm32f0xx_hal_dma.c ****         __HAL_UNLOCK(hdma);
 541:Drivers/STM32F0xx_HAL_Driver/Src/stm32f0xx_hal_dma.c **** 
 542:Drivers/STM32F0xx_HAL_Driver/Src/stm32f0xx_hal_dma.c ****         return HAL_ERROR;
 543:Drivers/STM32F0xx_HAL_Driver/Src/stm32f0xx_hal_dma.c ****       }
 544:Drivers/STM32F0xx_HAL_Driver/Src/stm32f0xx_hal_dma.c ****     }
 545:Drivers/STM32F0xx_HAL_Driver/Src/stm32f0xx_hal_dma.c ****   }
 546:Drivers/STM32F0xx_HAL_Driver/Src/stm32f0xx_hal_dma.c **** 
 547:Drivers/STM32F0xx_HAL_Driver/Src/stm32f0xx_hal_dma.c ****   if(HAL_DMA_FULL_TRANSFER == CompleteLevel)
 548:Drivers/STM32F0xx_HAL_Driver/Src/stm32f0xx_hal_dma.c ****   {
 549:Drivers/STM32F0xx_HAL_Driver/Src/stm32f0xx_hal_dma.c ****     /* Clear the transfer complete flag */
 550:Drivers/STM32F0xx_HAL_Driver/Src/stm32f0xx_hal_dma.c ****     hdma->DmaBaseAddress->IFCR = DMA_FLAG_TC1 << hdma->ChannelIndex;
 551:Drivers/STM32F0xx_HAL_Driver/Src/stm32f0xx_hal_dma.c **** 
 552:Drivers/STM32F0xx_HAL_Driver/Src/stm32f0xx_hal_dma.c ****     /* The selected Channelx EN bit is cleared (DMA is disabled and 
 553:Drivers/STM32F0xx_HAL_Driver/Src/stm32f0xx_hal_dma.c ****     all transfers are complete) */
 554:Drivers/STM32F0xx_HAL_Driver/Src/stm32f0xx_hal_dma.c ****     hdma->State = HAL_DMA_STATE_READY;
 555:Drivers/STM32F0xx_HAL_Driver/Src/stm32f0xx_hal_dma.c ****   }
 556:Drivers/STM32F0xx_HAL_Driver/Src/stm32f0xx_hal_dma.c ****   else
 557:Drivers/STM32F0xx_HAL_Driver/Src/stm32f0xx_hal_dma.c ****   { 
 558:Drivers/STM32F0xx_HAL_Driver/Src/stm32f0xx_hal_dma.c ****     /* Clear the half transfer complete flag */
 559:Drivers/STM32F0xx_HAL_Driver/Src/stm32f0xx_hal_dma.c ****     hdma->DmaBaseAddress->IFCR = DMA_FLAG_HT1 << hdma->ChannelIndex;
 560:Drivers/STM32F0xx_HAL_Driver/Src/stm32f0xx_hal_dma.c ****   }
 561:Drivers/STM32F0xx_HAL_Driver/Src/stm32f0xx_hal_dma.c ****   
 562:Drivers/STM32F0xx_HAL_Driver/Src/stm32f0xx_hal_dma.c ****   /* Process unlocked */
 563:Drivers/STM32F0xx_HAL_Driver/Src/stm32f0xx_hal_dma.c ****   __HAL_UNLOCK(hdma);  
 564:Drivers/STM32F0xx_HAL_Driver/Src/stm32f0xx_hal_dma.c **** 
 565:Drivers/STM32F0xx_HAL_Driver/Src/stm32f0xx_hal_dma.c ****   return HAL_OK;
 566:Drivers/STM32F0xx_HAL_Driver/Src/stm32f0xx_hal_dma.c **** }
 567:Drivers/STM32F0xx_HAL_Driver/Src/stm32f0xx_hal_dma.c **** 
 568:Drivers/STM32F0xx_HAL_Driver/Src/stm32f0xx_hal_dma.c **** /**
 569:Drivers/STM32F0xx_HAL_Driver/Src/stm32f0xx_hal_dma.c ****   * @brief  Handle DMA interrupt request.
 570:Drivers/STM32F0xx_HAL_Driver/Src/stm32f0xx_hal_dma.c ****   * @param  hdma pointer to a DMA_HandleTypeDef structure that contains
 571:Drivers/STM32F0xx_HAL_Driver/Src/stm32f0xx_hal_dma.c ****   *               the configuration information for the specified DMA Channel.  
 572:Drivers/STM32F0xx_HAL_Driver/Src/stm32f0xx_hal_dma.c ****   * @retval None
 573:Drivers/STM32F0xx_HAL_Driver/Src/stm32f0xx_hal_dma.c ****   */
 574:Drivers/STM32F0xx_HAL_Driver/Src/stm32f0xx_hal_dma.c **** void HAL_DMA_IRQHandler(DMA_HandleTypeDef *hdma)
 575:Drivers/STM32F0xx_HAL_Driver/Src/stm32f0xx_hal_dma.c **** {
 576:Drivers/STM32F0xx_HAL_Driver/Src/stm32f0xx_hal_dma.c **** 	uint32_t flag_it = hdma->DmaBaseAddress->ISR;
 577:Drivers/STM32F0xx_HAL_Driver/Src/stm32f0xx_hal_dma.c ****   uint32_t source_it = hdma->Instance->CCR;
 578:Drivers/STM32F0xx_HAL_Driver/Src/stm32f0xx_hal_dma.c ****           
ARM GAS  /tmp/ccjPiDbo.s 			page 13


 579:Drivers/STM32F0xx_HAL_Driver/Src/stm32f0xx_hal_dma.c ****   /* Half Transfer Complete Interrupt management ******************************/
 580:Drivers/STM32F0xx_HAL_Driver/Src/stm32f0xx_hal_dma.c ****   if ((RESET != (flag_it & (DMA_FLAG_HT1 << hdma->ChannelIndex))) && (RESET != (source_it & DMA_IT_
 581:Drivers/STM32F0xx_HAL_Driver/Src/stm32f0xx_hal_dma.c ****   {
 582:Drivers/STM32F0xx_HAL_Driver/Src/stm32f0xx_hal_dma.c ****   	/* Disable the half transfer interrupt if the DMA mode is not CIRCULAR */
 583:Drivers/STM32F0xx_HAL_Driver/Src/stm32f0xx_hal_dma.c ****   	if((hdma->Instance->CCR & DMA_CCR_CIRC) == 0U)
 584:Drivers/STM32F0xx_HAL_Driver/Src/stm32f0xx_hal_dma.c ****   	{
 585:Drivers/STM32F0xx_HAL_Driver/Src/stm32f0xx_hal_dma.c ****   		/* Disable the half transfer interrupt */
 586:Drivers/STM32F0xx_HAL_Driver/Src/stm32f0xx_hal_dma.c ****   		hdma->Instance->CCR &= ~DMA_IT_HT;
 587:Drivers/STM32F0xx_HAL_Driver/Src/stm32f0xx_hal_dma.c ****   	}
 588:Drivers/STM32F0xx_HAL_Driver/Src/stm32f0xx_hal_dma.c ****   	
 589:Drivers/STM32F0xx_HAL_Driver/Src/stm32f0xx_hal_dma.c ****   	/* Clear the half transfer complete flag */
 590:Drivers/STM32F0xx_HAL_Driver/Src/stm32f0xx_hal_dma.c ****   	hdma->DmaBaseAddress->IFCR = DMA_FLAG_HT1 << hdma->ChannelIndex;
 591:Drivers/STM32F0xx_HAL_Driver/Src/stm32f0xx_hal_dma.c ****   	
 592:Drivers/STM32F0xx_HAL_Driver/Src/stm32f0xx_hal_dma.c ****   	/* DMA peripheral state is not updated in Half Transfer */
 593:Drivers/STM32F0xx_HAL_Driver/Src/stm32f0xx_hal_dma.c ****   	/* State is updated only in Transfer Complete case */
 594:Drivers/STM32F0xx_HAL_Driver/Src/stm32f0xx_hal_dma.c ****   	
 595:Drivers/STM32F0xx_HAL_Driver/Src/stm32f0xx_hal_dma.c ****   	if(hdma->XferHalfCpltCallback != NULL)
 596:Drivers/STM32F0xx_HAL_Driver/Src/stm32f0xx_hal_dma.c ****   	{
 597:Drivers/STM32F0xx_HAL_Driver/Src/stm32f0xx_hal_dma.c ****   		/* Half transfer callback */
 598:Drivers/STM32F0xx_HAL_Driver/Src/stm32f0xx_hal_dma.c ****   		hdma->XferHalfCpltCallback(hdma);
 599:Drivers/STM32F0xx_HAL_Driver/Src/stm32f0xx_hal_dma.c ****   	}
 600:Drivers/STM32F0xx_HAL_Driver/Src/stm32f0xx_hal_dma.c ****   }
 601:Drivers/STM32F0xx_HAL_Driver/Src/stm32f0xx_hal_dma.c ****   
 602:Drivers/STM32F0xx_HAL_Driver/Src/stm32f0xx_hal_dma.c ****   /* Transfer Complete Interrupt management ***********************************/
 603:Drivers/STM32F0xx_HAL_Driver/Src/stm32f0xx_hal_dma.c ****   else if ((RESET != (flag_it & (DMA_FLAG_TC1 << hdma->ChannelIndex))) && (RESET != (source_it & DM
 604:Drivers/STM32F0xx_HAL_Driver/Src/stm32f0xx_hal_dma.c ****   {
 605:Drivers/STM32F0xx_HAL_Driver/Src/stm32f0xx_hal_dma.c ****   	if((hdma->Instance->CCR & DMA_CCR_CIRC) == 0U)
 606:Drivers/STM32F0xx_HAL_Driver/Src/stm32f0xx_hal_dma.c ****   	{
 607:Drivers/STM32F0xx_HAL_Driver/Src/stm32f0xx_hal_dma.c ****   		/* Disable the transfer complete  & transfer error interrupts */
 608:Drivers/STM32F0xx_HAL_Driver/Src/stm32f0xx_hal_dma.c ****   		/* if the DMA mode is not CIRCULAR */
 609:Drivers/STM32F0xx_HAL_Driver/Src/stm32f0xx_hal_dma.c ****   		hdma->Instance->CCR &= ~(DMA_IT_TC | DMA_IT_TE);
 610:Drivers/STM32F0xx_HAL_Driver/Src/stm32f0xx_hal_dma.c ****   		
 611:Drivers/STM32F0xx_HAL_Driver/Src/stm32f0xx_hal_dma.c ****   		/* Change the DMA state */
 612:Drivers/STM32F0xx_HAL_Driver/Src/stm32f0xx_hal_dma.c ****   		hdma->State = HAL_DMA_STATE_READY;
 613:Drivers/STM32F0xx_HAL_Driver/Src/stm32f0xx_hal_dma.c ****   	}
 614:Drivers/STM32F0xx_HAL_Driver/Src/stm32f0xx_hal_dma.c ****   	
 615:Drivers/STM32F0xx_HAL_Driver/Src/stm32f0xx_hal_dma.c ****   	/* Clear the transfer complete flag */
 616:Drivers/STM32F0xx_HAL_Driver/Src/stm32f0xx_hal_dma.c ****   	hdma->DmaBaseAddress->IFCR = DMA_FLAG_TC1 << hdma->ChannelIndex;
 617:Drivers/STM32F0xx_HAL_Driver/Src/stm32f0xx_hal_dma.c ****   	
 618:Drivers/STM32F0xx_HAL_Driver/Src/stm32f0xx_hal_dma.c ****   	/* Process Unlocked */
 619:Drivers/STM32F0xx_HAL_Driver/Src/stm32f0xx_hal_dma.c ****   	__HAL_UNLOCK(hdma);
 620:Drivers/STM32F0xx_HAL_Driver/Src/stm32f0xx_hal_dma.c ****   	
 621:Drivers/STM32F0xx_HAL_Driver/Src/stm32f0xx_hal_dma.c ****   	if(hdma->XferCpltCallback != NULL)
 622:Drivers/STM32F0xx_HAL_Driver/Src/stm32f0xx_hal_dma.c ****   	{
 623:Drivers/STM32F0xx_HAL_Driver/Src/stm32f0xx_hal_dma.c ****   		/* Transfer complete callback */
 624:Drivers/STM32F0xx_HAL_Driver/Src/stm32f0xx_hal_dma.c ****   		hdma->XferCpltCallback(hdma);
 625:Drivers/STM32F0xx_HAL_Driver/Src/stm32f0xx_hal_dma.c ****   	}
 626:Drivers/STM32F0xx_HAL_Driver/Src/stm32f0xx_hal_dma.c ****   }
 627:Drivers/STM32F0xx_HAL_Driver/Src/stm32f0xx_hal_dma.c ****   
 628:Drivers/STM32F0xx_HAL_Driver/Src/stm32f0xx_hal_dma.c ****   /* Transfer Error Interrupt management ***************************************/
 629:Drivers/STM32F0xx_HAL_Driver/Src/stm32f0xx_hal_dma.c ****   else if (( RESET != (flag_it & (DMA_FLAG_TE1 << hdma->ChannelIndex))) && (RESET != (source_it & D
 630:Drivers/STM32F0xx_HAL_Driver/Src/stm32f0xx_hal_dma.c ****   {
 631:Drivers/STM32F0xx_HAL_Driver/Src/stm32f0xx_hal_dma.c ****   	/* When a DMA transfer error occurs */
 632:Drivers/STM32F0xx_HAL_Driver/Src/stm32f0xx_hal_dma.c ****     /* A hardware clear of its EN bits is performed */
 633:Drivers/STM32F0xx_HAL_Driver/Src/stm32f0xx_hal_dma.c ****     /* Then, disable all DMA interrupts */
 634:Drivers/STM32F0xx_HAL_Driver/Src/stm32f0xx_hal_dma.c ****     hdma->Instance->CCR &= ~(DMA_IT_TC | DMA_IT_HT | DMA_IT_TE);
 635:Drivers/STM32F0xx_HAL_Driver/Src/stm32f0xx_hal_dma.c ****     
ARM GAS  /tmp/ccjPiDbo.s 			page 14


 636:Drivers/STM32F0xx_HAL_Driver/Src/stm32f0xx_hal_dma.c ****     /* Clear all flags */
 637:Drivers/STM32F0xx_HAL_Driver/Src/stm32f0xx_hal_dma.c ****     hdma->DmaBaseAddress->IFCR = DMA_FLAG_GL1 << hdma->ChannelIndex;
 638:Drivers/STM32F0xx_HAL_Driver/Src/stm32f0xx_hal_dma.c ****     
 639:Drivers/STM32F0xx_HAL_Driver/Src/stm32f0xx_hal_dma.c ****     /* Update error code */
 640:Drivers/STM32F0xx_HAL_Driver/Src/stm32f0xx_hal_dma.c ****     hdma->ErrorCode = HAL_DMA_ERROR_TE;
 641:Drivers/STM32F0xx_HAL_Driver/Src/stm32f0xx_hal_dma.c ****     
 642:Drivers/STM32F0xx_HAL_Driver/Src/stm32f0xx_hal_dma.c ****     /* Change the DMA state */
 643:Drivers/STM32F0xx_HAL_Driver/Src/stm32f0xx_hal_dma.c ****     hdma->State = HAL_DMA_STATE_READY;    
 644:Drivers/STM32F0xx_HAL_Driver/Src/stm32f0xx_hal_dma.c ****     
 645:Drivers/STM32F0xx_HAL_Driver/Src/stm32f0xx_hal_dma.c ****     /* Process Unlocked */
 646:Drivers/STM32F0xx_HAL_Driver/Src/stm32f0xx_hal_dma.c ****     __HAL_UNLOCK(hdma); 
 647:Drivers/STM32F0xx_HAL_Driver/Src/stm32f0xx_hal_dma.c ****     
 648:Drivers/STM32F0xx_HAL_Driver/Src/stm32f0xx_hal_dma.c ****     if(hdma->XferErrorCallback != NULL)
 649:Drivers/STM32F0xx_HAL_Driver/Src/stm32f0xx_hal_dma.c ****     {
 650:Drivers/STM32F0xx_HAL_Driver/Src/stm32f0xx_hal_dma.c ****     	/* Transfer error callback */
 651:Drivers/STM32F0xx_HAL_Driver/Src/stm32f0xx_hal_dma.c ****     	hdma->XferErrorCallback(hdma);
 652:Drivers/STM32F0xx_HAL_Driver/Src/stm32f0xx_hal_dma.c ****     }
 653:Drivers/STM32F0xx_HAL_Driver/Src/stm32f0xx_hal_dma.c ****    }
 654:Drivers/STM32F0xx_HAL_Driver/Src/stm32f0xx_hal_dma.c **** }  
 655:Drivers/STM32F0xx_HAL_Driver/Src/stm32f0xx_hal_dma.c **** 
 656:Drivers/STM32F0xx_HAL_Driver/Src/stm32f0xx_hal_dma.c **** /**
 657:Drivers/STM32F0xx_HAL_Driver/Src/stm32f0xx_hal_dma.c ****   * @brief  Register callbacks
 658:Drivers/STM32F0xx_HAL_Driver/Src/stm32f0xx_hal_dma.c ****   * @param  hdma                 pointer to a DMA_HandleTypeDef structure that contains
 659:Drivers/STM32F0xx_HAL_Driver/Src/stm32f0xx_hal_dma.c ****   *                               the configuration information for the specified DMA Stream.
 660:Drivers/STM32F0xx_HAL_Driver/Src/stm32f0xx_hal_dma.c ****   * @param  CallbackID           User Callback identifer
 661:Drivers/STM32F0xx_HAL_Driver/Src/stm32f0xx_hal_dma.c ****   *                               a HAL_DMA_CallbackIDTypeDef ENUM as parameter.
 662:Drivers/STM32F0xx_HAL_Driver/Src/stm32f0xx_hal_dma.c ****   * @param  pCallback            pointer to private callback function which has pointer to 
 663:Drivers/STM32F0xx_HAL_Driver/Src/stm32f0xx_hal_dma.c ****   *                               a DMA_HandleTypeDef structure as parameter.
 664:Drivers/STM32F0xx_HAL_Driver/Src/stm32f0xx_hal_dma.c ****   * @retval HAL status
 665:Drivers/STM32F0xx_HAL_Driver/Src/stm32f0xx_hal_dma.c ****   */                          
 666:Drivers/STM32F0xx_HAL_Driver/Src/stm32f0xx_hal_dma.c **** HAL_StatusTypeDef HAL_DMA_RegisterCallback(DMA_HandleTypeDef *hdma, HAL_DMA_CallbackIDTypeDef Callb
 667:Drivers/STM32F0xx_HAL_Driver/Src/stm32f0xx_hal_dma.c **** {
 668:Drivers/STM32F0xx_HAL_Driver/Src/stm32f0xx_hal_dma.c ****   HAL_StatusTypeDef status = HAL_OK;
 669:Drivers/STM32F0xx_HAL_Driver/Src/stm32f0xx_hal_dma.c ****   
 670:Drivers/STM32F0xx_HAL_Driver/Src/stm32f0xx_hal_dma.c ****   /* Process locked */
 671:Drivers/STM32F0xx_HAL_Driver/Src/stm32f0xx_hal_dma.c ****   __HAL_LOCK(hdma);
 672:Drivers/STM32F0xx_HAL_Driver/Src/stm32f0xx_hal_dma.c ****   
 673:Drivers/STM32F0xx_HAL_Driver/Src/stm32f0xx_hal_dma.c ****   if(HAL_DMA_STATE_READY == hdma->State)
 674:Drivers/STM32F0xx_HAL_Driver/Src/stm32f0xx_hal_dma.c ****   {
 675:Drivers/STM32F0xx_HAL_Driver/Src/stm32f0xx_hal_dma.c ****     switch (CallbackID)
 676:Drivers/STM32F0xx_HAL_Driver/Src/stm32f0xx_hal_dma.c ****     {
 677:Drivers/STM32F0xx_HAL_Driver/Src/stm32f0xx_hal_dma.c ****      case  HAL_DMA_XFER_CPLT_CB_ID:
 678:Drivers/STM32F0xx_HAL_Driver/Src/stm32f0xx_hal_dma.c ****            hdma->XferCpltCallback = pCallback;
 679:Drivers/STM32F0xx_HAL_Driver/Src/stm32f0xx_hal_dma.c ****            break;
 680:Drivers/STM32F0xx_HAL_Driver/Src/stm32f0xx_hal_dma.c ****        
 681:Drivers/STM32F0xx_HAL_Driver/Src/stm32f0xx_hal_dma.c ****      case  HAL_DMA_XFER_HALFCPLT_CB_ID:
 682:Drivers/STM32F0xx_HAL_Driver/Src/stm32f0xx_hal_dma.c ****            hdma->XferHalfCpltCallback = pCallback;
 683:Drivers/STM32F0xx_HAL_Driver/Src/stm32f0xx_hal_dma.c ****            break;         
 684:Drivers/STM32F0xx_HAL_Driver/Src/stm32f0xx_hal_dma.c **** 
 685:Drivers/STM32F0xx_HAL_Driver/Src/stm32f0xx_hal_dma.c ****      case  HAL_DMA_XFER_ERROR_CB_ID:
 686:Drivers/STM32F0xx_HAL_Driver/Src/stm32f0xx_hal_dma.c ****            hdma->XferErrorCallback = pCallback;
 687:Drivers/STM32F0xx_HAL_Driver/Src/stm32f0xx_hal_dma.c ****            break;         
 688:Drivers/STM32F0xx_HAL_Driver/Src/stm32f0xx_hal_dma.c ****            
 689:Drivers/STM32F0xx_HAL_Driver/Src/stm32f0xx_hal_dma.c ****      case  HAL_DMA_XFER_ABORT_CB_ID:
 690:Drivers/STM32F0xx_HAL_Driver/Src/stm32f0xx_hal_dma.c ****            hdma->XferAbortCallback = pCallback;
 691:Drivers/STM32F0xx_HAL_Driver/Src/stm32f0xx_hal_dma.c ****            break; 
 692:Drivers/STM32F0xx_HAL_Driver/Src/stm32f0xx_hal_dma.c ****            
ARM GAS  /tmp/ccjPiDbo.s 			page 15


 693:Drivers/STM32F0xx_HAL_Driver/Src/stm32f0xx_hal_dma.c ****      default:
 694:Drivers/STM32F0xx_HAL_Driver/Src/stm32f0xx_hal_dma.c ****            status = HAL_ERROR;
 695:Drivers/STM32F0xx_HAL_Driver/Src/stm32f0xx_hal_dma.c ****            break;                                                            
 696:Drivers/STM32F0xx_HAL_Driver/Src/stm32f0xx_hal_dma.c ****     }
 697:Drivers/STM32F0xx_HAL_Driver/Src/stm32f0xx_hal_dma.c ****   }
 698:Drivers/STM32F0xx_HAL_Driver/Src/stm32f0xx_hal_dma.c ****   else
 699:Drivers/STM32F0xx_HAL_Driver/Src/stm32f0xx_hal_dma.c ****   {
 700:Drivers/STM32F0xx_HAL_Driver/Src/stm32f0xx_hal_dma.c ****     status = HAL_ERROR;
 701:Drivers/STM32F0xx_HAL_Driver/Src/stm32f0xx_hal_dma.c ****   } 
 702:Drivers/STM32F0xx_HAL_Driver/Src/stm32f0xx_hal_dma.c ****   
 703:Drivers/STM32F0xx_HAL_Driver/Src/stm32f0xx_hal_dma.c ****   /* Release Lock */
 704:Drivers/STM32F0xx_HAL_Driver/Src/stm32f0xx_hal_dma.c ****   __HAL_UNLOCK(hdma);
 705:Drivers/STM32F0xx_HAL_Driver/Src/stm32f0xx_hal_dma.c ****   
 706:Drivers/STM32F0xx_HAL_Driver/Src/stm32f0xx_hal_dma.c ****   return status;
 707:Drivers/STM32F0xx_HAL_Driver/Src/stm32f0xx_hal_dma.c **** }
 708:Drivers/STM32F0xx_HAL_Driver/Src/stm32f0xx_hal_dma.c **** 
 709:Drivers/STM32F0xx_HAL_Driver/Src/stm32f0xx_hal_dma.c **** /**
 710:Drivers/STM32F0xx_HAL_Driver/Src/stm32f0xx_hal_dma.c ****   * @brief  UnRegister callbacks
 711:Drivers/STM32F0xx_HAL_Driver/Src/stm32f0xx_hal_dma.c ****   * @param  hdma                 pointer to a DMA_HandleTypeDef structure that contains
 712:Drivers/STM32F0xx_HAL_Driver/Src/stm32f0xx_hal_dma.c ****   *                               the configuration information for the specified DMA Stream.
 713:Drivers/STM32F0xx_HAL_Driver/Src/stm32f0xx_hal_dma.c ****   * @param  CallbackID           User Callback identifer
 714:Drivers/STM32F0xx_HAL_Driver/Src/stm32f0xx_hal_dma.c ****   *                               a HAL_DMA_CallbackIDTypeDef ENUM as parameter.
 715:Drivers/STM32F0xx_HAL_Driver/Src/stm32f0xx_hal_dma.c ****   * @retval HAL status
 716:Drivers/STM32F0xx_HAL_Driver/Src/stm32f0xx_hal_dma.c ****   */              
 717:Drivers/STM32F0xx_HAL_Driver/Src/stm32f0xx_hal_dma.c **** HAL_StatusTypeDef HAL_DMA_UnRegisterCallback(DMA_HandleTypeDef *hdma, HAL_DMA_CallbackIDTypeDef Cal
 718:Drivers/STM32F0xx_HAL_Driver/Src/stm32f0xx_hal_dma.c **** {
 719:Drivers/STM32F0xx_HAL_Driver/Src/stm32f0xx_hal_dma.c ****   HAL_StatusTypeDef status = HAL_OK;
 720:Drivers/STM32F0xx_HAL_Driver/Src/stm32f0xx_hal_dma.c **** 
 721:Drivers/STM32F0xx_HAL_Driver/Src/stm32f0xx_hal_dma.c ****     /* Process locked */
 722:Drivers/STM32F0xx_HAL_Driver/Src/stm32f0xx_hal_dma.c ****   __HAL_LOCK(hdma);
 723:Drivers/STM32F0xx_HAL_Driver/Src/stm32f0xx_hal_dma.c ****   
 724:Drivers/STM32F0xx_HAL_Driver/Src/stm32f0xx_hal_dma.c ****   if(HAL_DMA_STATE_READY == hdma->State)
 725:Drivers/STM32F0xx_HAL_Driver/Src/stm32f0xx_hal_dma.c ****   {
 726:Drivers/STM32F0xx_HAL_Driver/Src/stm32f0xx_hal_dma.c ****     switch (CallbackID)
 727:Drivers/STM32F0xx_HAL_Driver/Src/stm32f0xx_hal_dma.c ****     {
 728:Drivers/STM32F0xx_HAL_Driver/Src/stm32f0xx_hal_dma.c ****      case  HAL_DMA_XFER_CPLT_CB_ID:
 729:Drivers/STM32F0xx_HAL_Driver/Src/stm32f0xx_hal_dma.c ****            hdma->XferCpltCallback = NULL;
 730:Drivers/STM32F0xx_HAL_Driver/Src/stm32f0xx_hal_dma.c ****            break;
 731:Drivers/STM32F0xx_HAL_Driver/Src/stm32f0xx_hal_dma.c ****        
 732:Drivers/STM32F0xx_HAL_Driver/Src/stm32f0xx_hal_dma.c ****      case  HAL_DMA_XFER_HALFCPLT_CB_ID:
 733:Drivers/STM32F0xx_HAL_Driver/Src/stm32f0xx_hal_dma.c ****            hdma->XferHalfCpltCallback = NULL;
 734:Drivers/STM32F0xx_HAL_Driver/Src/stm32f0xx_hal_dma.c ****            break;         
 735:Drivers/STM32F0xx_HAL_Driver/Src/stm32f0xx_hal_dma.c **** 
 736:Drivers/STM32F0xx_HAL_Driver/Src/stm32f0xx_hal_dma.c ****      case  HAL_DMA_XFER_ERROR_CB_ID:
 737:Drivers/STM32F0xx_HAL_Driver/Src/stm32f0xx_hal_dma.c ****            hdma->XferErrorCallback = NULL;
 738:Drivers/STM32F0xx_HAL_Driver/Src/stm32f0xx_hal_dma.c ****            break;         
 739:Drivers/STM32F0xx_HAL_Driver/Src/stm32f0xx_hal_dma.c ****            
 740:Drivers/STM32F0xx_HAL_Driver/Src/stm32f0xx_hal_dma.c ****      case  HAL_DMA_XFER_ABORT_CB_ID:
 741:Drivers/STM32F0xx_HAL_Driver/Src/stm32f0xx_hal_dma.c ****            hdma->XferAbortCallback = NULL;
 742:Drivers/STM32F0xx_HAL_Driver/Src/stm32f0xx_hal_dma.c ****            break; 
 743:Drivers/STM32F0xx_HAL_Driver/Src/stm32f0xx_hal_dma.c ****      
 744:Drivers/STM32F0xx_HAL_Driver/Src/stm32f0xx_hal_dma.c ****     case   HAL_DMA_XFER_ALL_CB_ID:
 745:Drivers/STM32F0xx_HAL_Driver/Src/stm32f0xx_hal_dma.c ****            hdma->XferCpltCallback = NULL;
 746:Drivers/STM32F0xx_HAL_Driver/Src/stm32f0xx_hal_dma.c ****            hdma->XferHalfCpltCallback = NULL;
 747:Drivers/STM32F0xx_HAL_Driver/Src/stm32f0xx_hal_dma.c ****            hdma->XferErrorCallback = NULL;
 748:Drivers/STM32F0xx_HAL_Driver/Src/stm32f0xx_hal_dma.c ****            hdma->XferAbortCallback = NULL;
 749:Drivers/STM32F0xx_HAL_Driver/Src/stm32f0xx_hal_dma.c ****            break; 
ARM GAS  /tmp/ccjPiDbo.s 			page 16


 750:Drivers/STM32F0xx_HAL_Driver/Src/stm32f0xx_hal_dma.c ****      
 751:Drivers/STM32F0xx_HAL_Driver/Src/stm32f0xx_hal_dma.c ****     default:
 752:Drivers/STM32F0xx_HAL_Driver/Src/stm32f0xx_hal_dma.c ****            status = HAL_ERROR;
 753:Drivers/STM32F0xx_HAL_Driver/Src/stm32f0xx_hal_dma.c ****            break;                                                            
 754:Drivers/STM32F0xx_HAL_Driver/Src/stm32f0xx_hal_dma.c ****     }
 755:Drivers/STM32F0xx_HAL_Driver/Src/stm32f0xx_hal_dma.c ****   }
 756:Drivers/STM32F0xx_HAL_Driver/Src/stm32f0xx_hal_dma.c ****   else
 757:Drivers/STM32F0xx_HAL_Driver/Src/stm32f0xx_hal_dma.c ****   {
 758:Drivers/STM32F0xx_HAL_Driver/Src/stm32f0xx_hal_dma.c ****     status = HAL_ERROR;
 759:Drivers/STM32F0xx_HAL_Driver/Src/stm32f0xx_hal_dma.c ****   } 
 760:Drivers/STM32F0xx_HAL_Driver/Src/stm32f0xx_hal_dma.c ****   
 761:Drivers/STM32F0xx_HAL_Driver/Src/stm32f0xx_hal_dma.c ****   /* Release Lock */
 762:Drivers/STM32F0xx_HAL_Driver/Src/stm32f0xx_hal_dma.c ****   __HAL_UNLOCK(hdma);
 763:Drivers/STM32F0xx_HAL_Driver/Src/stm32f0xx_hal_dma.c ****   
 764:Drivers/STM32F0xx_HAL_Driver/Src/stm32f0xx_hal_dma.c ****   return status;
 765:Drivers/STM32F0xx_HAL_Driver/Src/stm32f0xx_hal_dma.c **** }
 766:Drivers/STM32F0xx_HAL_Driver/Src/stm32f0xx_hal_dma.c **** 
 767:Drivers/STM32F0xx_HAL_Driver/Src/stm32f0xx_hal_dma.c **** /**
 768:Drivers/STM32F0xx_HAL_Driver/Src/stm32f0xx_hal_dma.c ****   * @}
 769:Drivers/STM32F0xx_HAL_Driver/Src/stm32f0xx_hal_dma.c ****   */
 770:Drivers/STM32F0xx_HAL_Driver/Src/stm32f0xx_hal_dma.c **** 
 771:Drivers/STM32F0xx_HAL_Driver/Src/stm32f0xx_hal_dma.c **** /** @defgroup DMA_Exported_Functions_Group3 Peripheral State functions
 772:Drivers/STM32F0xx_HAL_Driver/Src/stm32f0xx_hal_dma.c ****  *  @brief    Peripheral State functions 
 773:Drivers/STM32F0xx_HAL_Driver/Src/stm32f0xx_hal_dma.c ****  *
 774:Drivers/STM32F0xx_HAL_Driver/Src/stm32f0xx_hal_dma.c **** @verbatim   
 775:Drivers/STM32F0xx_HAL_Driver/Src/stm32f0xx_hal_dma.c ****  ===============================================================================
 776:Drivers/STM32F0xx_HAL_Driver/Src/stm32f0xx_hal_dma.c ****                     ##### State and Errors functions #####
 777:Drivers/STM32F0xx_HAL_Driver/Src/stm32f0xx_hal_dma.c ****  ===============================================================================  
 778:Drivers/STM32F0xx_HAL_Driver/Src/stm32f0xx_hal_dma.c ****     [..]
 779:Drivers/STM32F0xx_HAL_Driver/Src/stm32f0xx_hal_dma.c ****     This subsection provides functions allowing to
 780:Drivers/STM32F0xx_HAL_Driver/Src/stm32f0xx_hal_dma.c ****       (+) Check the DMA state
 781:Drivers/STM32F0xx_HAL_Driver/Src/stm32f0xx_hal_dma.c ****       (+) Get error code
 782:Drivers/STM32F0xx_HAL_Driver/Src/stm32f0xx_hal_dma.c **** 
 783:Drivers/STM32F0xx_HAL_Driver/Src/stm32f0xx_hal_dma.c **** @endverbatim
 784:Drivers/STM32F0xx_HAL_Driver/Src/stm32f0xx_hal_dma.c ****   * @{
 785:Drivers/STM32F0xx_HAL_Driver/Src/stm32f0xx_hal_dma.c ****   */  
 786:Drivers/STM32F0xx_HAL_Driver/Src/stm32f0xx_hal_dma.c **** 
 787:Drivers/STM32F0xx_HAL_Driver/Src/stm32f0xx_hal_dma.c **** /**
 788:Drivers/STM32F0xx_HAL_Driver/Src/stm32f0xx_hal_dma.c ****   * @brief  Returns the DMA state.
 789:Drivers/STM32F0xx_HAL_Driver/Src/stm32f0xx_hal_dma.c ****   * @param  hdma pointer to a DMA_HandleTypeDef structure that contains
 790:Drivers/STM32F0xx_HAL_Driver/Src/stm32f0xx_hal_dma.c ****   *               the configuration information for the specified DMA Channel.  
 791:Drivers/STM32F0xx_HAL_Driver/Src/stm32f0xx_hal_dma.c ****   * @retval HAL state
 792:Drivers/STM32F0xx_HAL_Driver/Src/stm32f0xx_hal_dma.c ****   */
 793:Drivers/STM32F0xx_HAL_Driver/Src/stm32f0xx_hal_dma.c **** HAL_DMA_StateTypeDef HAL_DMA_GetState(DMA_HandleTypeDef *hdma)
 794:Drivers/STM32F0xx_HAL_Driver/Src/stm32f0xx_hal_dma.c **** {
 795:Drivers/STM32F0xx_HAL_Driver/Src/stm32f0xx_hal_dma.c ****   return hdma->State;
 796:Drivers/STM32F0xx_HAL_Driver/Src/stm32f0xx_hal_dma.c **** }
 797:Drivers/STM32F0xx_HAL_Driver/Src/stm32f0xx_hal_dma.c **** 
 798:Drivers/STM32F0xx_HAL_Driver/Src/stm32f0xx_hal_dma.c **** /**
 799:Drivers/STM32F0xx_HAL_Driver/Src/stm32f0xx_hal_dma.c ****   * @brief  Return the DMA error code
 800:Drivers/STM32F0xx_HAL_Driver/Src/stm32f0xx_hal_dma.c ****   * @param  hdma pointer to a DMA_HandleTypeDef structure that contains
 801:Drivers/STM32F0xx_HAL_Driver/Src/stm32f0xx_hal_dma.c ****   *              the configuration information for the specified DMA Channel.
 802:Drivers/STM32F0xx_HAL_Driver/Src/stm32f0xx_hal_dma.c ****   * @retval DMA Error Code
 803:Drivers/STM32F0xx_HAL_Driver/Src/stm32f0xx_hal_dma.c ****   */
 804:Drivers/STM32F0xx_HAL_Driver/Src/stm32f0xx_hal_dma.c **** uint32_t HAL_DMA_GetError(DMA_HandleTypeDef *hdma)
 805:Drivers/STM32F0xx_HAL_Driver/Src/stm32f0xx_hal_dma.c **** {
 806:Drivers/STM32F0xx_HAL_Driver/Src/stm32f0xx_hal_dma.c ****   return hdma->ErrorCode;
ARM GAS  /tmp/ccjPiDbo.s 			page 17


 807:Drivers/STM32F0xx_HAL_Driver/Src/stm32f0xx_hal_dma.c **** }
 808:Drivers/STM32F0xx_HAL_Driver/Src/stm32f0xx_hal_dma.c **** 
 809:Drivers/STM32F0xx_HAL_Driver/Src/stm32f0xx_hal_dma.c **** /**
 810:Drivers/STM32F0xx_HAL_Driver/Src/stm32f0xx_hal_dma.c ****   * @}
 811:Drivers/STM32F0xx_HAL_Driver/Src/stm32f0xx_hal_dma.c ****   */
 812:Drivers/STM32F0xx_HAL_Driver/Src/stm32f0xx_hal_dma.c **** 
 813:Drivers/STM32F0xx_HAL_Driver/Src/stm32f0xx_hal_dma.c **** /**
 814:Drivers/STM32F0xx_HAL_Driver/Src/stm32f0xx_hal_dma.c ****   * @}
 815:Drivers/STM32F0xx_HAL_Driver/Src/stm32f0xx_hal_dma.c ****   */
 816:Drivers/STM32F0xx_HAL_Driver/Src/stm32f0xx_hal_dma.c **** 
 817:Drivers/STM32F0xx_HAL_Driver/Src/stm32f0xx_hal_dma.c **** /** @addtogroup DMA_Private_Functions
 818:Drivers/STM32F0xx_HAL_Driver/Src/stm32f0xx_hal_dma.c ****   * @{
 819:Drivers/STM32F0xx_HAL_Driver/Src/stm32f0xx_hal_dma.c ****   */
 820:Drivers/STM32F0xx_HAL_Driver/Src/stm32f0xx_hal_dma.c **** 
 821:Drivers/STM32F0xx_HAL_Driver/Src/stm32f0xx_hal_dma.c **** /**
 822:Drivers/STM32F0xx_HAL_Driver/Src/stm32f0xx_hal_dma.c ****   * @brief  Set the DMA Transfer parameters.
 823:Drivers/STM32F0xx_HAL_Driver/Src/stm32f0xx_hal_dma.c ****   * @param  hdma       pointer to a DMA_HandleTypeDef structure that contains
 824:Drivers/STM32F0xx_HAL_Driver/Src/stm32f0xx_hal_dma.c ****   *                     the configuration information for the specified DMA Channel.  
 825:Drivers/STM32F0xx_HAL_Driver/Src/stm32f0xx_hal_dma.c ****   * @param  SrcAddress The source memory Buffer address
 826:Drivers/STM32F0xx_HAL_Driver/Src/stm32f0xx_hal_dma.c ****   * @param  DstAddress The destination memory Buffer address
 827:Drivers/STM32F0xx_HAL_Driver/Src/stm32f0xx_hal_dma.c ****   * @param  DataLength The length of data to be transferred from source to destination
 828:Drivers/STM32F0xx_HAL_Driver/Src/stm32f0xx_hal_dma.c ****   * @retval HAL status
 829:Drivers/STM32F0xx_HAL_Driver/Src/stm32f0xx_hal_dma.c ****   */
 830:Drivers/STM32F0xx_HAL_Driver/Src/stm32f0xx_hal_dma.c **** static void DMA_SetConfig(DMA_HandleTypeDef *hdma, uint32_t SrcAddress, uint32_t DstAddress, uint32
 831:Drivers/STM32F0xx_HAL_Driver/Src/stm32f0xx_hal_dma.c **** {
 832:Drivers/STM32F0xx_HAL_Driver/Src/stm32f0xx_hal_dma.c **** 	/* Clear all flags */
 833:Drivers/STM32F0xx_HAL_Driver/Src/stm32f0xx_hal_dma.c ****   hdma->DmaBaseAddress->IFCR  = (DMA_FLAG_GL1 << hdma->ChannelIndex);
 834:Drivers/STM32F0xx_HAL_Driver/Src/stm32f0xx_hal_dma.c ****   
 835:Drivers/STM32F0xx_HAL_Driver/Src/stm32f0xx_hal_dma.c ****   /* Configure DMA Channel data length */
 836:Drivers/STM32F0xx_HAL_Driver/Src/stm32f0xx_hal_dma.c ****   hdma->Instance->CNDTR = DataLength;
 837:Drivers/STM32F0xx_HAL_Driver/Src/stm32f0xx_hal_dma.c ****   
 838:Drivers/STM32F0xx_HAL_Driver/Src/stm32f0xx_hal_dma.c ****   /* Memory to Peripheral */
 839:Drivers/STM32F0xx_HAL_Driver/Src/stm32f0xx_hal_dma.c ****   if((hdma->Init.Direction) == DMA_MEMORY_TO_PERIPH)
 840:Drivers/STM32F0xx_HAL_Driver/Src/stm32f0xx_hal_dma.c ****   {   
 841:Drivers/STM32F0xx_HAL_Driver/Src/stm32f0xx_hal_dma.c ****     /* Configure DMA Channel destination address */
 842:Drivers/STM32F0xx_HAL_Driver/Src/stm32f0xx_hal_dma.c ****     hdma->Instance->CPAR = DstAddress;
 843:Drivers/STM32F0xx_HAL_Driver/Src/stm32f0xx_hal_dma.c ****     
 844:Drivers/STM32F0xx_HAL_Driver/Src/stm32f0xx_hal_dma.c ****     /* Configure DMA Channel source address */
 845:Drivers/STM32F0xx_HAL_Driver/Src/stm32f0xx_hal_dma.c ****     hdma->Instance->CMAR = SrcAddress;
 846:Drivers/STM32F0xx_HAL_Driver/Src/stm32f0xx_hal_dma.c ****   }
 847:Drivers/STM32F0xx_HAL_Driver/Src/stm32f0xx_hal_dma.c ****   /* Peripheral to Memory */
 848:Drivers/STM32F0xx_HAL_Driver/Src/stm32f0xx_hal_dma.c ****   else
 849:Drivers/STM32F0xx_HAL_Driver/Src/stm32f0xx_hal_dma.c ****   {
 850:Drivers/STM32F0xx_HAL_Driver/Src/stm32f0xx_hal_dma.c ****     /* Configure DMA Channel source address */
 851:Drivers/STM32F0xx_HAL_Driver/Src/stm32f0xx_hal_dma.c ****     hdma->Instance->CPAR = SrcAddress;
 852:Drivers/STM32F0xx_HAL_Driver/Src/stm32f0xx_hal_dma.c ****     
 853:Drivers/STM32F0xx_HAL_Driver/Src/stm32f0xx_hal_dma.c ****     /* Configure DMA Channel destination address */
 854:Drivers/STM32F0xx_HAL_Driver/Src/stm32f0xx_hal_dma.c ****     hdma->Instance->CMAR = DstAddress;
 855:Drivers/STM32F0xx_HAL_Driver/Src/stm32f0xx_hal_dma.c ****   }
 856:Drivers/STM32F0xx_HAL_Driver/Src/stm32f0xx_hal_dma.c **** }
 857:Drivers/STM32F0xx_HAL_Driver/Src/stm32f0xx_hal_dma.c **** 
 858:Drivers/STM32F0xx_HAL_Driver/Src/stm32f0xx_hal_dma.c **** /**
 859:Drivers/STM32F0xx_HAL_Driver/Src/stm32f0xx_hal_dma.c ****   * @brief  set the DMA base address and channel index depending on DMA instance
 860:Drivers/STM32F0xx_HAL_Driver/Src/stm32f0xx_hal_dma.c ****   * @param  hdma       pointer to a DMA_HandleTypeDef structure that contains
 861:Drivers/STM32F0xx_HAL_Driver/Src/stm32f0xx_hal_dma.c ****   *                     the configuration information for the specified DMA Stream. 
 862:Drivers/STM32F0xx_HAL_Driver/Src/stm32f0xx_hal_dma.c ****   * @retval None
 863:Drivers/STM32F0xx_HAL_Driver/Src/stm32f0xx_hal_dma.c ****   */
ARM GAS  /tmp/ccjPiDbo.s 			page 18


 864:Drivers/STM32F0xx_HAL_Driver/Src/stm32f0xx_hal_dma.c **** static void DMA_CalcBaseAndBitshift(DMA_HandleTypeDef *hdma)
 103              		.loc 1 864 13 view .LVU34
 104              	.LBB11:
 865:Drivers/STM32F0xx_HAL_Driver/Src/stm32f0xx_hal_dma.c **** {
 866:Drivers/STM32F0xx_HAL_Driver/Src/stm32f0xx_hal_dma.c **** #if defined (DMA2)
 867:Drivers/STM32F0xx_HAL_Driver/Src/stm32f0xx_hal_dma.c ****   /* calculation of the channel index */
 868:Drivers/STM32F0xx_HAL_Driver/Src/stm32f0xx_hal_dma.c ****   if ((uint32_t)(hdma->Instance) < (uint32_t)(DMA2_Channel1))
 105              		.loc 1 868 3 view .LVU35
 106              		.loc 1 868 6 is_stmt 0 view .LVU36
 107 0032 134B     		ldr	r3, .L8+4
 108              	.LVL6:
 109              		.loc 1 868 6 view .LVU37
 110 0034 9842     		cmp	r0, r3
 111 0036 16D9     		bls	.L7
 869:Drivers/STM32F0xx_HAL_Driver/Src/stm32f0xx_hal_dma.c ****   {
 870:Drivers/STM32F0xx_HAL_Driver/Src/stm32f0xx_hal_dma.c ****     /* DMA1 */
 871:Drivers/STM32F0xx_HAL_Driver/Src/stm32f0xx_hal_dma.c ****     hdma->ChannelIndex = (((uint32_t)hdma->Instance - (uint32_t)DMA1_Channel1) / ((uint32_t)DMA1_Ch
 872:Drivers/STM32F0xx_HAL_Driver/Src/stm32f0xx_hal_dma.c ****     hdma->DmaBaseAddress = DMA1;
 873:Drivers/STM32F0xx_HAL_Driver/Src/stm32f0xx_hal_dma.c ****   }
 874:Drivers/STM32F0xx_HAL_Driver/Src/stm32f0xx_hal_dma.c ****   else 
 875:Drivers/STM32F0xx_HAL_Driver/Src/stm32f0xx_hal_dma.c ****   {
 876:Drivers/STM32F0xx_HAL_Driver/Src/stm32f0xx_hal_dma.c ****     /* DMA2 */
 877:Drivers/STM32F0xx_HAL_Driver/Src/stm32f0xx_hal_dma.c ****     hdma->ChannelIndex = (((uint32_t)hdma->Instance - (uint32_t)DMA2_Channel1) / ((uint32_t)DMA2_Ch
 112              		.loc 1 877 5 is_stmt 1 view .LVU38
 113              		.loc 1 877 53 is_stmt 0 view .LVU39
 114 0038 124B     		ldr	r3, .L8+8
 115              		.loc 1 877 80 view .LVU40
 116 003a 1421     		movs	r1, #20
 117              		.loc 1 877 53 view .LVU41
 118 003c 9C46     		mov	ip, r3
 119 003e 6044     		add	r0, r0, ip
 120              	.LVL7:
 121              		.loc 1 877 80 view .LVU42
 122 0040 FFF7FEFF 		bl	__aeabi_uidiv
 123              	.LVL8:
 878:Drivers/STM32F0xx_HAL_Driver/Src/stm32f0xx_hal_dma.c ****     hdma->DmaBaseAddress = DMA2;
 124              		.loc 1 878 26 view .LVU43
 125 0044 104B     		ldr	r3, .L8+12
 877:Drivers/STM32F0xx_HAL_Driver/Src/stm32f0xx_hal_dma.c ****     hdma->DmaBaseAddress = DMA2;
 126              		.loc 1 877 135 view .LVU44
 127 0046 8000     		lsls	r0, r0, #2
 128              		.loc 1 878 5 is_stmt 1 view .LVU45
 129              	.L4:
 130 0048 E363     		str	r3, [r4, #60]
 131              	.LBE11:
 132              	.LBE10:
 208:Drivers/STM32F0xx_HAL_Driver/Src/stm32f0xx_hal_dma.c ****   
 133              		.loc 1 208 15 is_stmt 0 view .LVU46
 134 004a 2122     		movs	r2, #33
 199:Drivers/STM32F0xx_HAL_Driver/Src/stm32f0xx_hal_dma.c ****   hdma->XferHalfCpltCallback = NULL;
 135              		.loc 1 199 26 view .LVU47
 136 004c 0023     		movs	r3, #0
 208:Drivers/STM32F0xx_HAL_Driver/Src/stm32f0xx_hal_dma.c ****   
 137              		.loc 1 208 15 view .LVU48
 138 004e 0121     		movs	r1, #1
 139 0050 2064     		str	r0, [r4, #64]
 140              	.LVL9:
ARM GAS  /tmp/ccjPiDbo.s 			page 19


 199:Drivers/STM32F0xx_HAL_Driver/Src/stm32f0xx_hal_dma.c ****   hdma->XferHalfCpltCallback = NULL;
 141              		.loc 1 199 3 is_stmt 1 view .LVU49
 213:Drivers/STM32F0xx_HAL_Driver/Src/stm32f0xx_hal_dma.c **** }  
 142              		.loc 1 213 10 is_stmt 0 view .LVU50
 143 0052 0020     		movs	r0, #0
 199:Drivers/STM32F0xx_HAL_Driver/Src/stm32f0xx_hal_dma.c ****   hdma->XferHalfCpltCallback = NULL;
 144              		.loc 1 199 26 view .LVU51
 145 0054 A362     		str	r3, [r4, #40]
 200:Drivers/STM32F0xx_HAL_Driver/Src/stm32f0xx_hal_dma.c ****   hdma->XferErrorCallback = NULL;
 146              		.loc 1 200 3 is_stmt 1 view .LVU52
 200:Drivers/STM32F0xx_HAL_Driver/Src/stm32f0xx_hal_dma.c ****   hdma->XferErrorCallback = NULL;
 147              		.loc 1 200 30 is_stmt 0 view .LVU53
 148 0056 E362     		str	r3, [r4, #44]
 201:Drivers/STM32F0xx_HAL_Driver/Src/stm32f0xx_hal_dma.c ****   hdma->XferAbortCallback = NULL;
 149              		.loc 1 201 3 is_stmt 1 view .LVU54
 201:Drivers/STM32F0xx_HAL_Driver/Src/stm32f0xx_hal_dma.c ****   hdma->XferAbortCallback = NULL;
 150              		.loc 1 201 27 is_stmt 0 view .LVU55
 151 0058 2363     		str	r3, [r4, #48]
 202:Drivers/STM32F0xx_HAL_Driver/Src/stm32f0xx_hal_dma.c ****   
 152              		.loc 1 202 3 is_stmt 1 view .LVU56
 202:Drivers/STM32F0xx_HAL_Driver/Src/stm32f0xx_hal_dma.c ****   
 153              		.loc 1 202 27 is_stmt 0 view .LVU57
 154 005a 6363     		str	r3, [r4, #52]
 205:Drivers/STM32F0xx_HAL_Driver/Src/stm32f0xx_hal_dma.c **** 
 155              		.loc 1 205 3 is_stmt 1 view .LVU58
 205:Drivers/STM32F0xx_HAL_Driver/Src/stm32f0xx_hal_dma.c **** 
 156              		.loc 1 205 19 is_stmt 0 view .LVU59
 157 005c A363     		str	r3, [r4, #56]
 208:Drivers/STM32F0xx_HAL_Driver/Src/stm32f0xx_hal_dma.c ****   
 158              		.loc 1 208 3 is_stmt 1 view .LVU60
 208:Drivers/STM32F0xx_HAL_Driver/Src/stm32f0xx_hal_dma.c ****   
 159              		.loc 1 208 15 is_stmt 0 view .LVU61
 160 005e A154     		strb	r1, [r4, r2]
 211:Drivers/STM32F0xx_HAL_Driver/Src/stm32f0xx_hal_dma.c ****   
 161              		.loc 1 211 3 is_stmt 1 view .LVU62
 211:Drivers/STM32F0xx_HAL_Driver/Src/stm32f0xx_hal_dma.c ****   
 162              		.loc 1 211 14 is_stmt 0 view .LVU63
 163 0060 013A     		subs	r2, r2, #1
 164 0062 A354     		strb	r3, [r4, r2]
 213:Drivers/STM32F0xx_HAL_Driver/Src/stm32f0xx_hal_dma.c **** }  
 165              		.loc 1 213 3 is_stmt 1 view .LVU64
 166              	.L2:
 214:Drivers/STM32F0xx_HAL_Driver/Src/stm32f0xx_hal_dma.c ****   
 167              		.loc 1 214 1 is_stmt 0 view .LVU65
 168              		@ sp needed
 169              	.LVL10:
 214:Drivers/STM32F0xx_HAL_Driver/Src/stm32f0xx_hal_dma.c ****   
 170              		.loc 1 214 1 view .LVU66
 171 0064 10BD     		pop	{r4, pc}
 172              	.LVL11:
 173              	.L7:
 174              	.LBB13:
 175              	.LBB12:
 871:Drivers/STM32F0xx_HAL_Driver/Src/stm32f0xx_hal_dma.c ****     hdma->DmaBaseAddress = DMA1;
 176              		.loc 1 871 5 is_stmt 1 view .LVU67
 871:Drivers/STM32F0xx_HAL_Driver/Src/stm32f0xx_hal_dma.c ****     hdma->DmaBaseAddress = DMA1;
 177              		.loc 1 871 53 is_stmt 0 view .LVU68
ARM GAS  /tmp/ccjPiDbo.s 			page 20


 178 0066 094B     		ldr	r3, .L8+16
 871:Drivers/STM32F0xx_HAL_Driver/Src/stm32f0xx_hal_dma.c ****     hdma->DmaBaseAddress = DMA1;
 179              		.loc 1 871 80 view .LVU69
 180 0068 1421     		movs	r1, #20
 871:Drivers/STM32F0xx_HAL_Driver/Src/stm32f0xx_hal_dma.c ****     hdma->DmaBaseAddress = DMA1;
 181              		.loc 1 871 53 view .LVU70
 182 006a 9C46     		mov	ip, r3
 183 006c 6044     		add	r0, r0, ip
 184              	.LVL12:
 871:Drivers/STM32F0xx_HAL_Driver/Src/stm32f0xx_hal_dma.c ****     hdma->DmaBaseAddress = DMA1;
 185              		.loc 1 871 80 view .LVU71
 186 006e FFF7FEFF 		bl	__aeabi_uidiv
 187              	.LVL13:
 872:Drivers/STM32F0xx_HAL_Driver/Src/stm32f0xx_hal_dma.c ****   }
 188              		.loc 1 872 26 view .LVU72
 189 0072 074B     		ldr	r3, .L8+20
 871:Drivers/STM32F0xx_HAL_Driver/Src/stm32f0xx_hal_dma.c ****     hdma->DmaBaseAddress = DMA1;
 190              		.loc 1 871 135 view .LVU73
 191 0074 8000     		lsls	r0, r0, #2
 872:Drivers/STM32F0xx_HAL_Driver/Src/stm32f0xx_hal_dma.c ****   }
 192              		.loc 1 872 5 is_stmt 1 view .LVU74
 193 0076 E7E7     		b	.L4
 194              	.LVL14:
 195              	.L5:
 872:Drivers/STM32F0xx_HAL_Driver/Src/stm32f0xx_hal_dma.c ****   }
 196              		.loc 1 872 5 is_stmt 0 view .LVU75
 197              	.LBE12:
 198              	.LBE13:
 161:Drivers/STM32F0xx_HAL_Driver/Src/stm32f0xx_hal_dma.c ****   }
 199              		.loc 1 161 12 view .LVU76
 200 0078 0120     		movs	r0, #1
 201              	.LVL15:
 161:Drivers/STM32F0xx_HAL_Driver/Src/stm32f0xx_hal_dma.c ****   }
 202              		.loc 1 161 12 view .LVU77
 203 007a F3E7     		b	.L2
 204              	.L9:
 205              		.align	2
 206              	.L8:
 207 007c 0FC0FFFF 		.word	-16369
 208 0080 07040240 		.word	1073873927
 209 0084 F8FBFDBF 		.word	-1073873928
 210 0088 00040240 		.word	1073873920
 211 008c F8FFFDBF 		.word	-1073872904
 212 0090 00000240 		.word	1073872896
 213              		.cfi_endproc
 214              	.LFE37:
 216              		.section	.text.HAL_DMA_DeInit,"ax",%progbits
 217              		.align	1
 218              		.p2align 2,,3
 219              		.global	HAL_DMA_DeInit
 220              		.syntax unified
 221              		.code	16
 222              		.thumb_func
 223              		.fpu softvfp
 225              	HAL_DMA_DeInit:
 226              	.LVL16:
 227              	.LFB38:
ARM GAS  /tmp/ccjPiDbo.s 			page 21


 223:Drivers/STM32F0xx_HAL_Driver/Src/stm32f0xx_hal_dma.c ****   /* Check the DMA handle allocation */
 228              		.loc 1 223 1 is_stmt 1 view -0
 229              		.cfi_startproc
 230              		@ args = 0, pretend = 0, frame = 0
 231              		@ frame_needed = 0, uses_anonymous_args = 0
 225:Drivers/STM32F0xx_HAL_Driver/Src/stm32f0xx_hal_dma.c ****   {
 232              		.loc 1 225 3 view .LVU79
 223:Drivers/STM32F0xx_HAL_Driver/Src/stm32f0xx_hal_dma.c ****   /* Check the DMA handle allocation */
 233              		.loc 1 223 1 is_stmt 0 view .LVU80
 234 0000 10B5     		push	{r4, lr}
 235              	.LCFI1:
 236              		.cfi_def_cfa_offset 8
 237              		.cfi_offset 4, -8
 238              		.cfi_offset 14, -4
 223:Drivers/STM32F0xx_HAL_Driver/Src/stm32f0xx_hal_dma.c ****   /* Check the DMA handle allocation */
 239              		.loc 1 223 1 view .LVU81
 240 0002 041E     		subs	r4, r0, #0
 225:Drivers/STM32F0xx_HAL_Driver/Src/stm32f0xx_hal_dma.c ****   {
 241              		.loc 1 225 5 view .LVU82
 242 0004 2AD0     		beq	.L14
 231:Drivers/STM32F0xx_HAL_Driver/Src/stm32f0xx_hal_dma.c **** 
 243              		.loc 1 231 3 is_stmt 1 view .LVU83
 234:Drivers/STM32F0xx_HAL_Driver/Src/stm32f0xx_hal_dma.c **** 
 244              		.loc 1 234 3 view .LVU84
 234:Drivers/STM32F0xx_HAL_Driver/Src/stm32f0xx_hal_dma.c **** 
 245              		.loc 1 234 23 is_stmt 0 view .LVU85
 246 0006 0122     		movs	r2, #1
 234:Drivers/STM32F0xx_HAL_Driver/Src/stm32f0xx_hal_dma.c **** 
 247              		.loc 1 234 7 view .LVU86
 248 0008 0068     		ldr	r0, [r0]
 249              	.LVL17:
 234:Drivers/STM32F0xx_HAL_Driver/Src/stm32f0xx_hal_dma.c **** 
 250              		.loc 1 234 23 view .LVU87
 251 000a 0368     		ldr	r3, [r0]
 252 000c 9343     		bics	r3, r2
 253 000e 0360     		str	r3, [r0]
 237:Drivers/STM32F0xx_HAL_Driver/Src/stm32f0xx_hal_dma.c **** 
 254              		.loc 1 237 3 is_stmt 1 view .LVU88
 237:Drivers/STM32F0xx_HAL_Driver/Src/stm32f0xx_hal_dma.c **** 
 255              		.loc 1 237 24 is_stmt 0 view .LVU89
 256 0010 0023     		movs	r3, #0
 257 0012 0360     		str	r3, [r0]
 240:Drivers/STM32F0xx_HAL_Driver/Src/stm32f0xx_hal_dma.c **** 
 258              		.loc 1 240 3 is_stmt 1 view .LVU90
 240:Drivers/STM32F0xx_HAL_Driver/Src/stm32f0xx_hal_dma.c **** 
 259              		.loc 1 240 25 is_stmt 0 view .LVU91
 260 0014 4360     		str	r3, [r0, #4]
 243:Drivers/STM32F0xx_HAL_Driver/Src/stm32f0xx_hal_dma.c ****   
 261              		.loc 1 243 3 is_stmt 1 view .LVU92
 243:Drivers/STM32F0xx_HAL_Driver/Src/stm32f0xx_hal_dma.c ****   
 262              		.loc 1 243 25 is_stmt 0 view .LVU93
 263 0016 8360     		str	r3, [r0, #8]
 246:Drivers/STM32F0xx_HAL_Driver/Src/stm32f0xx_hal_dma.c **** 
 264              		.loc 1 246 3 is_stmt 1 view .LVU94
 246:Drivers/STM32F0xx_HAL_Driver/Src/stm32f0xx_hal_dma.c **** 
 265              		.loc 1 246 24 is_stmt 0 view .LVU95
 266 0018 C360     		str	r3, [r0, #12]
ARM GAS  /tmp/ccjPiDbo.s 			page 22


 249:Drivers/STM32F0xx_HAL_Driver/Src/stm32f0xx_hal_dma.c **** 
 267              		.loc 1 249 3 is_stmt 1 view .LVU96
 268              	.LVL18:
 269              	.LBB14:
 270              	.LBI14:
 864:Drivers/STM32F0xx_HAL_Driver/Src/stm32f0xx_hal_dma.c **** {
 271              		.loc 1 864 13 view .LVU97
 272              	.LBB15:
 868:Drivers/STM32F0xx_HAL_Driver/Src/stm32f0xx_hal_dma.c ****   {
 273              		.loc 1 868 3 view .LVU98
 868:Drivers/STM32F0xx_HAL_Driver/Src/stm32f0xx_hal_dma.c ****   {
 274              		.loc 1 868 6 is_stmt 0 view .LVU99
 275 001a 114B     		ldr	r3, .L16
 276 001c 9842     		cmp	r0, r3
 277 001e 14D9     		bls	.L15
 877:Drivers/STM32F0xx_HAL_Driver/Src/stm32f0xx_hal_dma.c ****     hdma->DmaBaseAddress = DMA2;
 278              		.loc 1 877 5 is_stmt 1 view .LVU100
 877:Drivers/STM32F0xx_HAL_Driver/Src/stm32f0xx_hal_dma.c ****     hdma->DmaBaseAddress = DMA2;
 279              		.loc 1 877 53 is_stmt 0 view .LVU101
 280 0020 104B     		ldr	r3, .L16+4
 877:Drivers/STM32F0xx_HAL_Driver/Src/stm32f0xx_hal_dma.c ****     hdma->DmaBaseAddress = DMA2;
 281              		.loc 1 877 80 view .LVU102
 282 0022 1421     		movs	r1, #20
 877:Drivers/STM32F0xx_HAL_Driver/Src/stm32f0xx_hal_dma.c ****     hdma->DmaBaseAddress = DMA2;
 283              		.loc 1 877 53 view .LVU103
 284 0024 9C46     		mov	ip, r3
 285 0026 6044     		add	r0, r0, ip
 877:Drivers/STM32F0xx_HAL_Driver/Src/stm32f0xx_hal_dma.c ****     hdma->DmaBaseAddress = DMA2;
 286              		.loc 1 877 80 view .LVU104
 287 0028 FFF7FEFF 		bl	__aeabi_uidiv
 288              	.LVL19:
 289              		.loc 1 878 26 view .LVU105
 290 002c 0E4A     		ldr	r2, .L16+8
 877:Drivers/STM32F0xx_HAL_Driver/Src/stm32f0xx_hal_dma.c ****     hdma->DmaBaseAddress = DMA2;
 291              		.loc 1 877 135 view .LVU106
 292 002e 8000     		lsls	r0, r0, #2
 293              		.loc 1 878 5 is_stmt 1 view .LVU107
 294              	.L13:
 295              	.LBE15:
 296              	.LBE14:
 252:Drivers/STM32F0xx_HAL_Driver/Src/stm32f0xx_hal_dma.c **** 
 297              		.loc 1 252 45 is_stmt 0 view .LVU108
 298 0030 0123     		movs	r3, #1
 299 0032 8340     		lsls	r3, r3, r0
 300 0034 E263     		str	r2, [r4, #60]
 301 0036 2064     		str	r0, [r4, #64]
 302              	.LVL20:
 252:Drivers/STM32F0xx_HAL_Driver/Src/stm32f0xx_hal_dma.c **** 
 303              		.loc 1 252 3 is_stmt 1 view .LVU109
 252:Drivers/STM32F0xx_HAL_Driver/Src/stm32f0xx_hal_dma.c **** 
 304              		.loc 1 252 30 is_stmt 0 view .LVU110
 305 0038 5360     		str	r3, [r2, #4]
 255:Drivers/STM32F0xx_HAL_Driver/Src/stm32f0xx_hal_dma.c **** 
 306              		.loc 1 255 3 is_stmt 1 view .LVU111
 255:Drivers/STM32F0xx_HAL_Driver/Src/stm32f0xx_hal_dma.c **** 
 307              		.loc 1 255 19 is_stmt 0 view .LVU112
 308 003a 0023     		movs	r3, #0
ARM GAS  /tmp/ccjPiDbo.s 			page 23


 258:Drivers/STM32F0xx_HAL_Driver/Src/stm32f0xx_hal_dma.c **** 
 309              		.loc 1 258 15 view .LVU113
 310 003c 2122     		movs	r2, #33
 263:Drivers/STM32F0xx_HAL_Driver/Src/stm32f0xx_hal_dma.c **** }
 311              		.loc 1 263 10 view .LVU114
 312 003e 0020     		movs	r0, #0
 255:Drivers/STM32F0xx_HAL_Driver/Src/stm32f0xx_hal_dma.c **** 
 313              		.loc 1 255 19 view .LVU115
 314 0040 A363     		str	r3, [r4, #56]
 258:Drivers/STM32F0xx_HAL_Driver/Src/stm32f0xx_hal_dma.c **** 
 315              		.loc 1 258 3 is_stmt 1 view .LVU116
 258:Drivers/STM32F0xx_HAL_Driver/Src/stm32f0xx_hal_dma.c **** 
 316              		.loc 1 258 15 is_stmt 0 view .LVU117
 317 0042 A354     		strb	r3, [r4, r2]
 261:Drivers/STM32F0xx_HAL_Driver/Src/stm32f0xx_hal_dma.c **** 
 318              		.loc 1 261 3 is_stmt 1 view .LVU118
 261:Drivers/STM32F0xx_HAL_Driver/Src/stm32f0xx_hal_dma.c **** 
 319              		.loc 1 261 3 view .LVU119
 320 0044 013A     		subs	r2, r2, #1
 321 0046 A354     		strb	r3, [r4, r2]
 263:Drivers/STM32F0xx_HAL_Driver/Src/stm32f0xx_hal_dma.c **** }
 322              		.loc 1 263 3 view .LVU120
 323              	.L11:
 264:Drivers/STM32F0xx_HAL_Driver/Src/stm32f0xx_hal_dma.c **** 
 324              		.loc 1 264 1 is_stmt 0 view .LVU121
 325              		@ sp needed
 326              	.LVL21:
 264:Drivers/STM32F0xx_HAL_Driver/Src/stm32f0xx_hal_dma.c **** 
 327              		.loc 1 264 1 view .LVU122
 328 0048 10BD     		pop	{r4, pc}
 329              	.LVL22:
 330              	.L15:
 331              	.LBB17:
 332              	.LBB16:
 871:Drivers/STM32F0xx_HAL_Driver/Src/stm32f0xx_hal_dma.c ****     hdma->DmaBaseAddress = DMA1;
 333              		.loc 1 871 5 is_stmt 1 view .LVU123
 871:Drivers/STM32F0xx_HAL_Driver/Src/stm32f0xx_hal_dma.c ****     hdma->DmaBaseAddress = DMA1;
 334              		.loc 1 871 53 is_stmt 0 view .LVU124
 335 004a 084B     		ldr	r3, .L16+12
 871:Drivers/STM32F0xx_HAL_Driver/Src/stm32f0xx_hal_dma.c ****     hdma->DmaBaseAddress = DMA1;
 336              		.loc 1 871 80 view .LVU125
 337 004c 1421     		movs	r1, #20
 871:Drivers/STM32F0xx_HAL_Driver/Src/stm32f0xx_hal_dma.c ****     hdma->DmaBaseAddress = DMA1;
 338              		.loc 1 871 53 view .LVU126
 339 004e 9C46     		mov	ip, r3
 340 0050 6044     		add	r0, r0, ip
 871:Drivers/STM32F0xx_HAL_Driver/Src/stm32f0xx_hal_dma.c ****     hdma->DmaBaseAddress = DMA1;
 341              		.loc 1 871 80 view .LVU127
 342 0052 FFF7FEFF 		bl	__aeabi_uidiv
 343              	.LVL23:
 872:Drivers/STM32F0xx_HAL_Driver/Src/stm32f0xx_hal_dma.c ****   }
 344              		.loc 1 872 26 view .LVU128
 345 0056 064A     		ldr	r2, .L16+16
 871:Drivers/STM32F0xx_HAL_Driver/Src/stm32f0xx_hal_dma.c ****     hdma->DmaBaseAddress = DMA1;
 346              		.loc 1 871 135 view .LVU129
 347 0058 8000     		lsls	r0, r0, #2
 872:Drivers/STM32F0xx_HAL_Driver/Src/stm32f0xx_hal_dma.c ****   }
ARM GAS  /tmp/ccjPiDbo.s 			page 24


 348              		.loc 1 872 5 is_stmt 1 view .LVU130
 349 005a E9E7     		b	.L13
 350              	.LVL24:
 351              	.L14:
 872:Drivers/STM32F0xx_HAL_Driver/Src/stm32f0xx_hal_dma.c ****   }
 352              		.loc 1 872 5 is_stmt 0 view .LVU131
 353              	.LBE16:
 354              	.LBE17:
 227:Drivers/STM32F0xx_HAL_Driver/Src/stm32f0xx_hal_dma.c ****   }
 355              		.loc 1 227 12 view .LVU132
 356 005c 0120     		movs	r0, #1
 357              	.LVL25:
 227:Drivers/STM32F0xx_HAL_Driver/Src/stm32f0xx_hal_dma.c ****   }
 358              		.loc 1 227 12 view .LVU133
 359 005e F3E7     		b	.L11
 360              	.L17:
 361              		.align	2
 362              	.L16:
 363 0060 07040240 		.word	1073873927
 364 0064 F8FBFDBF 		.word	-1073873928
 365 0068 00040240 		.word	1073873920
 366 006c F8FFFDBF 		.word	-1073872904
 367 0070 00000240 		.word	1073872896
 368              		.cfi_endproc
 369              	.LFE38:
 371              		.section	.text.HAL_DMA_Start,"ax",%progbits
 372              		.align	1
 373              		.p2align 2,,3
 374              		.global	HAL_DMA_Start
 375              		.syntax unified
 376              		.code	16
 377              		.thumb_func
 378              		.fpu softvfp
 380              	HAL_DMA_Start:
 381              	.LVL26:
 382              	.LFB39:
 299:Drivers/STM32F0xx_HAL_Driver/Src/stm32f0xx_hal_dma.c **** 	HAL_StatusTypeDef status = HAL_OK;
 383              		.loc 1 299 1 is_stmt 1 view -0
 384              		.cfi_startproc
 385              		@ args = 0, pretend = 0, frame = 0
 386              		@ frame_needed = 0, uses_anonymous_args = 0
 300:Drivers/STM32F0xx_HAL_Driver/Src/stm32f0xx_hal_dma.c **** 
 387              		.loc 1 300 2 view .LVU135
 303:Drivers/STM32F0xx_HAL_Driver/Src/stm32f0xx_hal_dma.c ****   
 388              		.loc 1 303 3 view .LVU136
 306:Drivers/STM32F0xx_HAL_Driver/Src/stm32f0xx_hal_dma.c ****   
 389              		.loc 1 306 3 view .LVU137
 306:Drivers/STM32F0xx_HAL_Driver/Src/stm32f0xx_hal_dma.c ****   
 390              		.loc 1 306 3 view .LVU138
 299:Drivers/STM32F0xx_HAL_Driver/Src/stm32f0xx_hal_dma.c **** 	HAL_StatusTypeDef status = HAL_OK;
 391              		.loc 1 299 1 is_stmt 0 view .LVU139
 392 0000 F0B5     		push	{r4, r5, r6, r7, lr}
 393              	.LCFI2:
 394              		.cfi_def_cfa_offset 20
 395              		.cfi_offset 4, -20
 396              		.cfi_offset 5, -16
 397              		.cfi_offset 6, -12
ARM GAS  /tmp/ccjPiDbo.s 			page 25


 398              		.cfi_offset 7, -8
 399              		.cfi_offset 14, -4
 306:Drivers/STM32F0xx_HAL_Driver/Src/stm32f0xx_hal_dma.c ****   
 400              		.loc 1 306 3 view .LVU140
 401 0002 2025     		movs	r5, #32
 402 0004 445D     		ldrb	r4, [r0, r5]
 403 0006 012C     		cmp	r4, #1
 404 0008 25D0     		beq	.L23
 306:Drivers/STM32F0xx_HAL_Driver/Src/stm32f0xx_hal_dma.c ****   
 405              		.loc 1 306 3 is_stmt 1 discriminator 2 view .LVU141
 406 000a 0124     		movs	r4, #1
 308:Drivers/STM32F0xx_HAL_Driver/Src/stm32f0xx_hal_dma.c ****   {
 407              		.loc 1 308 33 is_stmt 0 discriminator 2 view .LVU142
 408 000c 2126     		movs	r6, #33
 306:Drivers/STM32F0xx_HAL_Driver/Src/stm32f0xx_hal_dma.c ****   
 409              		.loc 1 306 3 discriminator 2 view .LVU143
 410 000e 4455     		strb	r4, [r0, r5]
 308:Drivers/STM32F0xx_HAL_Driver/Src/stm32f0xx_hal_dma.c ****   {
 411              		.loc 1 308 3 is_stmt 1 discriminator 2 view .LVU144
 308:Drivers/STM32F0xx_HAL_Driver/Src/stm32f0xx_hal_dma.c ****   {
 412              		.loc 1 308 33 is_stmt 0 discriminator 2 view .LVU145
 413 0010 845D     		ldrb	r4, [r0, r6]
 414 0012 E4B2     		uxtb	r4, r4
 308:Drivers/STM32F0xx_HAL_Driver/Src/stm32f0xx_hal_dma.c ****   {
 415              		.loc 1 308 5 discriminator 2 view .LVU146
 416 0014 012C     		cmp	r4, #1
 417 0016 03D0     		beq	.L24
 327:Drivers/STM32F0xx_HAL_Driver/Src/stm32f0xx_hal_dma.c ****   	
 418              		.loc 1 327 4 is_stmt 1 view .LVU147
 327:Drivers/STM32F0xx_HAL_Driver/Src/stm32f0xx_hal_dma.c ****   	
 419              		.loc 1 327 4 view .LVU148
 420 0018 0023     		movs	r3, #0
 421              	.LVL27:
 327:Drivers/STM32F0xx_HAL_Driver/Src/stm32f0xx_hal_dma.c ****   	
 422              		.loc 1 327 4 is_stmt 0 view .LVU149
 423 001a 4355     		strb	r3, [r0, r5]
 330:Drivers/STM32F0xx_HAL_Driver/Src/stm32f0xx_hal_dma.c ****   }  
 424              		.loc 1 330 4 is_stmt 1 view .LVU150
 425              	.LVL28:
 330:Drivers/STM32F0xx_HAL_Driver/Src/stm32f0xx_hal_dma.c ****   }  
 426              		.loc 1 330 11 is_stmt 0 view .LVU151
 427 001c 0220     		movs	r0, #2
 428              	.LVL29:
 429              	.L19:
 334:Drivers/STM32F0xx_HAL_Driver/Src/stm32f0xx_hal_dma.c **** 
 430              		.loc 1 334 1 view .LVU152
 431              		@ sp needed
 432 001e F0BD     		pop	{r4, r5, r6, r7, pc}
 433              	.LVL30:
 434              	.L24:
 311:Drivers/STM32F0xx_HAL_Driver/Src/stm32f0xx_hal_dma.c ****   	
 435              		.loc 1 311 4 is_stmt 1 view .LVU153
 311:Drivers/STM32F0xx_HAL_Driver/Src/stm32f0xx_hal_dma.c ****   	
 436              		.loc 1 311 16 is_stmt 0 view .LVU154
 437 0020 1E3D     		subs	r5, r5, #30
 438 0022 8555     		strb	r5, [r0, r6]
 313:Drivers/STM32F0xx_HAL_Driver/Src/stm32f0xx_hal_dma.c ****   	
ARM GAS  /tmp/ccjPiDbo.s 			page 26


 439              		.loc 1 313 4 is_stmt 1 view .LVU155
 313:Drivers/STM32F0xx_HAL_Driver/Src/stm32f0xx_hal_dma.c ****   	
 440              		.loc 1 313 20 is_stmt 0 view .LVU156
 441 0024 0025     		movs	r5, #0
 442 0026 8563     		str	r5, [r0, #56]
 316:Drivers/STM32F0xx_HAL_Driver/Src/stm32f0xx_hal_dma.c ****   	
 443              		.loc 1 316 4 is_stmt 1 view .LVU157
 316:Drivers/STM32F0xx_HAL_Driver/Src/stm32f0xx_hal_dma.c ****   	
 444              		.loc 1 316 8 is_stmt 0 view .LVU158
 445 0028 0568     		ldr	r5, [r0]
 446              	.LBB18:
 447              	.LBB19:
 833:Drivers/STM32F0xx_HAL_Driver/Src/stm32f0xx_hal_dma.c ****   
 448              		.loc 1 833 47 view .LVU159
 449 002a 076C     		ldr	r7, [r0, #64]
 450              	.LBE19:
 451              	.LBE18:
 316:Drivers/STM32F0xx_HAL_Driver/Src/stm32f0xx_hal_dma.c ****   	
 452              		.loc 1 316 24 view .LVU160
 453 002c 2E68     		ldr	r6, [r5]
 454 002e A643     		bics	r6, r4
 455              	.LBB23:
 456              	.LBB20:
 833:Drivers/STM32F0xx_HAL_Driver/Src/stm32f0xx_hal_dma.c ****   
 457              		.loc 1 833 47 view .LVU161
 458 0030 BC40     		lsls	r4, r4, r7
 459              	.LBE20:
 460              	.LBE23:
 316:Drivers/STM32F0xx_HAL_Driver/Src/stm32f0xx_hal_dma.c ****   	
 461              		.loc 1 316 24 view .LVU162
 462 0032 2E60     		str	r6, [r5]
 319:Drivers/STM32F0xx_HAL_Driver/Src/stm32f0xx_hal_dma.c ****   	
 463              		.loc 1 319 4 is_stmt 1 view .LVU163
 464              	.LVL31:
 465              	.LBB24:
 466              	.LBI18:
 830:Drivers/STM32F0xx_HAL_Driver/Src/stm32f0xx_hal_dma.c **** {
 467              		.loc 1 830 13 view .LVU164
 468              	.LBB21:
 833:Drivers/STM32F0xx_HAL_Driver/Src/stm32f0xx_hal_dma.c ****   
 469              		.loc 1 833 3 view .LVU165
 833:Drivers/STM32F0xx_HAL_Driver/Src/stm32f0xx_hal_dma.c ****   
 470              		.loc 1 833 7 is_stmt 0 view .LVU166
 471 0034 C66B     		ldr	r6, [r0, #60]
 833:Drivers/STM32F0xx_HAL_Driver/Src/stm32f0xx_hal_dma.c ****   
 472              		.loc 1 833 31 view .LVU167
 473 0036 7460     		str	r4, [r6, #4]
 836:Drivers/STM32F0xx_HAL_Driver/Src/stm32f0xx_hal_dma.c ****   
 474              		.loc 1 836 3 is_stmt 1 view .LVU168
 836:Drivers/STM32F0xx_HAL_Driver/Src/stm32f0xx_hal_dma.c ****   
 475              		.loc 1 836 25 is_stmt 0 view .LVU169
 476 0038 6B60     		str	r3, [r5, #4]
 839:Drivers/STM32F0xx_HAL_Driver/Src/stm32f0xx_hal_dma.c ****   {   
 477              		.loc 1 839 3 is_stmt 1 view .LVU170
 839:Drivers/STM32F0xx_HAL_Driver/Src/stm32f0xx_hal_dma.c ****   {   
 478              		.loc 1 839 5 is_stmt 0 view .LVU171
 479 003a 4368     		ldr	r3, [r0, #4]
ARM GAS  /tmp/ccjPiDbo.s 			page 27


 480              	.LVL32:
 839:Drivers/STM32F0xx_HAL_Driver/Src/stm32f0xx_hal_dma.c ****   {   
 481              		.loc 1 839 5 view .LVU172
 482 003c 102B     		cmp	r3, #16
 483 003e 07D0     		beq	.L25
 851:Drivers/STM32F0xx_HAL_Driver/Src/stm32f0xx_hal_dma.c ****     
 484              		.loc 1 851 5 is_stmt 1 view .LVU173
 851:Drivers/STM32F0xx_HAL_Driver/Src/stm32f0xx_hal_dma.c ****     
 485              		.loc 1 851 26 is_stmt 0 view .LVU174
 486 0040 A960     		str	r1, [r5, #8]
 487              	.LVL33:
 854:Drivers/STM32F0xx_HAL_Driver/Src/stm32f0xx_hal_dma.c ****   }
 488              		.loc 1 854 5 is_stmt 1 view .LVU175
 854:Drivers/STM32F0xx_HAL_Driver/Src/stm32f0xx_hal_dma.c ****   }
 489              		.loc 1 854 26 is_stmt 0 view .LVU176
 490 0042 EA60     		str	r2, [r5, #12]
 491              	.L22:
 492              	.LVL34:
 854:Drivers/STM32F0xx_HAL_Driver/Src/stm32f0xx_hal_dma.c ****   }
 493              		.loc 1 854 26 view .LVU177
 494              	.LBE21:
 495              	.LBE24:
 322:Drivers/STM32F0xx_HAL_Driver/Src/stm32f0xx_hal_dma.c ****   }
 496              		.loc 1 322 4 is_stmt 1 view .LVU178
 322:Drivers/STM32F0xx_HAL_Driver/Src/stm32f0xx_hal_dma.c ****   }
 497              		.loc 1 322 24 is_stmt 0 view .LVU179
 498 0044 0122     		movs	r2, #1
 499              	.LVL35:
 322:Drivers/STM32F0xx_HAL_Driver/Src/stm32f0xx_hal_dma.c ****   }
 500              		.loc 1 322 24 view .LVU180
 501 0046 2B68     		ldr	r3, [r5]
 300:Drivers/STM32F0xx_HAL_Driver/Src/stm32f0xx_hal_dma.c **** 
 502              		.loc 1 300 20 view .LVU181
 503 0048 0020     		movs	r0, #0
 504              	.LVL36:
 322:Drivers/STM32F0xx_HAL_Driver/Src/stm32f0xx_hal_dma.c ****   }
 505              		.loc 1 322 24 view .LVU182
 506 004a 1343     		orrs	r3, r2
 507 004c 2B60     		str	r3, [r5]
 508 004e E6E7     		b	.L19
 509              	.LVL37:
 510              	.L25:
 511              	.LBB25:
 512              	.LBB22:
 842:Drivers/STM32F0xx_HAL_Driver/Src/stm32f0xx_hal_dma.c ****     
 513              		.loc 1 842 5 is_stmt 1 view .LVU183
 842:Drivers/STM32F0xx_HAL_Driver/Src/stm32f0xx_hal_dma.c ****     
 514              		.loc 1 842 26 is_stmt 0 view .LVU184
 515 0050 AA60     		str	r2, [r5, #8]
 516              	.LVL38:
 845:Drivers/STM32F0xx_HAL_Driver/Src/stm32f0xx_hal_dma.c ****   }
 517              		.loc 1 845 5 is_stmt 1 view .LVU185
 845:Drivers/STM32F0xx_HAL_Driver/Src/stm32f0xx_hal_dma.c ****   }
 518              		.loc 1 845 26 is_stmt 0 view .LVU186
 519 0052 E960     		str	r1, [r5, #12]
 520 0054 F6E7     		b	.L22
 521              	.LVL39:
ARM GAS  /tmp/ccjPiDbo.s 			page 28


 522              	.L23:
 845:Drivers/STM32F0xx_HAL_Driver/Src/stm32f0xx_hal_dma.c ****   }
 523              		.loc 1 845 26 view .LVU187
 524              	.LBE22:
 525              	.LBE25:
 306:Drivers/STM32F0xx_HAL_Driver/Src/stm32f0xx_hal_dma.c ****   
 526              		.loc 1 306 3 view .LVU188
 527 0056 0220     		movs	r0, #2
 528              	.LVL40:
 306:Drivers/STM32F0xx_HAL_Driver/Src/stm32f0xx_hal_dma.c ****   
 529              		.loc 1 306 3 view .LVU189
 530 0058 E1E7     		b	.L19
 531              		.cfi_endproc
 532              	.LFE39:
 534 005a C046     		.section	.text.HAL_DMA_Start_IT,"ax",%progbits
 535              		.align	1
 536              		.p2align 2,,3
 537              		.global	HAL_DMA_Start_IT
 538              		.syntax unified
 539              		.code	16
 540              		.thumb_func
 541              		.fpu softvfp
 543              	HAL_DMA_Start_IT:
 544              	.LVL41:
 545              	.LFB40:
 346:Drivers/STM32F0xx_HAL_Driver/Src/stm32f0xx_hal_dma.c **** 	HAL_StatusTypeDef status = HAL_OK;
 546              		.loc 1 346 1 is_stmt 1 view -0
 547              		.cfi_startproc
 548              		@ args = 0, pretend = 0, frame = 0
 549              		@ frame_needed = 0, uses_anonymous_args = 0
 347:Drivers/STM32F0xx_HAL_Driver/Src/stm32f0xx_hal_dma.c **** 
 550              		.loc 1 347 2 view .LVU191
 350:Drivers/STM32F0xx_HAL_Driver/Src/stm32f0xx_hal_dma.c ****   
 551              		.loc 1 350 3 view .LVU192
 353:Drivers/STM32F0xx_HAL_Driver/Src/stm32f0xx_hal_dma.c ****   
 552              		.loc 1 353 3 view .LVU193
 353:Drivers/STM32F0xx_HAL_Driver/Src/stm32f0xx_hal_dma.c ****   
 553              		.loc 1 353 3 view .LVU194
 346:Drivers/STM32F0xx_HAL_Driver/Src/stm32f0xx_hal_dma.c **** 	HAL_StatusTypeDef status = HAL_OK;
 554              		.loc 1 346 1 is_stmt 0 view .LVU195
 555 0000 F0B5     		push	{r4, r5, r6, r7, lr}
 556              	.LCFI3:
 557              		.cfi_def_cfa_offset 20
 558              		.cfi_offset 4, -20
 559              		.cfi_offset 5, -16
 560              		.cfi_offset 6, -12
 561              		.cfi_offset 7, -8
 562              		.cfi_offset 14, -4
 353:Drivers/STM32F0xx_HAL_Driver/Src/stm32f0xx_hal_dma.c ****   
 563              		.loc 1 353 3 view .LVU196
 564 0002 2025     		movs	r5, #32
 565 0004 445D     		ldrb	r4, [r0, r5]
 566 0006 012C     		cmp	r4, #1
 567 0008 37D0     		beq	.L33
 353:Drivers/STM32F0xx_HAL_Driver/Src/stm32f0xx_hal_dma.c ****   
 568              		.loc 1 353 3 is_stmt 1 discriminator 2 view .LVU197
 569 000a 0124     		movs	r4, #1
ARM GAS  /tmp/ccjPiDbo.s 			page 29


 355:Drivers/STM32F0xx_HAL_Driver/Src/stm32f0xx_hal_dma.c ****   {
 570              		.loc 1 355 33 is_stmt 0 discriminator 2 view .LVU198
 571 000c 2126     		movs	r6, #33
 353:Drivers/STM32F0xx_HAL_Driver/Src/stm32f0xx_hal_dma.c ****   
 572              		.loc 1 353 3 discriminator 2 view .LVU199
 573 000e 4455     		strb	r4, [r0, r5]
 355:Drivers/STM32F0xx_HAL_Driver/Src/stm32f0xx_hal_dma.c ****   {
 574              		.loc 1 355 3 is_stmt 1 discriminator 2 view .LVU200
 355:Drivers/STM32F0xx_HAL_Driver/Src/stm32f0xx_hal_dma.c ****   {
 575              		.loc 1 355 33 is_stmt 0 discriminator 2 view .LVU201
 576 0010 845D     		ldrb	r4, [r0, r6]
 577 0012 E4B2     		uxtb	r4, r4
 355:Drivers/STM32F0xx_HAL_Driver/Src/stm32f0xx_hal_dma.c ****   {
 578              		.loc 1 355 5 discriminator 2 view .LVU202
 579 0014 012C     		cmp	r4, #1
 580 0016 03D0     		beq	.L34
 386:Drivers/STM32F0xx_HAL_Driver/Src/stm32f0xx_hal_dma.c ****   
 581              		.loc 1 386 5 is_stmt 1 view .LVU203
 386:Drivers/STM32F0xx_HAL_Driver/Src/stm32f0xx_hal_dma.c ****   
 582              		.loc 1 386 5 view .LVU204
 583 0018 0023     		movs	r3, #0
 584              	.LVL42:
 386:Drivers/STM32F0xx_HAL_Driver/Src/stm32f0xx_hal_dma.c ****   
 585              		.loc 1 386 5 is_stmt 0 view .LVU205
 586 001a 4355     		strb	r3, [r0, r5]
 389:Drivers/STM32F0xx_HAL_Driver/Src/stm32f0xx_hal_dma.c ****   }     
 587              		.loc 1 389 5 is_stmt 1 view .LVU206
 588              	.LVL43:
 389:Drivers/STM32F0xx_HAL_Driver/Src/stm32f0xx_hal_dma.c ****   }     
 589              		.loc 1 389 12 is_stmt 0 view .LVU207
 590 001c 0220     		movs	r0, #2
 591              	.LVL44:
 592              	.L27:
 393:Drivers/STM32F0xx_HAL_Driver/Src/stm32f0xx_hal_dma.c **** 
 593              		.loc 1 393 1 view .LVU208
 594              		@ sp needed
 595 001e F0BD     		pop	{r4, r5, r6, r7, pc}
 596              	.LVL45:
 597              	.L34:
 358:Drivers/STM32F0xx_HAL_Driver/Src/stm32f0xx_hal_dma.c ****   	
 598              		.loc 1 358 4 is_stmt 1 view .LVU209
 358:Drivers/STM32F0xx_HAL_Driver/Src/stm32f0xx_hal_dma.c ****   	
 599              		.loc 1 358 16 is_stmt 0 view .LVU210
 600 0020 1E3D     		subs	r5, r5, #30
 601 0022 8555     		strb	r5, [r0, r6]
 360:Drivers/STM32F0xx_HAL_Driver/Src/stm32f0xx_hal_dma.c ****   	
 602              		.loc 1 360 4 is_stmt 1 view .LVU211
 360:Drivers/STM32F0xx_HAL_Driver/Src/stm32f0xx_hal_dma.c ****   	
 603              		.loc 1 360 20 is_stmt 0 view .LVU212
 604 0024 0025     		movs	r5, #0
 605 0026 8563     		str	r5, [r0, #56]
 363:Drivers/STM32F0xx_HAL_Driver/Src/stm32f0xx_hal_dma.c ****   	
 606              		.loc 1 363 4 is_stmt 1 view .LVU213
 363:Drivers/STM32F0xx_HAL_Driver/Src/stm32f0xx_hal_dma.c ****   	
 607              		.loc 1 363 8 is_stmt 0 view .LVU214
 608 0028 0568     		ldr	r5, [r0]
 609              	.LBB26:
ARM GAS  /tmp/ccjPiDbo.s 			page 30


 610              	.LBB27:
 833:Drivers/STM32F0xx_HAL_Driver/Src/stm32f0xx_hal_dma.c ****   
 611              		.loc 1 833 47 view .LVU215
 612 002a 076C     		ldr	r7, [r0, #64]
 613              	.LBE27:
 614              	.LBE26:
 363:Drivers/STM32F0xx_HAL_Driver/Src/stm32f0xx_hal_dma.c ****   	
 615              		.loc 1 363 24 view .LVU216
 616 002c 2E68     		ldr	r6, [r5]
 617 002e A643     		bics	r6, r4
 618              	.LBB33:
 619              	.LBB28:
 833:Drivers/STM32F0xx_HAL_Driver/Src/stm32f0xx_hal_dma.c ****   
 620              		.loc 1 833 47 view .LVU217
 621 0030 BC40     		lsls	r4, r4, r7
 622              	.LBE28:
 623              	.LBE33:
 363:Drivers/STM32F0xx_HAL_Driver/Src/stm32f0xx_hal_dma.c ****   	
 624              		.loc 1 363 24 view .LVU218
 625 0032 2E60     		str	r6, [r5]
 366:Drivers/STM32F0xx_HAL_Driver/Src/stm32f0xx_hal_dma.c ****   	
 626              		.loc 1 366 4 is_stmt 1 view .LVU219
 627              	.LVL46:
 628              	.LBB34:
 629              	.LBI26:
 830:Drivers/STM32F0xx_HAL_Driver/Src/stm32f0xx_hal_dma.c **** {
 630              		.loc 1 830 13 view .LVU220
 631              	.LBB29:
 833:Drivers/STM32F0xx_HAL_Driver/Src/stm32f0xx_hal_dma.c ****   
 632              		.loc 1 833 3 view .LVU221
 833:Drivers/STM32F0xx_HAL_Driver/Src/stm32f0xx_hal_dma.c ****   
 633              		.loc 1 833 7 is_stmt 0 view .LVU222
 634 0034 C66B     		ldr	r6, [r0, #60]
 833:Drivers/STM32F0xx_HAL_Driver/Src/stm32f0xx_hal_dma.c ****   
 635              		.loc 1 833 31 view .LVU223
 636 0036 7460     		str	r4, [r6, #4]
 836:Drivers/STM32F0xx_HAL_Driver/Src/stm32f0xx_hal_dma.c ****   
 637              		.loc 1 836 3 is_stmt 1 view .LVU224
 836:Drivers/STM32F0xx_HAL_Driver/Src/stm32f0xx_hal_dma.c ****   
 638              		.loc 1 836 25 is_stmt 0 view .LVU225
 639 0038 6B60     		str	r3, [r5, #4]
 839:Drivers/STM32F0xx_HAL_Driver/Src/stm32f0xx_hal_dma.c ****   {   
 640              		.loc 1 839 3 is_stmt 1 view .LVU226
 839:Drivers/STM32F0xx_HAL_Driver/Src/stm32f0xx_hal_dma.c ****   {   
 641              		.loc 1 839 5 is_stmt 0 view .LVU227
 642 003a 4368     		ldr	r3, [r0, #4]
 643              	.LVL47:
 839:Drivers/STM32F0xx_HAL_Driver/Src/stm32f0xx_hal_dma.c ****   {   
 644              		.loc 1 839 5 view .LVU228
 645 003c 102B     		cmp	r3, #16
 646 003e 0ED0     		beq	.L35
 851:Drivers/STM32F0xx_HAL_Driver/Src/stm32f0xx_hal_dma.c ****     
 647              		.loc 1 851 5 is_stmt 1 view .LVU229
 648              	.LBE29:
 649              	.LBE34:
 370:Drivers/STM32F0xx_HAL_Driver/Src/stm32f0xx_hal_dma.c ****     {
 650              		.loc 1 370 7 is_stmt 0 view .LVU230
ARM GAS  /tmp/ccjPiDbo.s 			page 31


 651 0040 C36A     		ldr	r3, [r0, #44]
 652              	.LBB35:
 653              	.LBB30:
 851:Drivers/STM32F0xx_HAL_Driver/Src/stm32f0xx_hal_dma.c ****     
 654              		.loc 1 851 26 view .LVU231
 655 0042 A960     		str	r1, [r5, #8]
 656              	.LVL48:
 854:Drivers/STM32F0xx_HAL_Driver/Src/stm32f0xx_hal_dma.c ****   }
 657              		.loc 1 854 5 is_stmt 1 view .LVU232
 854:Drivers/STM32F0xx_HAL_Driver/Src/stm32f0xx_hal_dma.c ****   }
 658              		.loc 1 854 26 is_stmt 0 view .LVU233
 659 0044 EA60     		str	r2, [r5, #12]
 660              	.LVL49:
 854:Drivers/STM32F0xx_HAL_Driver/Src/stm32f0xx_hal_dma.c ****   }
 661              		.loc 1 854 26 view .LVU234
 662              	.LBE30:
 663              	.LBE35:
 370:Drivers/STM32F0xx_HAL_Driver/Src/stm32f0xx_hal_dma.c ****     {
 664              		.loc 1 370 5 is_stmt 1 view .LVU235
 370:Drivers/STM32F0xx_HAL_Driver/Src/stm32f0xx_hal_dma.c ****     {
 665              		.loc 1 370 7 is_stmt 0 view .LVU236
 666 0046 002B     		cmp	r3, #0
 667 0048 0ED0     		beq	.L31
 668              	.L36:
 372:Drivers/STM32F0xx_HAL_Driver/Src/stm32f0xx_hal_dma.c ****     }
 669              		.loc 1 372 7 is_stmt 1 view .LVU237
 372:Drivers/STM32F0xx_HAL_Driver/Src/stm32f0xx_hal_dma.c ****     }
 670              		.loc 1 372 27 is_stmt 0 view .LVU238
 671 004a 0E22     		movs	r2, #14
 672              	.LVL50:
 372:Drivers/STM32F0xx_HAL_Driver/Src/stm32f0xx_hal_dma.c ****     }
 673              		.loc 1 372 27 view .LVU239
 674 004c 2B68     		ldr	r3, [r5]
 675 004e 1343     		orrs	r3, r2
 676 0050 2B60     		str	r3, [r5]
 677              	.L32:
 381:Drivers/STM32F0xx_HAL_Driver/Src/stm32f0xx_hal_dma.c ****   }
 678              		.loc 1 381 4 is_stmt 1 view .LVU240
 381:Drivers/STM32F0xx_HAL_Driver/Src/stm32f0xx_hal_dma.c ****   }
 679              		.loc 1 381 24 is_stmt 0 view .LVU241
 680 0052 0122     		movs	r2, #1
 681 0054 2B68     		ldr	r3, [r5]
 347:Drivers/STM32F0xx_HAL_Driver/Src/stm32f0xx_hal_dma.c **** 
 682              		.loc 1 347 20 view .LVU242
 683 0056 0020     		movs	r0, #0
 684              	.LVL51:
 381:Drivers/STM32F0xx_HAL_Driver/Src/stm32f0xx_hal_dma.c ****   }
 685              		.loc 1 381 24 view .LVU243
 686 0058 1343     		orrs	r3, r2
 687 005a 2B60     		str	r3, [r5]
 688 005c DFE7     		b	.L27
 689              	.LVL52:
 690              	.L35:
 691              	.LBB36:
 692              	.LBB31:
 842:Drivers/STM32F0xx_HAL_Driver/Src/stm32f0xx_hal_dma.c ****     
 693              		.loc 1 842 5 is_stmt 1 view .LVU244
ARM GAS  /tmp/ccjPiDbo.s 			page 32


 694              	.LBE31:
 695              	.LBE36:
 370:Drivers/STM32F0xx_HAL_Driver/Src/stm32f0xx_hal_dma.c ****     {
 696              		.loc 1 370 7 is_stmt 0 view .LVU245
 697 005e C36A     		ldr	r3, [r0, #44]
 698              	.LBB37:
 699              	.LBB32:
 842:Drivers/STM32F0xx_HAL_Driver/Src/stm32f0xx_hal_dma.c ****     
 700              		.loc 1 842 26 view .LVU246
 701 0060 AA60     		str	r2, [r5, #8]
 702              	.LVL53:
 845:Drivers/STM32F0xx_HAL_Driver/Src/stm32f0xx_hal_dma.c ****   }
 703              		.loc 1 845 5 is_stmt 1 view .LVU247
 845:Drivers/STM32F0xx_HAL_Driver/Src/stm32f0xx_hal_dma.c ****   }
 704              		.loc 1 845 26 is_stmt 0 view .LVU248
 705 0062 E960     		str	r1, [r5, #12]
 706              	.LVL54:
 845:Drivers/STM32F0xx_HAL_Driver/Src/stm32f0xx_hal_dma.c ****   }
 707              		.loc 1 845 26 view .LVU249
 708              	.LBE32:
 709              	.LBE37:
 370:Drivers/STM32F0xx_HAL_Driver/Src/stm32f0xx_hal_dma.c ****     {
 710              		.loc 1 370 5 is_stmt 1 view .LVU250
 370:Drivers/STM32F0xx_HAL_Driver/Src/stm32f0xx_hal_dma.c ****     {
 711              		.loc 1 370 7 is_stmt 0 view .LVU251
 712 0064 002B     		cmp	r3, #0
 713 0066 F0D1     		bne	.L36
 714              	.L31:
 376:Drivers/STM32F0xx_HAL_Driver/Src/stm32f0xx_hal_dma.c ****   		hdma->Instance->CCR &= ~DMA_IT_HT;
 715              		.loc 1 376 5 is_stmt 1 view .LVU252
 376:Drivers/STM32F0xx_HAL_Driver/Src/stm32f0xx_hal_dma.c ****   		hdma->Instance->CCR &= ~DMA_IT_HT;
 716              		.loc 1 376 25 is_stmt 0 view .LVU253
 717 0068 0A22     		movs	r2, #10
 718              	.LVL55:
 376:Drivers/STM32F0xx_HAL_Driver/Src/stm32f0xx_hal_dma.c ****   		hdma->Instance->CCR &= ~DMA_IT_HT;
 719              		.loc 1 376 25 view .LVU254
 720 006a 2B68     		ldr	r3, [r5]
 721 006c 1343     		orrs	r3, r2
 722 006e 2B60     		str	r3, [r5]
 377:Drivers/STM32F0xx_HAL_Driver/Src/stm32f0xx_hal_dma.c ****   	}
 723              		.loc 1 377 5 is_stmt 1 view .LVU255
 377:Drivers/STM32F0xx_HAL_Driver/Src/stm32f0xx_hal_dma.c ****   	}
 724              		.loc 1 377 25 is_stmt 0 view .LVU256
 725 0070 2B68     		ldr	r3, [r5]
 726 0072 063A     		subs	r2, r2, #6
 727 0074 9343     		bics	r3, r2
 728 0076 2B60     		str	r3, [r5]
 729 0078 EBE7     		b	.L32
 730              	.LVL56:
 731              	.L33:
 353:Drivers/STM32F0xx_HAL_Driver/Src/stm32f0xx_hal_dma.c ****   
 732              		.loc 1 353 3 view .LVU257
 733 007a 0220     		movs	r0, #2
 734              	.LVL57:
 353:Drivers/STM32F0xx_HAL_Driver/Src/stm32f0xx_hal_dma.c ****   
 735              		.loc 1 353 3 view .LVU258
 736 007c CFE7     		b	.L27
ARM GAS  /tmp/ccjPiDbo.s 			page 33


 737              		.cfi_endproc
 738              	.LFE40:
 740 007e C046     		.section	.text.HAL_DMA_Abort,"ax",%progbits
 741              		.align	1
 742              		.p2align 2,,3
 743              		.global	HAL_DMA_Abort
 744              		.syntax unified
 745              		.code	16
 746              		.thumb_func
 747              		.fpu softvfp
 749              	HAL_DMA_Abort:
 750              	.LVL58:
 751              	.LFB41:
 402:Drivers/STM32F0xx_HAL_Driver/Src/stm32f0xx_hal_dma.c **** 	/* Disable DMA IT */
 752              		.loc 1 402 1 is_stmt 1 view -0
 753              		.cfi_startproc
 754              		@ args = 0, pretend = 0, frame = 0
 755              		@ frame_needed = 0, uses_anonymous_args = 0
 404:Drivers/STM32F0xx_HAL_Driver/Src/stm32f0xx_hal_dma.c **** 	
 756              		.loc 1 404 3 view .LVU260
 404:Drivers/STM32F0xx_HAL_Driver/Src/stm32f0xx_hal_dma.c **** 	
 757              		.loc 1 404 23 is_stmt 0 view .LVU261
 758 0000 0E21     		movs	r1, #14
 404:Drivers/STM32F0xx_HAL_Driver/Src/stm32f0xx_hal_dma.c **** 	
 759              		.loc 1 404 7 view .LVU262
 760 0002 0368     		ldr	r3, [r0]
 402:Drivers/STM32F0xx_HAL_Driver/Src/stm32f0xx_hal_dma.c **** 	/* Disable DMA IT */
 761              		.loc 1 402 1 view .LVU263
 762 0004 10B5     		push	{r4, lr}
 763              	.LCFI4:
 764              		.cfi_def_cfa_offset 8
 765              		.cfi_offset 4, -8
 766              		.cfi_offset 14, -4
 404:Drivers/STM32F0xx_HAL_Driver/Src/stm32f0xx_hal_dma.c **** 	
 767              		.loc 1 404 23 view .LVU264
 768 0006 1A68     		ldr	r2, [r3]
 410:Drivers/STM32F0xx_HAL_Driver/Src/stm32f0xx_hal_dma.c **** 	
 769              		.loc 1 410 45 view .LVU265
 770 0008 046C     		ldr	r4, [r0, #64]
 404:Drivers/STM32F0xx_HAL_Driver/Src/stm32f0xx_hal_dma.c **** 	
 771              		.loc 1 404 23 view .LVU266
 772 000a 8A43     		bics	r2, r1
 773 000c 1A60     		str	r2, [r3]
 407:Drivers/STM32F0xx_HAL_Driver/Src/stm32f0xx_hal_dma.c **** 	
 774              		.loc 1 407 2 is_stmt 1 view .LVU267
 407:Drivers/STM32F0xx_HAL_Driver/Src/stm32f0xx_hal_dma.c **** 	
 775              		.loc 1 407 22 is_stmt 0 view .LVU268
 776 000e 0122     		movs	r2, #1
 777 0010 1968     		ldr	r1, [r3]
 419:Drivers/STM32F0xx_HAL_Driver/Src/stm32f0xx_hal_dma.c **** 
 778              		.loc 1 419 1 view .LVU269
 779              		@ sp needed
 407:Drivers/STM32F0xx_HAL_Driver/Src/stm32f0xx_hal_dma.c **** 	
 780              		.loc 1 407 22 view .LVU270
 781 0012 9143     		bics	r1, r2
 782 0014 1960     		str	r1, [r3]
 410:Drivers/STM32F0xx_HAL_Driver/Src/stm32f0xx_hal_dma.c **** 	
ARM GAS  /tmp/ccjPiDbo.s 			page 34


 783              		.loc 1 410 2 is_stmt 1 view .LVU271
 410:Drivers/STM32F0xx_HAL_Driver/Src/stm32f0xx_hal_dma.c **** 	
 784              		.loc 1 410 45 is_stmt 0 view .LVU272
 785 0016 1100     		movs	r1, r2
 786 0018 A140     		lsls	r1, r1, r4
 410:Drivers/STM32F0xx_HAL_Driver/Src/stm32f0xx_hal_dma.c **** 	
 787              		.loc 1 410 6 view .LVU273
 788 001a C36B     		ldr	r3, [r0, #60]
 410:Drivers/STM32F0xx_HAL_Driver/Src/stm32f0xx_hal_dma.c **** 	
 789              		.loc 1 410 29 view .LVU274
 790 001c 5960     		str	r1, [r3, #4]
 413:Drivers/STM32F0xx_HAL_Driver/Src/stm32f0xx_hal_dma.c **** 	
 791              		.loc 1 413 2 is_stmt 1 view .LVU275
 413:Drivers/STM32F0xx_HAL_Driver/Src/stm32f0xx_hal_dma.c **** 	
 792              		.loc 1 413 14 is_stmt 0 view .LVU276
 793 001e 2123     		movs	r3, #33
 794 0020 C254     		strb	r2, [r0, r3]
 416:Drivers/STM32F0xx_HAL_Driver/Src/stm32f0xx_hal_dma.c **** 	
 795              		.loc 1 416 2 is_stmt 1 view .LVU277
 416:Drivers/STM32F0xx_HAL_Driver/Src/stm32f0xx_hal_dma.c **** 	
 796              		.loc 1 416 2 view .LVU278
 797 0022 0022     		movs	r2, #0
 798 0024 013B     		subs	r3, r3, #1
 799 0026 C254     		strb	r2, [r0, r3]
 418:Drivers/STM32F0xx_HAL_Driver/Src/stm32f0xx_hal_dma.c **** }
 800              		.loc 1 418 2 view .LVU279
 419:Drivers/STM32F0xx_HAL_Driver/Src/stm32f0xx_hal_dma.c **** 
 801              		.loc 1 419 1 is_stmt 0 view .LVU280
 802 0028 0020     		movs	r0, #0
 803              	.LVL59:
 419:Drivers/STM32F0xx_HAL_Driver/Src/stm32f0xx_hal_dma.c **** 
 804              		.loc 1 419 1 view .LVU281
 805 002a 10BD     		pop	{r4, pc}
 806              		.cfi_endproc
 807              	.LFE41:
 809              		.section	.text.HAL_DMA_Abort_IT,"ax",%progbits
 810              		.align	1
 811              		.p2align 2,,3
 812              		.global	HAL_DMA_Abort_IT
 813              		.syntax unified
 814              		.code	16
 815              		.thumb_func
 816              		.fpu softvfp
 818              	HAL_DMA_Abort_IT:
 819              	.LVL60:
 820              	.LFB42:
 428:Drivers/STM32F0xx_HAL_Driver/Src/stm32f0xx_hal_dma.c ****   HAL_StatusTypeDef status = HAL_OK;
 821              		.loc 1 428 1 is_stmt 1 view -0
 822              		.cfi_startproc
 823              		@ args = 0, pretend = 0, frame = 0
 824              		@ frame_needed = 0, uses_anonymous_args = 0
 429:Drivers/STM32F0xx_HAL_Driver/Src/stm32f0xx_hal_dma.c ****   
 825              		.loc 1 429 3 view .LVU283
 431:Drivers/STM32F0xx_HAL_Driver/Src/stm32f0xx_hal_dma.c ****   {
 826              		.loc 1 431 3 view .LVU284
 431:Drivers/STM32F0xx_HAL_Driver/Src/stm32f0xx_hal_dma.c ****   {
 827              		.loc 1 431 32 is_stmt 0 view .LVU285
ARM GAS  /tmp/ccjPiDbo.s 			page 35


 828 0000 2123     		movs	r3, #33
 428:Drivers/STM32F0xx_HAL_Driver/Src/stm32f0xx_hal_dma.c ****   HAL_StatusTypeDef status = HAL_OK;
 829              		.loc 1 428 1 view .LVU286
 830 0002 70B5     		push	{r4, r5, r6, lr}
 831              	.LCFI5:
 832              		.cfi_def_cfa_offset 16
 833              		.cfi_offset 4, -16
 834              		.cfi_offset 5, -12
 835              		.cfi_offset 6, -8
 836              		.cfi_offset 14, -4
 431:Drivers/STM32F0xx_HAL_Driver/Src/stm32f0xx_hal_dma.c ****   {
 837              		.loc 1 431 32 view .LVU287
 838 0004 C25C     		ldrb	r2, [r0, r3]
 431:Drivers/STM32F0xx_HAL_Driver/Src/stm32f0xx_hal_dma.c ****   {
 839              		.loc 1 431 5 view .LVU288
 840 0006 022A     		cmp	r2, #2
 841 0008 03D0     		beq	.L39
 434:Drivers/STM32F0xx_HAL_Driver/Src/stm32f0xx_hal_dma.c ****         
 842              		.loc 1 434 5 is_stmt 1 view .LVU289
 434:Drivers/STM32F0xx_HAL_Driver/Src/stm32f0xx_hal_dma.c ****         
 843              		.loc 1 434 21 is_stmt 0 view .LVU290
 844 000a 1D3B     		subs	r3, r3, #29
 845 000c 8363     		str	r3, [r0, #56]
 436:Drivers/STM32F0xx_HAL_Driver/Src/stm32f0xx_hal_dma.c ****   }
 846              		.loc 1 436 5 is_stmt 1 view .LVU291
 847              	.LVL61:
 436:Drivers/STM32F0xx_HAL_Driver/Src/stm32f0xx_hal_dma.c ****   }
 848              		.loc 1 436 12 is_stmt 0 view .LVU292
 849 000e 0120     		movs	r0, #1
 850              	.LVL62:
 851              	.L40:
 462:Drivers/STM32F0xx_HAL_Driver/Src/stm32f0xx_hal_dma.c **** }
 852              		.loc 1 462 3 is_stmt 1 view .LVU293
 463:Drivers/STM32F0xx_HAL_Driver/Src/stm32f0xx_hal_dma.c **** 
 853              		.loc 1 463 1 is_stmt 0 view .LVU294
 854              		@ sp needed
 855 0010 70BD     		pop	{r4, r5, r6, pc}
 856              	.LVL63:
 857              	.L39:
 442:Drivers/STM32F0xx_HAL_Driver/Src/stm32f0xx_hal_dma.c ****     
 858              		.loc 1 442 5 is_stmt 1 view .LVU295
 442:Drivers/STM32F0xx_HAL_Driver/Src/stm32f0xx_hal_dma.c ****     
 859              		.loc 1 442 25 is_stmt 0 view .LVU296
 860 0012 0E24     		movs	r4, #14
 442:Drivers/STM32F0xx_HAL_Driver/Src/stm32f0xx_hal_dma.c ****     
 861              		.loc 1 442 9 view .LVU297
 862 0014 0268     		ldr	r2, [r0]
 448:Drivers/STM32F0xx_HAL_Driver/Src/stm32f0xx_hal_dma.c ****     
 863              		.loc 1 448 47 view .LVU298
 864 0016 056C     		ldr	r5, [r0, #64]
 442:Drivers/STM32F0xx_HAL_Driver/Src/stm32f0xx_hal_dma.c ****     
 865              		.loc 1 442 25 view .LVU299
 866 0018 1168     		ldr	r1, [r2]
 867 001a A143     		bics	r1, r4
 868 001c 1160     		str	r1, [r2]
 445:Drivers/STM32F0xx_HAL_Driver/Src/stm32f0xx_hal_dma.c ****     
 869              		.loc 1 445 5 is_stmt 1 view .LVU300
ARM GAS  /tmp/ccjPiDbo.s 			page 36


 445:Drivers/STM32F0xx_HAL_Driver/Src/stm32f0xx_hal_dma.c ****     
 870              		.loc 1 445 25 is_stmt 0 view .LVU301
 871 001e 0121     		movs	r1, #1
 872 0020 1468     		ldr	r4, [r2]
 873 0022 8C43     		bics	r4, r1
 874 0024 1460     		str	r4, [r2]
 448:Drivers/STM32F0xx_HAL_Driver/Src/stm32f0xx_hal_dma.c ****     
 875              		.loc 1 448 5 is_stmt 1 view .LVU302
 448:Drivers/STM32F0xx_HAL_Driver/Src/stm32f0xx_hal_dma.c ****     
 876              		.loc 1 448 47 is_stmt 0 view .LVU303
 877 0026 0C00     		movs	r4, r1
 878 0028 AC40     		lsls	r4, r4, r5
 448:Drivers/STM32F0xx_HAL_Driver/Src/stm32f0xx_hal_dma.c ****     
 879              		.loc 1 448 9 view .LVU304
 880 002a C26B     		ldr	r2, [r0, #60]
 448:Drivers/STM32F0xx_HAL_Driver/Src/stm32f0xx_hal_dma.c ****     
 881              		.loc 1 448 32 view .LVU305
 882 002c 5460     		str	r4, [r2, #4]
 451:Drivers/STM32F0xx_HAL_Driver/Src/stm32f0xx_hal_dma.c ****     
 883              		.loc 1 451 5 is_stmt 1 view .LVU306
 451:Drivers/STM32F0xx_HAL_Driver/Src/stm32f0xx_hal_dma.c ****     
 884              		.loc 1 451 17 is_stmt 0 view .LVU307
 885 002e C154     		strb	r1, [r0, r3]
 454:Drivers/STM32F0xx_HAL_Driver/Src/stm32f0xx_hal_dma.c ****     
 886              		.loc 1 454 5 is_stmt 1 view .LVU308
 454:Drivers/STM32F0xx_HAL_Driver/Src/stm32f0xx_hal_dma.c ****     
 887              		.loc 1 454 5 view .LVU309
 888 0030 0022     		movs	r2, #0
 889 0032 2023     		movs	r3, #32
 890 0034 C254     		strb	r2, [r0, r3]
 457:Drivers/STM32F0xx_HAL_Driver/Src/stm32f0xx_hal_dma.c ****     {
 891              		.loc 1 457 5 view .LVU310
 457:Drivers/STM32F0xx_HAL_Driver/Src/stm32f0xx_hal_dma.c ****     {
 892              		.loc 1 457 12 is_stmt 0 view .LVU311
 893 0036 436B     		ldr	r3, [r0, #52]
 457:Drivers/STM32F0xx_HAL_Driver/Src/stm32f0xx_hal_dma.c ****     {
 894              		.loc 1 457 7 view .LVU312
 895 0038 002B     		cmp	r3, #0
 896 003a 02D0     		beq	.L41
 459:Drivers/STM32F0xx_HAL_Driver/Src/stm32f0xx_hal_dma.c ****     } 
 897              		.loc 1 459 7 is_stmt 1 view .LVU313
 898 003c 9847     		blx	r3
 899              	.LVL64:
 429:Drivers/STM32F0xx_HAL_Driver/Src/stm32f0xx_hal_dma.c ****   
 900              		.loc 1 429 21 is_stmt 0 view .LVU314
 901 003e 0020     		movs	r0, #0
 902 0040 E6E7     		b	.L40
 903              	.LVL65:
 904              	.L41:
 429:Drivers/STM32F0xx_HAL_Driver/Src/stm32f0xx_hal_dma.c ****   
 905              		.loc 1 429 21 view .LVU315
 906 0042 0020     		movs	r0, #0
 907              	.LVL66:
 429:Drivers/STM32F0xx_HAL_Driver/Src/stm32f0xx_hal_dma.c ****   
 908              		.loc 1 429 21 view .LVU316
 909 0044 E4E7     		b	.L40
 910              		.cfi_endproc
ARM GAS  /tmp/ccjPiDbo.s 			page 37


 911              	.LFE42:
 913 0046 C046     		.section	.text.HAL_DMA_PollForTransfer,"ax",%progbits
 914              		.align	1
 915              		.p2align 2,,3
 916              		.global	HAL_DMA_PollForTransfer
 917              		.syntax unified
 918              		.code	16
 919              		.thumb_func
 920              		.fpu softvfp
 922              	HAL_DMA_PollForTransfer:
 923              	.LVL67:
 924              	.LFB43:
 474:Drivers/STM32F0xx_HAL_Driver/Src/stm32f0xx_hal_dma.c ****   uint32_t temp;
 925              		.loc 1 474 1 is_stmt 1 view -0
 926              		.cfi_startproc
 927              		@ args = 0, pretend = 0, frame = 0
 928              		@ frame_needed = 0, uses_anonymous_args = 0
 475:Drivers/STM32F0xx_HAL_Driver/Src/stm32f0xx_hal_dma.c ****   uint32_t tickstart = 0U;
 929              		.loc 1 475 3 view .LVU318
 476:Drivers/STM32F0xx_HAL_Driver/Src/stm32f0xx_hal_dma.c ****   
 930              		.loc 1 476 3 view .LVU319
 478:Drivers/STM32F0xx_HAL_Driver/Src/stm32f0xx_hal_dma.c ****   {
 931              		.loc 1 478 3 view .LVU320
 474:Drivers/STM32F0xx_HAL_Driver/Src/stm32f0xx_hal_dma.c ****   uint32_t temp;
 932              		.loc 1 474 1 is_stmt 0 view .LVU321
 933 0000 F8B5     		push	{r3, r4, r5, r6, r7, lr}
 934              	.LCFI6:
 935              		.cfi_def_cfa_offset 24
 936              		.cfi_offset 3, -24
 937              		.cfi_offset 4, -20
 938              		.cfi_offset 5, -16
 939              		.cfi_offset 6, -12
 940              		.cfi_offset 7, -8
 941              		.cfi_offset 14, -4
 942 0002 4746     		mov	r7, r8
 943 0004 CE46     		mov	lr, r9
 478:Drivers/STM32F0xx_HAL_Driver/Src/stm32f0xx_hal_dma.c ****   {
 944              		.loc 1 478 32 view .LVU322
 945 0006 2123     		movs	r3, #33
 474:Drivers/STM32F0xx_HAL_Driver/Src/stm32f0xx_hal_dma.c ****   uint32_t temp;
 946              		.loc 1 474 1 view .LVU323
 947 0008 80B5     		push	{r7, lr}
 948              	.LCFI7:
 949              		.cfi_def_cfa_offset 32
 950              		.cfi_offset 8, -32
 951              		.cfi_offset 9, -28
 478:Drivers/STM32F0xx_HAL_Driver/Src/stm32f0xx_hal_dma.c ****   {
 952              		.loc 1 478 32 view .LVU324
 953 000a C45C     		ldrb	r4, [r0, r3]
 474:Drivers/STM32F0xx_HAL_Driver/Src/stm32f0xx_hal_dma.c ****   uint32_t temp;
 954              		.loc 1 474 1 view .LVU325
 955 000c 0500     		movs	r5, r0
 478:Drivers/STM32F0xx_HAL_Driver/Src/stm32f0xx_hal_dma.c ****   {
 956              		.loc 1 478 32 view .LVU326
 957 000e E4B2     		uxtb	r4, r4
 474:Drivers/STM32F0xx_HAL_Driver/Src/stm32f0xx_hal_dma.c ****   uint32_t temp;
 958              		.loc 1 474 1 view .LVU327
ARM GAS  /tmp/ccjPiDbo.s 			page 38


 959 0010 0E00     		movs	r6, r1
 960 0012 1700     		movs	r7, r2
 478:Drivers/STM32F0xx_HAL_Driver/Src/stm32f0xx_hal_dma.c ****   {
 961              		.loc 1 478 5 view .LVU328
 962 0014 022C     		cmp	r4, #2
 963 0016 09D0     		beq	.L43
 481:Drivers/STM32F0xx_HAL_Driver/Src/stm32f0xx_hal_dma.c ****     __HAL_UNLOCK(hdma);
 964              		.loc 1 481 5 is_stmt 1 view .LVU329
 482:Drivers/STM32F0xx_HAL_Driver/Src/stm32f0xx_hal_dma.c ****     return HAL_ERROR;
 965              		.loc 1 482 5 is_stmt 0 view .LVU330
 966 0018 0022     		movs	r2, #0
 967              	.LVL68:
 481:Drivers/STM32F0xx_HAL_Driver/Src/stm32f0xx_hal_dma.c ****     __HAL_UNLOCK(hdma);
 968              		.loc 1 481 21 view .LVU331
 969 001a 1D3B     		subs	r3, r3, #29
 970 001c 8363     		str	r3, [r0, #56]
 482:Drivers/STM32F0xx_HAL_Driver/Src/stm32f0xx_hal_dma.c ****     return HAL_ERROR;
 971              		.loc 1 482 5 is_stmt 1 view .LVU332
 482:Drivers/STM32F0xx_HAL_Driver/Src/stm32f0xx_hal_dma.c ****     return HAL_ERROR;
 972              		.loc 1 482 5 view .LVU333
 973 001e 1C33     		adds	r3, r3, #28
 974 0020 C254     		strb	r2, [r0, r3]
 483:Drivers/STM32F0xx_HAL_Driver/Src/stm32f0xx_hal_dma.c ****   }
 975              		.loc 1 483 5 view .LVU334
 483:Drivers/STM32F0xx_HAL_Driver/Src/stm32f0xx_hal_dma.c ****   }
 976              		.loc 1 483 12 is_stmt 0 view .LVU335
 977 0022 0120     		movs	r0, #1
 978              	.LVL69:
 979              	.L44:
 566:Drivers/STM32F0xx_HAL_Driver/Src/stm32f0xx_hal_dma.c **** 
 980              		.loc 1 566 1 view .LVU336
 981              		@ sp needed
 982              	.LVL70:
 983              	.LVL71:
 984              	.LVL72:
 566:Drivers/STM32F0xx_HAL_Driver/Src/stm32f0xx_hal_dma.c **** 
 985              		.loc 1 566 1 view .LVU337
 986 0024 0CBC     		pop	{r2, r3}
 987 0026 9046     		mov	r8, r2
 988 0028 9946     		mov	r9, r3
 989 002a F8BD     		pop	{r3, r4, r5, r6, r7, pc}
 990              	.LVL73:
 991              	.L43:
 487:Drivers/STM32F0xx_HAL_Driver/Src/stm32f0xx_hal_dma.c ****   {
 992              		.loc 1 487 3 is_stmt 1 view .LVU338
 487:Drivers/STM32F0xx_HAL_Driver/Src/stm32f0xx_hal_dma.c ****   {
 993              		.loc 1 487 21 is_stmt 0 view .LVU339
 994 002c 0368     		ldr	r3, [r0]
 487:Drivers/STM32F0xx_HAL_Driver/Src/stm32f0xx_hal_dma.c ****   {
 995              		.loc 1 487 31 view .LVU340
 996 002e 1B68     		ldr	r3, [r3]
 487:Drivers/STM32F0xx_HAL_Driver/Src/stm32f0xx_hal_dma.c ****   {
 997              		.loc 1 487 6 view .LVU341
 998 0030 9B06     		lsls	r3, r3, #26
 999 0032 24D4     		bmi	.L60
 494:Drivers/STM32F0xx_HAL_Driver/Src/stm32f0xx_hal_dma.c ****   {
 1000              		.loc 1 494 3 is_stmt 1 view .LVU342
ARM GAS  /tmp/ccjPiDbo.s 			page 39


 1001 0034 036C     		ldr	r3, [r0, #64]
 494:Drivers/STM32F0xx_HAL_Driver/Src/stm32f0xx_hal_dma.c ****   {
 1002              		.loc 1 494 5 is_stmt 0 view .LVU343
 1003 0036 0029     		cmp	r1, #0
 1004 0038 1FD1     		bne	.L46
 1005              	.L59:
 502:Drivers/STM32F0xx_HAL_Driver/Src/stm32f0xx_hal_dma.c ****   }
 1006              		.loc 1 502 10 view .LVU344
 1007 003a 9C40     		lsls	r4, r4, r3
 1008              	.LVL74:
 506:Drivers/STM32F0xx_HAL_Driver/Src/stm32f0xx_hal_dma.c **** 
 1009              		.loc 1 506 3 is_stmt 1 view .LVU345
 506:Drivers/STM32F0xx_HAL_Driver/Src/stm32f0xx_hal_dma.c **** 
 1010              		.loc 1 506 15 is_stmt 0 view .LVU346
 1011 003c FFF7FEFF 		bl	HAL_GetTick
 1012              	.LVL75:
 510:Drivers/STM32F0xx_HAL_Driver/Src/stm32f0xx_hal_dma.c ****     {      
 1013              		.loc 1 510 60 view .LVU347
 1014 0040 0823     		movs	r3, #8
 506:Drivers/STM32F0xx_HAL_Driver/Src/stm32f0xx_hal_dma.c **** 
 1015              		.loc 1 506 15 view .LVU348
 1016 0042 8146     		mov	r9, r0
 1017              	.LVL76:
 508:Drivers/STM32F0xx_HAL_Driver/Src/stm32f0xx_hal_dma.c ****   {
 1018              		.loc 1 508 3 is_stmt 1 view .LVU349
 510:Drivers/STM32F0xx_HAL_Driver/Src/stm32f0xx_hal_dma.c ****     {      
 1019              		.loc 1 510 60 is_stmt 0 view .LVU350
 1020 0044 9846     		mov	r8, r3
 1021              	.LVL77:
 1022              	.L48:
 508:Drivers/STM32F0xx_HAL_Driver/Src/stm32f0xx_hal_dma.c ****   {
 1023              		.loc 1 508 23 view .LVU351
 1024 0046 EB6B     		ldr	r3, [r5, #60]
 1025 0048 286C     		ldr	r0, [r5, #64]
 1026 004a 7A1C     		adds	r2, r7, #1
 1027 004c 1CD1     		bne	.L52
 510:Drivers/STM32F0xx_HAL_Driver/Src/stm32f0xx_hal_dma.c ****     {      
 1028              		.loc 1 510 60 view .LVU352
 1029 004e 0821     		movs	r1, #8
 1030 0050 8140     		lsls	r1, r1, r0
 1031 0052 02E0     		b	.L55
 1032              	.L61:
 510:Drivers/STM32F0xx_HAL_Driver/Src/stm32f0xx_hal_dma.c ****     {      
 1033              		.loc 1 510 5 is_stmt 1 view .LVU353
 510:Drivers/STM32F0xx_HAL_Driver/Src/stm32f0xx_hal_dma.c ****     {      
 1034              		.loc 1 510 38 is_stmt 0 view .LVU354
 1035 0054 1A68     		ldr	r2, [r3]
 510:Drivers/STM32F0xx_HAL_Driver/Src/stm32f0xx_hal_dma.c ****     {      
 1036              		.loc 1 510 7 view .LVU355
 1037 0056 0A42     		tst	r2, r1
 1038 0058 2FD1     		bne	.L54
 1039              	.L55:
 508:Drivers/STM32F0xx_HAL_Driver/Src/stm32f0xx_hal_dma.c ****   {
 1040              		.loc 1 508 39 view .LVU356
 1041 005a 1A68     		ldr	r2, [r3]
 508:Drivers/STM32F0xx_HAL_Driver/Src/stm32f0xx_hal_dma.c ****   {
 1042              		.loc 1 508 8 view .LVU357
ARM GAS  /tmp/ccjPiDbo.s 			page 40


 1043 005c 1442     		tst	r4, r2
 1044 005e F9D0     		beq	.L61
 1045              	.L53:
 547:Drivers/STM32F0xx_HAL_Driver/Src/stm32f0xx_hal_dma.c ****   {
 1046              		.loc 1 547 3 is_stmt 1 view .LVU358
 547:Drivers/STM32F0xx_HAL_Driver/Src/stm32f0xx_hal_dma.c ****   {
 1047              		.loc 1 547 5 is_stmt 0 view .LVU359
 1048 0060 002E     		cmp	r6, #0
 1049 0062 36D1     		bne	.L57
 550:Drivers/STM32F0xx_HAL_Driver/Src/stm32f0xx_hal_dma.c **** 
 1050              		.loc 1 550 5 is_stmt 1 view .LVU360
 550:Drivers/STM32F0xx_HAL_Driver/Src/stm32f0xx_hal_dma.c **** 
 1051              		.loc 1 550 47 is_stmt 0 view .LVU361
 1052 0064 0222     		movs	r2, #2
 1053 0066 8240     		lsls	r2, r2, r0
 550:Drivers/STM32F0xx_HAL_Driver/Src/stm32f0xx_hal_dma.c **** 
 1054              		.loc 1 550 32 view .LVU362
 1055 0068 5A60     		str	r2, [r3, #4]
 554:Drivers/STM32F0xx_HAL_Driver/Src/stm32f0xx_hal_dma.c ****   }
 1056              		.loc 1 554 5 is_stmt 1 view .LVU363
 554:Drivers/STM32F0xx_HAL_Driver/Src/stm32f0xx_hal_dma.c ****   }
 1057              		.loc 1 554 17 is_stmt 0 view .LVU364
 1058 006a 2123     		movs	r3, #33
 1059 006c 0122     		movs	r2, #1
 1060 006e EA54     		strb	r2, [r5, r3]
 1061              	.L58:
 563:Drivers/STM32F0xx_HAL_Driver/Src/stm32f0xx_hal_dma.c **** 
 1062              		.loc 1 563 3 is_stmt 1 view .LVU365
 563:Drivers/STM32F0xx_HAL_Driver/Src/stm32f0xx_hal_dma.c **** 
 1063              		.loc 1 563 3 view .LVU366
 1064 0070 2023     		movs	r3, #32
 1065 0072 0022     		movs	r2, #0
 565:Drivers/STM32F0xx_HAL_Driver/Src/stm32f0xx_hal_dma.c **** }
 1066              		.loc 1 565 10 is_stmt 0 view .LVU367
 1067 0074 0020     		movs	r0, #0
 563:Drivers/STM32F0xx_HAL_Driver/Src/stm32f0xx_hal_dma.c **** 
 1068              		.loc 1 563 3 view .LVU368
 1069 0076 EA54     		strb	r2, [r5, r3]
 565:Drivers/STM32F0xx_HAL_Driver/Src/stm32f0xx_hal_dma.c **** }
 1070              		.loc 1 565 3 is_stmt 1 view .LVU369
 565:Drivers/STM32F0xx_HAL_Driver/Src/stm32f0xx_hal_dma.c **** }
 1071              		.loc 1 565 10 is_stmt 0 view .LVU370
 1072 0078 D4E7     		b	.L44
 1073              	.LVL78:
 1074              	.L46:
 502:Drivers/STM32F0xx_HAL_Driver/Src/stm32f0xx_hal_dma.c ****   }
 1075              		.loc 1 502 5 is_stmt 1 view .LVU371
 502:Drivers/STM32F0xx_HAL_Driver/Src/stm32f0xx_hal_dma.c ****   }
 1076              		.loc 1 502 10 is_stmt 0 view .LVU372
 1077 007a 0424     		movs	r4, #4
 1078 007c DDE7     		b	.L59
 1079              	.L60:
 489:Drivers/STM32F0xx_HAL_Driver/Src/stm32f0xx_hal_dma.c ****     return HAL_ERROR;
 1080              		.loc 1 489 5 is_stmt 1 view .LVU373
 489:Drivers/STM32F0xx_HAL_Driver/Src/stm32f0xx_hal_dma.c ****     return HAL_ERROR;
 1081              		.loc 1 489 21 is_stmt 0 view .LVU374
 1082 007e 8023     		movs	r3, #128
ARM GAS  /tmp/ccjPiDbo.s 			page 41


 1083 0080 5B00     		lsls	r3, r3, #1
 1084 0082 8363     		str	r3, [r0, #56]
 490:Drivers/STM32F0xx_HAL_Driver/Src/stm32f0xx_hal_dma.c ****   }
 1085              		.loc 1 490 5 is_stmt 1 view .LVU375
 490:Drivers/STM32F0xx_HAL_Driver/Src/stm32f0xx_hal_dma.c ****   }
 1086              		.loc 1 490 12 is_stmt 0 view .LVU376
 1087 0084 0120     		movs	r0, #1
 1088              	.LVL79:
 490:Drivers/STM32F0xx_HAL_Driver/Src/stm32f0xx_hal_dma.c ****   }
 1089              		.loc 1 490 12 view .LVU377
 1090 0086 CDE7     		b	.L44
 1091              	.LVL80:
 1092              	.L52:
 508:Drivers/STM32F0xx_HAL_Driver/Src/stm32f0xx_hal_dma.c ****   {
 1093              		.loc 1 508 39 view .LVU378
 1094 0088 1A68     		ldr	r2, [r3]
 508:Drivers/STM32F0xx_HAL_Driver/Src/stm32f0xx_hal_dma.c ****   {
 1095              		.loc 1 508 8 view .LVU379
 1096 008a 1442     		tst	r4, r2
 1097 008c E8D1     		bne	.L53
 510:Drivers/STM32F0xx_HAL_Driver/Src/stm32f0xx_hal_dma.c ****     {      
 1098              		.loc 1 510 5 is_stmt 1 view .LVU380
 510:Drivers/STM32F0xx_HAL_Driver/Src/stm32f0xx_hal_dma.c ****     {      
 1099              		.loc 1 510 60 is_stmt 0 view .LVU381
 1100 008e 4246     		mov	r2, r8
 1101 0090 8240     		lsls	r2, r2, r0
 510:Drivers/STM32F0xx_HAL_Driver/Src/stm32f0xx_hal_dma.c ****     {      
 1102              		.loc 1 510 38 view .LVU382
 1103 0092 1968     		ldr	r1, [r3]
 510:Drivers/STM32F0xx_HAL_Driver/Src/stm32f0xx_hal_dma.c ****     {      
 1104              		.loc 1 510 7 view .LVU383
 1105 0094 1142     		tst	r1, r2
 1106 0096 10D1     		bne	.L54
 529:Drivers/STM32F0xx_HAL_Driver/Src/stm32f0xx_hal_dma.c ****     {
 1107              		.loc 1 529 5 is_stmt 1 view .LVU384
 531:Drivers/STM32F0xx_HAL_Driver/Src/stm32f0xx_hal_dma.c ****       {
 1108              		.loc 1 531 7 view .LVU385
 531:Drivers/STM32F0xx_HAL_Driver/Src/stm32f0xx_hal_dma.c ****       {
 1109              		.loc 1 531 9 is_stmt 0 view .LVU386
 1110 0098 002F     		cmp	r7, #0
 1111 009a 05D0     		beq	.L51
 531:Drivers/STM32F0xx_HAL_Driver/Src/stm32f0xx_hal_dma.c ****       {
 1112              		.loc 1 531 31 discriminator 1 view .LVU387
 1113 009c FFF7FEFF 		bl	HAL_GetTick
 1114              	.LVL81:
 531:Drivers/STM32F0xx_HAL_Driver/Src/stm32f0xx_hal_dma.c ****       {
 1115              		.loc 1 531 45 discriminator 1 view .LVU388
 1116 00a0 4B46     		mov	r3, r9
 1117 00a2 C01A     		subs	r0, r0, r3
 531:Drivers/STM32F0xx_HAL_Driver/Src/stm32f0xx_hal_dma.c ****       {
 1118              		.loc 1 531 26 discriminator 1 view .LVU389
 1119 00a4 B842     		cmp	r0, r7
 1120 00a6 CED9     		bls	.L48
 1121              	.L51:
 534:Drivers/STM32F0xx_HAL_Driver/Src/stm32f0xx_hal_dma.c ****         
 1122              		.loc 1 534 9 is_stmt 1 view .LVU390
 534:Drivers/STM32F0xx_HAL_Driver/Src/stm32f0xx_hal_dma.c ****         
ARM GAS  /tmp/ccjPiDbo.s 			page 42


 1123              		.loc 1 534 25 is_stmt 0 view .LVU391
 1124 00a8 2023     		movs	r3, #32
 537:Drivers/STM32F0xx_HAL_Driver/Src/stm32f0xx_hal_dma.c **** 
 1125              		.loc 1 537 21 view .LVU392
 1126 00aa 2122     		movs	r2, #33
 1127 00ac 0121     		movs	r1, #1
 534:Drivers/STM32F0xx_HAL_Driver/Src/stm32f0xx_hal_dma.c ****         
 1128              		.loc 1 534 25 view .LVU393
 1129 00ae AB63     		str	r3, [r5, #56]
 537:Drivers/STM32F0xx_HAL_Driver/Src/stm32f0xx_hal_dma.c **** 
 1130              		.loc 1 537 9 is_stmt 1 view .LVU394
 537:Drivers/STM32F0xx_HAL_Driver/Src/stm32f0xx_hal_dma.c **** 
 1131              		.loc 1 537 21 is_stmt 0 view .LVU395
 1132 00b0 A954     		strb	r1, [r5, r2]
 540:Drivers/STM32F0xx_HAL_Driver/Src/stm32f0xx_hal_dma.c **** 
 1133              		.loc 1 540 9 is_stmt 1 view .LVU396
 540:Drivers/STM32F0xx_HAL_Driver/Src/stm32f0xx_hal_dma.c **** 
 1134              		.loc 1 540 9 view .LVU397
 1135 00b2 0022     		movs	r2, #0
 542:Drivers/STM32F0xx_HAL_Driver/Src/stm32f0xx_hal_dma.c ****       }
 1136              		.loc 1 542 16 is_stmt 0 view .LVU398
 1137 00b4 0120     		movs	r0, #1
 540:Drivers/STM32F0xx_HAL_Driver/Src/stm32f0xx_hal_dma.c **** 
 1138              		.loc 1 540 9 view .LVU399
 1139 00b6 EA54     		strb	r2, [r5, r3]
 542:Drivers/STM32F0xx_HAL_Driver/Src/stm32f0xx_hal_dma.c ****       }
 1140              		.loc 1 542 9 is_stmt 1 view .LVU400
 542:Drivers/STM32F0xx_HAL_Driver/Src/stm32f0xx_hal_dma.c ****       }
 1141              		.loc 1 542 16 is_stmt 0 view .LVU401
 1142 00b8 B4E7     		b	.L44
 1143              	.L54:
 515:Drivers/STM32F0xx_HAL_Driver/Src/stm32f0xx_hal_dma.c ****       
 1144              		.loc 1 515 7 is_stmt 1 view .LVU402
 515:Drivers/STM32F0xx_HAL_Driver/Src/stm32f0xx_hal_dma.c ****       
 1145              		.loc 1 515 49 is_stmt 0 view .LVU403
 1146 00ba 0122     		movs	r2, #1
 1147 00bc 1100     		movs	r1, r2
 1148 00be 8140     		lsls	r1, r1, r0
 515:Drivers/STM32F0xx_HAL_Driver/Src/stm32f0xx_hal_dma.c ****       
 1149              		.loc 1 515 34 view .LVU404
 1150 00c0 5960     		str	r1, [r3, #4]
 518:Drivers/STM32F0xx_HAL_Driver/Src/stm32f0xx_hal_dma.c **** 
 1151              		.loc 1 518 7 is_stmt 1 view .LVU405
 521:Drivers/STM32F0xx_HAL_Driver/Src/stm32f0xx_hal_dma.c ****       
 1152              		.loc 1 521 18 is_stmt 0 view .LVU406
 1153 00c2 2123     		movs	r3, #33
 518:Drivers/STM32F0xx_HAL_Driver/Src/stm32f0xx_hal_dma.c **** 
 1154              		.loc 1 518 23 view .LVU407
 1155 00c4 AA63     		str	r2, [r5, #56]
 521:Drivers/STM32F0xx_HAL_Driver/Src/stm32f0xx_hal_dma.c ****       
 1156              		.loc 1 521 7 is_stmt 1 view .LVU408
 521:Drivers/STM32F0xx_HAL_Driver/Src/stm32f0xx_hal_dma.c ****       
 1157              		.loc 1 521 18 is_stmt 0 view .LVU409
 1158 00c6 EA54     		strb	r2, [r5, r3]
 524:Drivers/STM32F0xx_HAL_Driver/Src/stm32f0xx_hal_dma.c ****       
 1159              		.loc 1 524 7 is_stmt 1 view .LVU410
 524:Drivers/STM32F0xx_HAL_Driver/Src/stm32f0xx_hal_dma.c ****       
ARM GAS  /tmp/ccjPiDbo.s 			page 43


 1160              		.loc 1 524 7 view .LVU411
 1161 00c8 0022     		movs	r2, #0
 1162 00ca 013B     		subs	r3, r3, #1
 1163 00cc EA54     		strb	r2, [r5, r3]
 526:Drivers/STM32F0xx_HAL_Driver/Src/stm32f0xx_hal_dma.c ****     }      
 1164              		.loc 1 526 7 view .LVU412
 526:Drivers/STM32F0xx_HAL_Driver/Src/stm32f0xx_hal_dma.c ****     }      
 1165              		.loc 1 526 14 is_stmt 0 view .LVU413
 1166 00ce 0120     		movs	r0, #1
 1167 00d0 A8E7     		b	.L44
 1168              	.L57:
 559:Drivers/STM32F0xx_HAL_Driver/Src/stm32f0xx_hal_dma.c ****   }
 1169              		.loc 1 559 5 is_stmt 1 view .LVU414
 559:Drivers/STM32F0xx_HAL_Driver/Src/stm32f0xx_hal_dma.c ****   }
 1170              		.loc 1 559 47 is_stmt 0 view .LVU415
 1171 00d2 0422     		movs	r2, #4
 1172 00d4 8240     		lsls	r2, r2, r0
 559:Drivers/STM32F0xx_HAL_Driver/Src/stm32f0xx_hal_dma.c ****   }
 1173              		.loc 1 559 32 view .LVU416
 1174 00d6 5A60     		str	r2, [r3, #4]
 1175 00d8 CAE7     		b	.L58
 1176              		.cfi_endproc
 1177              	.LFE43:
 1179 00da C046     		.section	.text.HAL_DMA_IRQHandler,"ax",%progbits
 1180              		.align	1
 1181              		.p2align 2,,3
 1182              		.global	HAL_DMA_IRQHandler
 1183              		.syntax unified
 1184              		.code	16
 1185              		.thumb_func
 1186              		.fpu softvfp
 1188              	HAL_DMA_IRQHandler:
 1189              	.LVL82:
 1190              	.LFB44:
 575:Drivers/STM32F0xx_HAL_Driver/Src/stm32f0xx_hal_dma.c **** 	uint32_t flag_it = hdma->DmaBaseAddress->ISR;
 1191              		.loc 1 575 1 is_stmt 1 view -0
 1192              		.cfi_startproc
 1193              		@ args = 0, pretend = 0, frame = 0
 1194              		@ frame_needed = 0, uses_anonymous_args = 0
 576:Drivers/STM32F0xx_HAL_Driver/Src/stm32f0xx_hal_dma.c ****   uint32_t source_it = hdma->Instance->CCR;
 1195              		.loc 1 576 2 view .LVU418
 575:Drivers/STM32F0xx_HAL_Driver/Src/stm32f0xx_hal_dma.c **** 	uint32_t flag_it = hdma->DmaBaseAddress->ISR;
 1196              		.loc 1 575 1 is_stmt 0 view .LVU419
 1197 0000 F8B5     		push	{r3, r4, r5, r6, r7, lr}
 1198              	.LCFI8:
 1199              		.cfi_def_cfa_offset 24
 1200              		.cfi_offset 3, -24
 1201              		.cfi_offset 4, -20
 1202              		.cfi_offset 5, -16
 1203              		.cfi_offset 6, -12
 1204              		.cfi_offset 7, -8
 1205              		.cfi_offset 14, -4
 580:Drivers/STM32F0xx_HAL_Driver/Src/stm32f0xx_hal_dma.c ****   {
 1206              		.loc 1 580 42 view .LVU420
 1207 0002 0424     		movs	r4, #4
 1208 0004 2600     		movs	r6, r4
 580:Drivers/STM32F0xx_HAL_Driver/Src/stm32f0xx_hal_dma.c ****   {
ARM GAS  /tmp/ccjPiDbo.s 			page 44


 1209              		.loc 1 580 49 view .LVU421
 1210 0006 036C     		ldr	r3, [r0, #64]
 576:Drivers/STM32F0xx_HAL_Driver/Src/stm32f0xx_hal_dma.c ****   uint32_t source_it = hdma->Instance->CCR;
 1211              		.loc 1 576 25 view .LVU422
 1212 0008 C56B     		ldr	r5, [r0, #60]
 580:Drivers/STM32F0xx_HAL_Driver/Src/stm32f0xx_hal_dma.c ****   {
 1213              		.loc 1 580 42 view .LVU423
 1214 000a 9E40     		lsls	r6, r6, r3
 576:Drivers/STM32F0xx_HAL_Driver/Src/stm32f0xx_hal_dma.c ****   uint32_t source_it = hdma->Instance->CCR;
 1215              		.loc 1 576 11 view .LVU424
 1216 000c 2A68     		ldr	r2, [r5]
 1217              	.LVL83:
 577:Drivers/STM32F0xx_HAL_Driver/Src/stm32f0xx_hal_dma.c ****           
 1218              		.loc 1 577 3 is_stmt 1 view .LVU425
 577:Drivers/STM32F0xx_HAL_Driver/Src/stm32f0xx_hal_dma.c ****           
 1219              		.loc 1 577 28 is_stmt 0 view .LVU426
 1220 000e 0168     		ldr	r1, [r0]
 577:Drivers/STM32F0xx_HAL_Driver/Src/stm32f0xx_hal_dma.c ****           
 1221              		.loc 1 577 12 view .LVU427
 1222 0010 0F68     		ldr	r7, [r1]
 1223              	.LVL84:
 580:Drivers/STM32F0xx_HAL_Driver/Src/stm32f0xx_hal_dma.c ****   {
 1224              		.loc 1 580 3 is_stmt 1 view .LVU428
 580:Drivers/STM32F0xx_HAL_Driver/Src/stm32f0xx_hal_dma.c ****   {
 1225              		.loc 1 580 6 is_stmt 0 view .LVU429
 1226 0012 3242     		tst	r2, r6
 1227 0014 0DD0     		beq	.L63
 580:Drivers/STM32F0xx_HAL_Driver/Src/stm32f0xx_hal_dma.c ****   {
 1228              		.loc 1 580 67 discriminator 1 view .LVU430
 1229 0016 3C42     		tst	r4, r7
 1230 0018 0BD0     		beq	.L63
 583:Drivers/STM32F0xx_HAL_Driver/Src/stm32f0xx_hal_dma.c ****   	{
 1231              		.loc 1 583 4 is_stmt 1 view .LVU431
 583:Drivers/STM32F0xx_HAL_Driver/Src/stm32f0xx_hal_dma.c ****   	{
 1232              		.loc 1 583 22 is_stmt 0 view .LVU432
 1233 001a 0B68     		ldr	r3, [r1]
 583:Drivers/STM32F0xx_HAL_Driver/Src/stm32f0xx_hal_dma.c ****   	{
 1234              		.loc 1 583 6 view .LVU433
 1235 001c 9B06     		lsls	r3, r3, #26
 1236 001e 02D4     		bmi	.L64
 586:Drivers/STM32F0xx_HAL_Driver/Src/stm32f0xx_hal_dma.c ****   	}
 1237              		.loc 1 586 5 is_stmt 1 view .LVU434
 586:Drivers/STM32F0xx_HAL_Driver/Src/stm32f0xx_hal_dma.c ****   	}
 1238              		.loc 1 586 25 is_stmt 0 view .LVU435
 1239 0020 0B68     		ldr	r3, [r1]
 1240 0022 A343     		bics	r3, r4
 1241 0024 0B60     		str	r3, [r1]
 1242              	.L64:
 590:Drivers/STM32F0xx_HAL_Driver/Src/stm32f0xx_hal_dma.c ****   	
 1243              		.loc 1 590 4 is_stmt 1 view .LVU436
 595:Drivers/STM32F0xx_HAL_Driver/Src/stm32f0xx_hal_dma.c ****   	{
 1244              		.loc 1 595 11 is_stmt 0 view .LVU437
 1245 0026 C36A     		ldr	r3, [r0, #44]
 590:Drivers/STM32F0xx_HAL_Driver/Src/stm32f0xx_hal_dma.c ****   	
 1246              		.loc 1 590 31 view .LVU438
 1247 0028 6E60     		str	r6, [r5, #4]
 595:Drivers/STM32F0xx_HAL_Driver/Src/stm32f0xx_hal_dma.c ****   	{
ARM GAS  /tmp/ccjPiDbo.s 			page 45


 1248              		.loc 1 595 4 is_stmt 1 view .LVU439
 595:Drivers/STM32F0xx_HAL_Driver/Src/stm32f0xx_hal_dma.c ****   	{
 1249              		.loc 1 595 6 is_stmt 0 view .LVU440
 1250 002a 002B     		cmp	r3, #0
 1251 002c 00D0     		beq	.L62
 651:Drivers/STM32F0xx_HAL_Driver/Src/stm32f0xx_hal_dma.c ****     }
 1252              		.loc 1 651 6 is_stmt 1 view .LVU441
 1253 002e 9847     		blx	r3
 1254              	.LVL85:
 1255              	.L62:
 654:Drivers/STM32F0xx_HAL_Driver/Src/stm32f0xx_hal_dma.c **** 
 1256              		.loc 1 654 1 is_stmt 0 view .LVU442
 1257              		@ sp needed
 1258              	.LVL86:
 654:Drivers/STM32F0xx_HAL_Driver/Src/stm32f0xx_hal_dma.c **** 
 1259              		.loc 1 654 1 view .LVU443
 1260 0030 F8BD     		pop	{r3, r4, r5, r6, r7, pc}
 1261              	.LVL87:
 1262              	.L63:
 603:Drivers/STM32F0xx_HAL_Driver/Src/stm32f0xx_hal_dma.c ****   {
 1263              		.loc 1 603 8 is_stmt 1 view .LVU444
 603:Drivers/STM32F0xx_HAL_Driver/Src/stm32f0xx_hal_dma.c ****   {
 1264              		.loc 1 603 47 is_stmt 0 view .LVU445
 1265 0032 0224     		movs	r4, #2
 1266 0034 2600     		movs	r6, r4
 1267 0036 9E40     		lsls	r6, r6, r3
 603:Drivers/STM32F0xx_HAL_Driver/Src/stm32f0xx_hal_dma.c ****   {
 1268              		.loc 1 603 11 view .LVU446
 1269 0038 3242     		tst	r2, r6
 1270 003a 14D0     		beq	.L67
 603:Drivers/STM32F0xx_HAL_Driver/Src/stm32f0xx_hal_dma.c ****   {
 1271              		.loc 1 603 72 discriminator 1 view .LVU447
 1272 003c 3C42     		tst	r4, r7
 1273 003e 12D0     		beq	.L67
 605:Drivers/STM32F0xx_HAL_Driver/Src/stm32f0xx_hal_dma.c ****   	{
 1274              		.loc 1 605 4 is_stmt 1 view .LVU448
 605:Drivers/STM32F0xx_HAL_Driver/Src/stm32f0xx_hal_dma.c ****   	{
 1275              		.loc 1 605 22 is_stmt 0 view .LVU449
 1276 0040 0B68     		ldr	r3, [r1]
 605:Drivers/STM32F0xx_HAL_Driver/Src/stm32f0xx_hal_dma.c ****   	{
 1277              		.loc 1 605 6 view .LVU450
 1278 0042 9B06     		lsls	r3, r3, #26
 1279 0044 06D4     		bmi	.L68
 609:Drivers/STM32F0xx_HAL_Driver/Src/stm32f0xx_hal_dma.c ****   		
 1280              		.loc 1 609 5 is_stmt 1 view .LVU451
 609:Drivers/STM32F0xx_HAL_Driver/Src/stm32f0xx_hal_dma.c ****   		
 1281              		.loc 1 609 25 is_stmt 0 view .LVU452
 1282 0046 0A22     		movs	r2, #10
 1283              	.LVL88:
 609:Drivers/STM32F0xx_HAL_Driver/Src/stm32f0xx_hal_dma.c ****   		
 1284              		.loc 1 609 25 view .LVU453
 1285 0048 0B68     		ldr	r3, [r1]
 1286 004a 9343     		bics	r3, r2
 1287 004c 0B60     		str	r3, [r1]
 612:Drivers/STM32F0xx_HAL_Driver/Src/stm32f0xx_hal_dma.c ****   	}
 1288              		.loc 1 612 5 is_stmt 1 view .LVU454
 612:Drivers/STM32F0xx_HAL_Driver/Src/stm32f0xx_hal_dma.c ****   	}
ARM GAS  /tmp/ccjPiDbo.s 			page 46


 1289              		.loc 1 612 17 is_stmt 0 view .LVU455
 1290 004e 2123     		movs	r3, #33
 1291 0050 093A     		subs	r2, r2, #9
 1292 0052 C254     		strb	r2, [r0, r3]
 1293              	.L68:
 616:Drivers/STM32F0xx_HAL_Driver/Src/stm32f0xx_hal_dma.c ****   	
 1294              		.loc 1 616 4 is_stmt 1 view .LVU456
 619:Drivers/STM32F0xx_HAL_Driver/Src/stm32f0xx_hal_dma.c ****   	
 1295              		.loc 1 619 4 is_stmt 0 view .LVU457
 1296 0054 2023     		movs	r3, #32
 1297 0056 0022     		movs	r2, #0
 616:Drivers/STM32F0xx_HAL_Driver/Src/stm32f0xx_hal_dma.c ****   	
 1298              		.loc 1 616 31 view .LVU458
 1299 0058 6E60     		str	r6, [r5, #4]
 619:Drivers/STM32F0xx_HAL_Driver/Src/stm32f0xx_hal_dma.c ****   	
 1300              		.loc 1 619 4 is_stmt 1 view .LVU459
 619:Drivers/STM32F0xx_HAL_Driver/Src/stm32f0xx_hal_dma.c ****   	
 1301              		.loc 1 619 4 view .LVU460
 1302 005a C254     		strb	r2, [r0, r3]
 621:Drivers/STM32F0xx_HAL_Driver/Src/stm32f0xx_hal_dma.c ****   	{
 1303              		.loc 1 621 4 view .LVU461
 621:Drivers/STM32F0xx_HAL_Driver/Src/stm32f0xx_hal_dma.c ****   	{
 1304              		.loc 1 621 11 is_stmt 0 view .LVU462
 1305 005c 836A     		ldr	r3, [r0, #40]
 621:Drivers/STM32F0xx_HAL_Driver/Src/stm32f0xx_hal_dma.c ****   	{
 1306              		.loc 1 621 6 view .LVU463
 1307 005e 002B     		cmp	r3, #0
 1308 0060 E6D0     		beq	.L62
 651:Drivers/STM32F0xx_HAL_Driver/Src/stm32f0xx_hal_dma.c ****     }
 1309              		.loc 1 651 6 is_stmt 1 view .LVU464
 1310 0062 9847     		blx	r3
 1311              	.LVL89:
 651:Drivers/STM32F0xx_HAL_Driver/Src/stm32f0xx_hal_dma.c ****     }
 1312              		.loc 1 651 6 is_stmt 0 view .LVU465
 1313 0064 E4E7     		b	.L62
 1314              	.LVL90:
 1315              	.L67:
 629:Drivers/STM32F0xx_HAL_Driver/Src/stm32f0xx_hal_dma.c ****   {
 1316              		.loc 1 629 8 is_stmt 1 view .LVU466
 629:Drivers/STM32F0xx_HAL_Driver/Src/stm32f0xx_hal_dma.c ****   {
 1317              		.loc 1 629 48 is_stmt 0 view .LVU467
 1318 0066 0824     		movs	r4, #8
 1319 0068 2600     		movs	r6, r4
 1320 006a 9E40     		lsls	r6, r6, r3
 629:Drivers/STM32F0xx_HAL_Driver/Src/stm32f0xx_hal_dma.c ****   {
 1321              		.loc 1 629 11 view .LVU468
 1322 006c 3242     		tst	r2, r6
 1323 006e DFD0     		beq	.L62
 629:Drivers/STM32F0xx_HAL_Driver/Src/stm32f0xx_hal_dma.c ****   {
 1324              		.loc 1 629 73 discriminator 1 view .LVU469
 1325 0070 3C42     		tst	r4, r7
 1326 0072 DDD0     		beq	.L62
 634:Drivers/STM32F0xx_HAL_Driver/Src/stm32f0xx_hal_dma.c ****     
 1327              		.loc 1 634 5 is_stmt 1 view .LVU470
 634:Drivers/STM32F0xx_HAL_Driver/Src/stm32f0xx_hal_dma.c ****     
 1328              		.loc 1 634 25 is_stmt 0 view .LVU471
 1329 0074 0A68     		ldr	r2, [r1]
ARM GAS  /tmp/ccjPiDbo.s 			page 47


 1330              	.LVL91:
 634:Drivers/STM32F0xx_HAL_Driver/Src/stm32f0xx_hal_dma.c ****     
 1331              		.loc 1 634 25 view .LVU472
 1332 0076 0634     		adds	r4, r4, #6
 1333 0078 A243     		bics	r2, r4
 1334 007a 0A60     		str	r2, [r1]
 637:Drivers/STM32F0xx_HAL_Driver/Src/stm32f0xx_hal_dma.c ****     
 1335              		.loc 1 637 5 is_stmt 1 view .LVU473
 637:Drivers/STM32F0xx_HAL_Driver/Src/stm32f0xx_hal_dma.c ****     
 1336              		.loc 1 637 47 is_stmt 0 view .LVU474
 1337 007c 0122     		movs	r2, #1
 1338 007e 1100     		movs	r1, r2
 1339 0080 9940     		lsls	r1, r1, r3
 643:Drivers/STM32F0xx_HAL_Driver/Src/stm32f0xx_hal_dma.c ****     
 1340              		.loc 1 643 17 view .LVU475
 1341 0082 2123     		movs	r3, #33
 637:Drivers/STM32F0xx_HAL_Driver/Src/stm32f0xx_hal_dma.c ****     
 1342              		.loc 1 637 32 view .LVU476
 1343 0084 6960     		str	r1, [r5, #4]
 640:Drivers/STM32F0xx_HAL_Driver/Src/stm32f0xx_hal_dma.c ****     
 1344              		.loc 1 640 5 is_stmt 1 view .LVU477
 640:Drivers/STM32F0xx_HAL_Driver/Src/stm32f0xx_hal_dma.c ****     
 1345              		.loc 1 640 21 is_stmt 0 view .LVU478
 1346 0086 8263     		str	r2, [r0, #56]
 643:Drivers/STM32F0xx_HAL_Driver/Src/stm32f0xx_hal_dma.c ****     
 1347              		.loc 1 643 5 is_stmt 1 view .LVU479
 643:Drivers/STM32F0xx_HAL_Driver/Src/stm32f0xx_hal_dma.c ****     
 1348              		.loc 1 643 17 is_stmt 0 view .LVU480
 1349 0088 C254     		strb	r2, [r0, r3]
 646:Drivers/STM32F0xx_HAL_Driver/Src/stm32f0xx_hal_dma.c ****     
 1350              		.loc 1 646 5 is_stmt 1 view .LVU481
 646:Drivers/STM32F0xx_HAL_Driver/Src/stm32f0xx_hal_dma.c ****     
 1351              		.loc 1 646 5 view .LVU482
 1352 008a 0022     		movs	r2, #0
 1353 008c 013B     		subs	r3, r3, #1
 1354 008e C254     		strb	r2, [r0, r3]
 648:Drivers/STM32F0xx_HAL_Driver/Src/stm32f0xx_hal_dma.c ****     {
 1355              		.loc 1 648 5 view .LVU483
 648:Drivers/STM32F0xx_HAL_Driver/Src/stm32f0xx_hal_dma.c ****     {
 1356              		.loc 1 648 12 is_stmt 0 view .LVU484
 1357 0090 036B     		ldr	r3, [r0, #48]
 648:Drivers/STM32F0xx_HAL_Driver/Src/stm32f0xx_hal_dma.c ****     {
 1358              		.loc 1 648 7 view .LVU485
 1359 0092 002B     		cmp	r3, #0
 1360 0094 CCD0     		beq	.L62
 651:Drivers/STM32F0xx_HAL_Driver/Src/stm32f0xx_hal_dma.c ****     }
 1361              		.loc 1 651 6 is_stmt 1 view .LVU486
 1362 0096 9847     		blx	r3
 1363              	.LVL92:
 651:Drivers/STM32F0xx_HAL_Driver/Src/stm32f0xx_hal_dma.c ****     }
 1364              		.loc 1 651 6 is_stmt 0 view .LVU487
 1365 0098 CAE7     		b	.L62
 1366              		.cfi_endproc
 1367              	.LFE44:
 1369 009a C046     		.section	.text.HAL_DMA_RegisterCallback,"ax",%progbits
 1370              		.align	1
 1371              		.p2align 2,,3
ARM GAS  /tmp/ccjPiDbo.s 			page 48


 1372              		.global	HAL_DMA_RegisterCallback
 1373              		.syntax unified
 1374              		.code	16
 1375              		.thumb_func
 1376              		.fpu softvfp
 1378              	HAL_DMA_RegisterCallback:
 1379              	.LVL93:
 1380              	.LFB45:
 667:Drivers/STM32F0xx_HAL_Driver/Src/stm32f0xx_hal_dma.c ****   HAL_StatusTypeDef status = HAL_OK;
 1381              		.loc 1 667 1 is_stmt 1 view -0
 1382              		.cfi_startproc
 1383              		@ args = 0, pretend = 0, frame = 0
 1384              		@ frame_needed = 0, uses_anonymous_args = 0
 668:Drivers/STM32F0xx_HAL_Driver/Src/stm32f0xx_hal_dma.c ****   
 1385              		.loc 1 668 3 view .LVU489
 671:Drivers/STM32F0xx_HAL_Driver/Src/stm32f0xx_hal_dma.c ****   
 1386              		.loc 1 671 3 view .LVU490
 671:Drivers/STM32F0xx_HAL_Driver/Src/stm32f0xx_hal_dma.c ****   
 1387              		.loc 1 671 3 view .LVU491
 667:Drivers/STM32F0xx_HAL_Driver/Src/stm32f0xx_hal_dma.c ****   HAL_StatusTypeDef status = HAL_OK;
 1388              		.loc 1 667 1 is_stmt 0 view .LVU492
 1389 0000 0300     		movs	r3, r0
 671:Drivers/STM32F0xx_HAL_Driver/Src/stm32f0xx_hal_dma.c ****   
 1390              		.loc 1 671 3 view .LVU493
 1391 0002 2020     		movs	r0, #32
 1392              	.LVL94:
 667:Drivers/STM32F0xx_HAL_Driver/Src/stm32f0xx_hal_dma.c ****   HAL_StatusTypeDef status = HAL_OK;
 1393              		.loc 1 667 1 view .LVU494
 1394 0004 10B5     		push	{r4, lr}
 1395              	.LCFI9:
 1396              		.cfi_def_cfa_offset 8
 1397              		.cfi_offset 4, -8
 1398              		.cfi_offset 14, -4
 671:Drivers/STM32F0xx_HAL_Driver/Src/stm32f0xx_hal_dma.c ****   
 1399              		.loc 1 671 3 view .LVU495
 1400 0006 1C5C     		ldrb	r4, [r3, r0]
 1401 0008 012C     		cmp	r4, #1
 1402 000a 18D0     		beq	.L102
 671:Drivers/STM32F0xx_HAL_Driver/Src/stm32f0xx_hal_dma.c ****   
 1403              		.loc 1 671 3 is_stmt 1 discriminator 2 view .LVU496
 1404 000c 0124     		movs	r4, #1
 1405 000e 1C54     		strb	r4, [r3, r0]
 673:Drivers/STM32F0xx_HAL_Driver/Src/stm32f0xx_hal_dma.c ****   {
 1406              		.loc 1 673 3 discriminator 2 view .LVU497
 673:Drivers/STM32F0xx_HAL_Driver/Src/stm32f0xx_hal_dma.c ****   {
 1407              		.loc 1 673 33 is_stmt 0 discriminator 2 view .LVU498
 1408 0010 0130     		adds	r0, r0, #1
 1409 0012 1C5C     		ldrb	r4, [r3, r0]
 700:Drivers/STM32F0xx_HAL_Driver/Src/stm32f0xx_hal_dma.c ****   } 
 1410              		.loc 1 700 12 discriminator 2 view .LVU499
 1411 0014 2038     		subs	r0, r0, #32
 673:Drivers/STM32F0xx_HAL_Driver/Src/stm32f0xx_hal_dma.c ****   {
 1412              		.loc 1 673 5 discriminator 2 view .LVU500
 1413 0016 012C     		cmp	r4, #1
 1414 0018 03D0     		beq	.L104
 1415              	.L97:
 1416              	.LVL95:
ARM GAS  /tmp/ccjPiDbo.s 			page 49


 704:Drivers/STM32F0xx_HAL_Driver/Src/stm32f0xx_hal_dma.c ****   
 1417              		.loc 1 704 3 is_stmt 1 view .LVU501
 704:Drivers/STM32F0xx_HAL_Driver/Src/stm32f0xx_hal_dma.c ****   
 1418              		.loc 1 704 3 view .LVU502
 1419 001a 2022     		movs	r2, #32
 1420              	.LVL96:
 704:Drivers/STM32F0xx_HAL_Driver/Src/stm32f0xx_hal_dma.c ****   
 1421              		.loc 1 704 3 is_stmt 0 view .LVU503
 1422 001c 0021     		movs	r1, #0
 1423              	.LVL97:
 704:Drivers/STM32F0xx_HAL_Driver/Src/stm32f0xx_hal_dma.c ****   
 1424              		.loc 1 704 3 view .LVU504
 1425 001e 9954     		strb	r1, [r3, r2]
 706:Drivers/STM32F0xx_HAL_Driver/Src/stm32f0xx_hal_dma.c **** }
 1426              		.loc 1 706 3 is_stmt 1 view .LVU505
 1427              	.LVL98:
 1428              	.L96:
 707:Drivers/STM32F0xx_HAL_Driver/Src/stm32f0xx_hal_dma.c **** 
 1429              		.loc 1 707 1 is_stmt 0 view .LVU506
 1430              		@ sp needed
 1431 0020 10BD     		pop	{r4, pc}
 1432              	.LVL99:
 1433              	.L104:
 675:Drivers/STM32F0xx_HAL_Driver/Src/stm32f0xx_hal_dma.c ****     {
 1434              		.loc 1 675 5 is_stmt 1 view .LVU507
 1435 0022 0129     		cmp	r1, #1
 1436 0024 10D0     		beq	.L98
 1437 0026 0029     		cmp	r1, #0
 1438 0028 0BD0     		beq	.L99
 1439 002a 0229     		cmp	r1, #2
 1440 002c 04D0     		beq	.L100
 1441 002e 0329     		cmp	r1, #3
 1442 0030 F3D1     		bne	.L97
 690:Drivers/STM32F0xx_HAL_Driver/Src/stm32f0xx_hal_dma.c ****            break; 
 1443              		.loc 1 690 12 view .LVU508
 690:Drivers/STM32F0xx_HAL_Driver/Src/stm32f0xx_hal_dma.c ****            break; 
 1444              		.loc 1 690 36 is_stmt 0 view .LVU509
 1445 0032 5A63     		str	r2, [r3, #52]
 691:Drivers/STM32F0xx_HAL_Driver/Src/stm32f0xx_hal_dma.c ****            
 1446              		.loc 1 691 12 is_stmt 1 view .LVU510
 668:Drivers/STM32F0xx_HAL_Driver/Src/stm32f0xx_hal_dma.c ****   
 1447              		.loc 1 668 21 is_stmt 0 view .LVU511
 1448 0034 0020     		movs	r0, #0
 691:Drivers/STM32F0xx_HAL_Driver/Src/stm32f0xx_hal_dma.c ****            
 1449              		.loc 1 691 12 view .LVU512
 1450 0036 F0E7     		b	.L97
 1451              	.L100:
 686:Drivers/STM32F0xx_HAL_Driver/Src/stm32f0xx_hal_dma.c ****            break;         
 1452              		.loc 1 686 12 is_stmt 1 view .LVU513
 686:Drivers/STM32F0xx_HAL_Driver/Src/stm32f0xx_hal_dma.c ****            break;         
 1453              		.loc 1 686 36 is_stmt 0 view .LVU514
 1454 0038 1A63     		str	r2, [r3, #48]
 687:Drivers/STM32F0xx_HAL_Driver/Src/stm32f0xx_hal_dma.c ****            
 1455              		.loc 1 687 12 is_stmt 1 view .LVU515
 668:Drivers/STM32F0xx_HAL_Driver/Src/stm32f0xx_hal_dma.c ****   
 1456              		.loc 1 668 21 is_stmt 0 view .LVU516
 1457 003a 0020     		movs	r0, #0
ARM GAS  /tmp/ccjPiDbo.s 			page 50


 687:Drivers/STM32F0xx_HAL_Driver/Src/stm32f0xx_hal_dma.c ****            
 1458              		.loc 1 687 12 view .LVU517
 1459 003c EDE7     		b	.L97
 1460              	.L102:
 671:Drivers/STM32F0xx_HAL_Driver/Src/stm32f0xx_hal_dma.c ****   
 1461              		.loc 1 671 3 view .LVU518
 1462 003e 0220     		movs	r0, #2
 1463 0040 EEE7     		b	.L96
 1464              	.L99:
 678:Drivers/STM32F0xx_HAL_Driver/Src/stm32f0xx_hal_dma.c ****            break;
 1465              		.loc 1 678 12 is_stmt 1 view .LVU519
 678:Drivers/STM32F0xx_HAL_Driver/Src/stm32f0xx_hal_dma.c ****            break;
 1466              		.loc 1 678 35 is_stmt 0 view .LVU520
 1467 0042 9A62     		str	r2, [r3, #40]
 679:Drivers/STM32F0xx_HAL_Driver/Src/stm32f0xx_hal_dma.c ****        
 1468              		.loc 1 679 12 is_stmt 1 view .LVU521
 668:Drivers/STM32F0xx_HAL_Driver/Src/stm32f0xx_hal_dma.c ****   
 1469              		.loc 1 668 21 is_stmt 0 view .LVU522
 1470 0044 0020     		movs	r0, #0
 679:Drivers/STM32F0xx_HAL_Driver/Src/stm32f0xx_hal_dma.c ****        
 1471              		.loc 1 679 12 view .LVU523
 1472 0046 E8E7     		b	.L97
 1473              	.L98:
 682:Drivers/STM32F0xx_HAL_Driver/Src/stm32f0xx_hal_dma.c ****            break;         
 1474              		.loc 1 682 12 is_stmt 1 view .LVU524
 682:Drivers/STM32F0xx_HAL_Driver/Src/stm32f0xx_hal_dma.c ****            break;         
 1475              		.loc 1 682 39 is_stmt 0 view .LVU525
 1476 0048 DA62     		str	r2, [r3, #44]
 683:Drivers/STM32F0xx_HAL_Driver/Src/stm32f0xx_hal_dma.c **** 
 1477              		.loc 1 683 12 is_stmt 1 view .LVU526
 668:Drivers/STM32F0xx_HAL_Driver/Src/stm32f0xx_hal_dma.c ****   
 1478              		.loc 1 668 21 is_stmt 0 view .LVU527
 1479 004a 0020     		movs	r0, #0
 683:Drivers/STM32F0xx_HAL_Driver/Src/stm32f0xx_hal_dma.c **** 
 1480              		.loc 1 683 12 view .LVU528
 1481 004c E5E7     		b	.L97
 1482              		.cfi_endproc
 1483              	.LFE45:
 1485 004e C046     		.section	.text.HAL_DMA_UnRegisterCallback,"ax",%progbits
 1486              		.align	1
 1487              		.p2align 2,,3
 1488              		.global	HAL_DMA_UnRegisterCallback
 1489              		.syntax unified
 1490              		.code	16
 1491              		.thumb_func
 1492              		.fpu softvfp
 1494              	HAL_DMA_UnRegisterCallback:
 1495              	.LVL100:
 1496              	.LFB46:
 718:Drivers/STM32F0xx_HAL_Driver/Src/stm32f0xx_hal_dma.c ****   HAL_StatusTypeDef status = HAL_OK;
 1497              		.loc 1 718 1 is_stmt 1 view -0
 1498              		.cfi_startproc
 1499              		@ args = 0, pretend = 0, frame = 0
 1500              		@ frame_needed = 0, uses_anonymous_args = 0
 1501              		@ link register save eliminated.
 719:Drivers/STM32F0xx_HAL_Driver/Src/stm32f0xx_hal_dma.c **** 
 1502              		.loc 1 719 3 view .LVU530
ARM GAS  /tmp/ccjPiDbo.s 			page 51


 722:Drivers/STM32F0xx_HAL_Driver/Src/stm32f0xx_hal_dma.c ****   
 1503              		.loc 1 722 3 view .LVU531
 722:Drivers/STM32F0xx_HAL_Driver/Src/stm32f0xx_hal_dma.c ****   
 1504              		.loc 1 722 3 view .LVU532
 1505 0000 2022     		movs	r2, #32
 718:Drivers/STM32F0xx_HAL_Driver/Src/stm32f0xx_hal_dma.c ****   HAL_StatusTypeDef status = HAL_OK;
 1506              		.loc 1 718 1 is_stmt 0 view .LVU533
 1507 0002 0300     		movs	r3, r0
 722:Drivers/STM32F0xx_HAL_Driver/Src/stm32f0xx_hal_dma.c ****   
 1508              		.loc 1 722 3 view .LVU534
 1509 0004 805C     		ldrb	r0, [r0, r2]
 1510              	.LVL101:
 722:Drivers/STM32F0xx_HAL_Driver/Src/stm32f0xx_hal_dma.c ****   
 1511              		.loc 1 722 3 view .LVU535
 1512 0006 0128     		cmp	r0, #1
 1513 0008 0FD0     		beq	.L114
 722:Drivers/STM32F0xx_HAL_Driver/Src/stm32f0xx_hal_dma.c ****   
 1514              		.loc 1 722 3 is_stmt 1 discriminator 2 view .LVU536
 1515 000a 0120     		movs	r0, #1
 1516 000c 9854     		strb	r0, [r3, r2]
 724:Drivers/STM32F0xx_HAL_Driver/Src/stm32f0xx_hal_dma.c ****   {
 1517              		.loc 1 724 3 discriminator 2 view .LVU537
 724:Drivers/STM32F0xx_HAL_Driver/Src/stm32f0xx_hal_dma.c ****   {
 1518              		.loc 1 724 33 is_stmt 0 discriminator 2 view .LVU538
 1519 000e 0132     		adds	r2, r2, #1
 1520 0010 9A5C     		ldrb	r2, [r3, r2]
 724:Drivers/STM32F0xx_HAL_Driver/Src/stm32f0xx_hal_dma.c ****   {
 1521              		.loc 1 724 5 discriminator 2 view .LVU539
 1522 0012 012A     		cmp	r2, #1
 1523 0014 03D0     		beq	.L117
 1524              	.LVL102:
 1525              	.L107:
 762:Drivers/STM32F0xx_HAL_Driver/Src/stm32f0xx_hal_dma.c ****   
 1526              		.loc 1 762 3 is_stmt 1 view .LVU540
 762:Drivers/STM32F0xx_HAL_Driver/Src/stm32f0xx_hal_dma.c ****   
 1527              		.loc 1 762 3 view .LVU541
 1528 0016 2022     		movs	r2, #32
 1529 0018 0021     		movs	r1, #0
 1530 001a 9954     		strb	r1, [r3, r2]
 764:Drivers/STM32F0xx_HAL_Driver/Src/stm32f0xx_hal_dma.c **** }
 1531              		.loc 1 764 3 view .LVU542
 1532              	.LVL103:
 1533              	.L106:
 765:Drivers/STM32F0xx_HAL_Driver/Src/stm32f0xx_hal_dma.c **** 
 1534              		.loc 1 765 1 is_stmt 0 view .LVU543
 1535              		@ sp needed
 1536 001c 7047     		bx	lr
 1537              	.LVL104:
 1538              	.L117:
 726:Drivers/STM32F0xx_HAL_Driver/Src/stm32f0xx_hal_dma.c ****     {
 1539              		.loc 1 726 5 is_stmt 1 view .LVU544
 1540 001e 0429     		cmp	r1, #4
 1541 0020 F9D8     		bhi	.L107
 1542 0022 0E4A     		ldr	r2, .L118
 1543 0024 8900     		lsls	r1, r1, #2
 1544              	.LVL105:
 726:Drivers/STM32F0xx_HAL_Driver/Src/stm32f0xx_hal_dma.c ****     {
ARM GAS  /tmp/ccjPiDbo.s 			page 52


 1545              		.loc 1 726 5 is_stmt 0 view .LVU545
 1546 0026 5258     		ldr	r2, [r2, r1]
 1547 0028 9746     		mov	pc, r2
 1548              		.section	.rodata.HAL_DMA_UnRegisterCallback,"a",%progbits
 1549              		.align	2
 1550              	.L109:
 1551 0000 44000000 		.word	.L113
 1552 0004 4C000000 		.word	.L112
 1553 0008 54000000 		.word	.L111
 1554 000c 2E000000 		.word	.L110
 1555 0010 36000000 		.word	.L108
 1556              		.section	.text.HAL_DMA_UnRegisterCallback
 1557              	.LVL106:
 1558              	.L114:
 722:Drivers/STM32F0xx_HAL_Driver/Src/stm32f0xx_hal_dma.c ****   
 1559              		.loc 1 722 3 view .LVU546
 1560 002a 0220     		movs	r0, #2
 1561 002c F6E7     		b	.L106
 1562              	.LVL107:
 1563              	.L110:
 741:Drivers/STM32F0xx_HAL_Driver/Src/stm32f0xx_hal_dma.c ****            break; 
 1564              		.loc 1 741 12 is_stmt 1 view .LVU547
 741:Drivers/STM32F0xx_HAL_Driver/Src/stm32f0xx_hal_dma.c ****            break; 
 1565              		.loc 1 741 36 is_stmt 0 view .LVU548
 1566 002e 0022     		movs	r2, #0
 719:Drivers/STM32F0xx_HAL_Driver/Src/stm32f0xx_hal_dma.c **** 
 1567              		.loc 1 719 21 view .LVU549
 1568 0030 0020     		movs	r0, #0
 741:Drivers/STM32F0xx_HAL_Driver/Src/stm32f0xx_hal_dma.c ****            break; 
 1569              		.loc 1 741 36 view .LVU550
 1570 0032 5A63     		str	r2, [r3, #52]
 742:Drivers/STM32F0xx_HAL_Driver/Src/stm32f0xx_hal_dma.c ****      
 1571              		.loc 1 742 12 is_stmt 1 view .LVU551
 1572 0034 EFE7     		b	.L107
 1573              	.L108:
 745:Drivers/STM32F0xx_HAL_Driver/Src/stm32f0xx_hal_dma.c ****            hdma->XferHalfCpltCallback = NULL;
 1574              		.loc 1 745 12 view .LVU552
 745:Drivers/STM32F0xx_HAL_Driver/Src/stm32f0xx_hal_dma.c ****            hdma->XferHalfCpltCallback = NULL;
 1575              		.loc 1 745 35 is_stmt 0 view .LVU553
 1576 0036 0022     		movs	r2, #0
 719:Drivers/STM32F0xx_HAL_Driver/Src/stm32f0xx_hal_dma.c **** 
 1577              		.loc 1 719 21 view .LVU554
 1578 0038 0020     		movs	r0, #0
 745:Drivers/STM32F0xx_HAL_Driver/Src/stm32f0xx_hal_dma.c ****            hdma->XferHalfCpltCallback = NULL;
 1579              		.loc 1 745 35 view .LVU555
 1580 003a 9A62     		str	r2, [r3, #40]
 746:Drivers/STM32F0xx_HAL_Driver/Src/stm32f0xx_hal_dma.c ****            hdma->XferErrorCallback = NULL;
 1581              		.loc 1 746 12 is_stmt 1 view .LVU556
 746:Drivers/STM32F0xx_HAL_Driver/Src/stm32f0xx_hal_dma.c ****            hdma->XferErrorCallback = NULL;
 1582              		.loc 1 746 39 is_stmt 0 view .LVU557
 1583 003c DA62     		str	r2, [r3, #44]
 747:Drivers/STM32F0xx_HAL_Driver/Src/stm32f0xx_hal_dma.c ****            hdma->XferAbortCallback = NULL;
 1584              		.loc 1 747 12 is_stmt 1 view .LVU558
 747:Drivers/STM32F0xx_HAL_Driver/Src/stm32f0xx_hal_dma.c ****            hdma->XferAbortCallback = NULL;
 1585              		.loc 1 747 36 is_stmt 0 view .LVU559
 1586 003e 1A63     		str	r2, [r3, #48]
 748:Drivers/STM32F0xx_HAL_Driver/Src/stm32f0xx_hal_dma.c ****            break; 
ARM GAS  /tmp/ccjPiDbo.s 			page 53


 1587              		.loc 1 748 12 is_stmt 1 view .LVU560
 748:Drivers/STM32F0xx_HAL_Driver/Src/stm32f0xx_hal_dma.c ****            break; 
 1588              		.loc 1 748 36 is_stmt 0 view .LVU561
 1589 0040 5A63     		str	r2, [r3, #52]
 749:Drivers/STM32F0xx_HAL_Driver/Src/stm32f0xx_hal_dma.c ****      
 1590              		.loc 1 749 12 is_stmt 1 view .LVU562
 1591 0042 E8E7     		b	.L107
 1592              	.L113:
 729:Drivers/STM32F0xx_HAL_Driver/Src/stm32f0xx_hal_dma.c ****            break;
 1593              		.loc 1 729 12 view .LVU563
 729:Drivers/STM32F0xx_HAL_Driver/Src/stm32f0xx_hal_dma.c ****            break;
 1594              		.loc 1 729 35 is_stmt 0 view .LVU564
 1595 0044 0022     		movs	r2, #0
 719:Drivers/STM32F0xx_HAL_Driver/Src/stm32f0xx_hal_dma.c **** 
 1596              		.loc 1 719 21 view .LVU565
 1597 0046 0020     		movs	r0, #0
 729:Drivers/STM32F0xx_HAL_Driver/Src/stm32f0xx_hal_dma.c ****            break;
 1598              		.loc 1 729 35 view .LVU566
 1599 0048 9A62     		str	r2, [r3, #40]
 730:Drivers/STM32F0xx_HAL_Driver/Src/stm32f0xx_hal_dma.c ****        
 1600              		.loc 1 730 12 is_stmt 1 view .LVU567
 1601 004a E4E7     		b	.L107
 1602              	.L112:
 733:Drivers/STM32F0xx_HAL_Driver/Src/stm32f0xx_hal_dma.c ****            break;         
 1603              		.loc 1 733 12 view .LVU568
 733:Drivers/STM32F0xx_HAL_Driver/Src/stm32f0xx_hal_dma.c ****            break;         
 1604              		.loc 1 733 39 is_stmt 0 view .LVU569
 1605 004c 0022     		movs	r2, #0
 719:Drivers/STM32F0xx_HAL_Driver/Src/stm32f0xx_hal_dma.c **** 
 1606              		.loc 1 719 21 view .LVU570
 1607 004e 0020     		movs	r0, #0
 733:Drivers/STM32F0xx_HAL_Driver/Src/stm32f0xx_hal_dma.c ****            break;         
 1608              		.loc 1 733 39 view .LVU571
 1609 0050 DA62     		str	r2, [r3, #44]
 734:Drivers/STM32F0xx_HAL_Driver/Src/stm32f0xx_hal_dma.c **** 
 1610              		.loc 1 734 12 is_stmt 1 view .LVU572
 1611 0052 E0E7     		b	.L107
 1612              	.L111:
 737:Drivers/STM32F0xx_HAL_Driver/Src/stm32f0xx_hal_dma.c ****            break;         
 1613              		.loc 1 737 12 view .LVU573
 737:Drivers/STM32F0xx_HAL_Driver/Src/stm32f0xx_hal_dma.c ****            break;         
 1614              		.loc 1 737 36 is_stmt 0 view .LVU574
 1615 0054 0022     		movs	r2, #0
 719:Drivers/STM32F0xx_HAL_Driver/Src/stm32f0xx_hal_dma.c **** 
 1616              		.loc 1 719 21 view .LVU575
 1617 0056 0020     		movs	r0, #0
 737:Drivers/STM32F0xx_HAL_Driver/Src/stm32f0xx_hal_dma.c ****            break;         
 1618              		.loc 1 737 36 view .LVU576
 1619 0058 1A63     		str	r2, [r3, #48]
 738:Drivers/STM32F0xx_HAL_Driver/Src/stm32f0xx_hal_dma.c ****            
 1620              		.loc 1 738 12 is_stmt 1 view .LVU577
 1621 005a DCE7     		b	.L107
 1622              	.L119:
 1623              		.align	2
 1624              	.L118:
 1625 005c 00000000 		.word	.L109
 1626              		.cfi_endproc
ARM GAS  /tmp/ccjPiDbo.s 			page 54


 1627              	.LFE46:
 1629              		.section	.text.HAL_DMA_GetState,"ax",%progbits
 1630              		.align	1
 1631              		.p2align 2,,3
 1632              		.global	HAL_DMA_GetState
 1633              		.syntax unified
 1634              		.code	16
 1635              		.thumb_func
 1636              		.fpu softvfp
 1638              	HAL_DMA_GetState:
 1639              	.LVL108:
 1640              	.LFB47:
 794:Drivers/STM32F0xx_HAL_Driver/Src/stm32f0xx_hal_dma.c ****   return hdma->State;
 1641              		.loc 1 794 1 view -0
 1642              		.cfi_startproc
 1643              		@ args = 0, pretend = 0, frame = 0
 1644              		@ frame_needed = 0, uses_anonymous_args = 0
 1645              		@ link register save eliminated.
 795:Drivers/STM32F0xx_HAL_Driver/Src/stm32f0xx_hal_dma.c **** }
 1646              		.loc 1 795 3 view .LVU579
 795:Drivers/STM32F0xx_HAL_Driver/Src/stm32f0xx_hal_dma.c **** }
 1647              		.loc 1 795 14 is_stmt 0 view .LVU580
 1648 0000 2123     		movs	r3, #33
 1649 0002 C05C     		ldrb	r0, [r0, r3]
 1650              	.LVL109:
 796:Drivers/STM32F0xx_HAL_Driver/Src/stm32f0xx_hal_dma.c **** 
 1651              		.loc 1 796 1 view .LVU581
 1652              		@ sp needed
 795:Drivers/STM32F0xx_HAL_Driver/Src/stm32f0xx_hal_dma.c **** }
 1653              		.loc 1 795 14 view .LVU582
 1654 0004 C0B2     		uxtb	r0, r0
 796:Drivers/STM32F0xx_HAL_Driver/Src/stm32f0xx_hal_dma.c **** 
 1655              		.loc 1 796 1 view .LVU583
 1656 0006 7047     		bx	lr
 1657              		.cfi_endproc
 1658              	.LFE47:
 1660              		.section	.text.HAL_DMA_GetError,"ax",%progbits
 1661              		.align	1
 1662              		.p2align 2,,3
 1663              		.global	HAL_DMA_GetError
 1664              		.syntax unified
 1665              		.code	16
 1666              		.thumb_func
 1667              		.fpu softvfp
 1669              	HAL_DMA_GetError:
 1670              	.LVL110:
 1671              	.LFB48:
 805:Drivers/STM32F0xx_HAL_Driver/Src/stm32f0xx_hal_dma.c ****   return hdma->ErrorCode;
 1672              		.loc 1 805 1 is_stmt 1 view -0
 1673              		.cfi_startproc
 1674              		@ args = 0, pretend = 0, frame = 0
 1675              		@ frame_needed = 0, uses_anonymous_args = 0
 1676              		@ link register save eliminated.
 806:Drivers/STM32F0xx_HAL_Driver/Src/stm32f0xx_hal_dma.c **** }
 1677              		.loc 1 806 3 view .LVU585
 806:Drivers/STM32F0xx_HAL_Driver/Src/stm32f0xx_hal_dma.c **** }
 1678              		.loc 1 806 14 is_stmt 0 view .LVU586
ARM GAS  /tmp/ccjPiDbo.s 			page 55


 1679 0000 806B     		ldr	r0, [r0, #56]
 1680              	.LVL111:
 807:Drivers/STM32F0xx_HAL_Driver/Src/stm32f0xx_hal_dma.c **** 
 1681              		.loc 1 807 1 view .LVU587
 1682              		@ sp needed
 1683 0002 7047     		bx	lr
 1684              		.cfi_endproc
 1685              	.LFE48:
 1687              		.text
 1688              	.Letext0:
 1689              		.file 2 "/usr/lib/gcc/arm-none-eabi/8.2018.q4/arm-none-eabi/include/machine/_default_types.h"
 1690              		.file 3 "/usr/lib/gcc/arm-none-eabi/8.2018.q4/arm-none-eabi/include/sys/_stdint.h"
 1691              		.file 4 "Drivers/CMSIS/Device/ST/STM32F0xx/Include/system_stm32f0xx.h"
 1692              		.file 5 "Drivers/CMSIS/Device/ST/STM32F0xx/Include/stm32f091xc.h"
 1693              		.file 6 "/usr/lib/gcc/arm-none-eabi/8.2018.q4/arm-none-eabi/include/sys/lock.h"
 1694              		.file 7 "/usr/lib/gcc/arm-none-eabi/8.2018.q4/arm-none-eabi/include/sys/_types.h"
 1695              		.file 8 "/usr/lib/gcc/arm-none-eabi/8.2018.q4/lib/gcc/arm-none-eabi/8.2.1/include/stddef.h"
 1696              		.file 9 "/usr/lib/gcc/arm-none-eabi/8.2018.q4/arm-none-eabi/include/sys/reent.h"
 1697              		.file 10 "Drivers/CMSIS/Device/ST/STM32F0xx/Include/stm32f0xx.h"
 1698              		.file 11 "Drivers/STM32F0xx_HAL_Driver/Inc/stm32f0xx_hal_def.h"
 1699              		.file 12 "Drivers/STM32F0xx_HAL_Driver/Inc/stm32f0xx_hal_dma.h"
 1700              		.file 13 "Drivers/STM32F0xx_HAL_Driver/Inc/stm32f0xx_hal.h"
ARM GAS  /tmp/ccjPiDbo.s 			page 56

