ARM GAS  /tmp/ccSFdtfu.s 			page 1


   1              		.cpu cortex-m0
   2              		.eabi_attribute 20, 1
   3              		.eabi_attribute 21, 1
   4              		.eabi_attribute 23, 3
   5              		.eabi_attribute 24, 1
   6              		.eabi_attribute 25, 1
   7              		.eabi_attribute 26, 1
   8              		.eabi_attribute 30, 2
   9              		.eabi_attribute 34, 0
  10              		.eabi_attribute 18, 4
  11              		.file	"cmsis_os.c"
  12              		.text
  13              	.Ltext0:
  14              		.cfi_sections	.debug_frame
  15              		.section	.text.osKernelStart,"ax",%progbits
  16              		.align	1
  17              		.p2align 2,,3
  18              		.global	osKernelStart
  19              		.arch armv6s-m
  20              		.syntax unified
  21              		.code	16
  22              		.thumb_func
  23              		.fpu softvfp
  25              	osKernelStart:
  26              	.LFB40:
  27              		.file 1 "Middlewares/Third_Party/FreeRTOS/Source/CMSIS_RTOS/cmsis_os.c"
   1:Middlewares/Third_Party/FreeRTOS/Source/CMSIS_RTOS/cmsis_os.c **** /* ----------------------------------------------------------------------
   2:Middlewares/Third_Party/FreeRTOS/Source/CMSIS_RTOS/cmsis_os.c ****  * $Date:        5. February 2013
   3:Middlewares/Third_Party/FreeRTOS/Source/CMSIS_RTOS/cmsis_os.c ****  * $Revision:    V1.02
   4:Middlewares/Third_Party/FreeRTOS/Source/CMSIS_RTOS/cmsis_os.c ****  *
   5:Middlewares/Third_Party/FreeRTOS/Source/CMSIS_RTOS/cmsis_os.c ****  * Project:      CMSIS-RTOS API
   6:Middlewares/Third_Party/FreeRTOS/Source/CMSIS_RTOS/cmsis_os.c ****  * Title:        cmsis_os.c
   7:Middlewares/Third_Party/FreeRTOS/Source/CMSIS_RTOS/cmsis_os.c ****  *
   8:Middlewares/Third_Party/FreeRTOS/Source/CMSIS_RTOS/cmsis_os.c ****  * Version 0.02
   9:Middlewares/Third_Party/FreeRTOS/Source/CMSIS_RTOS/cmsis_os.c ****  *    Initial Proposal Phase
  10:Middlewares/Third_Party/FreeRTOS/Source/CMSIS_RTOS/cmsis_os.c ****  * Version 0.03
  11:Middlewares/Third_Party/FreeRTOS/Source/CMSIS_RTOS/cmsis_os.c ****  *    osKernelStart added, optional feature: main started as thread
  12:Middlewares/Third_Party/FreeRTOS/Source/CMSIS_RTOS/cmsis_os.c ****  *    osSemaphores have standard behavior
  13:Middlewares/Third_Party/FreeRTOS/Source/CMSIS_RTOS/cmsis_os.c ****  *    osTimerCreate does not start the timer, added osTimerStart
  14:Middlewares/Third_Party/FreeRTOS/Source/CMSIS_RTOS/cmsis_os.c ****  *    osThreadPass is renamed to osThreadYield
  15:Middlewares/Third_Party/FreeRTOS/Source/CMSIS_RTOS/cmsis_os.c ****  * Version 1.01
  16:Middlewares/Third_Party/FreeRTOS/Source/CMSIS_RTOS/cmsis_os.c ****  *    Support for C++ interface
  17:Middlewares/Third_Party/FreeRTOS/Source/CMSIS_RTOS/cmsis_os.c ****  *     - const attribute removed from the osXxxxDef_t typedef's
  18:Middlewares/Third_Party/FreeRTOS/Source/CMSIS_RTOS/cmsis_os.c ****  *     - const attribute added to the osXxxxDef macros
  19:Middlewares/Third_Party/FreeRTOS/Source/CMSIS_RTOS/cmsis_os.c ****  *    Added: osTimerDelete, osMutexDelete, osSemaphoreDelete
  20:Middlewares/Third_Party/FreeRTOS/Source/CMSIS_RTOS/cmsis_os.c ****  *    Added: osKernelInitialize
  21:Middlewares/Third_Party/FreeRTOS/Source/CMSIS_RTOS/cmsis_os.c ****  * Version 1.02
  22:Middlewares/Third_Party/FreeRTOS/Source/CMSIS_RTOS/cmsis_os.c ****  *    Control functions for short timeouts in microsecond resolution:
  23:Middlewares/Third_Party/FreeRTOS/Source/CMSIS_RTOS/cmsis_os.c ****  *    Added: osKernelSysTick, osKernelSysTickFrequency, osKernelSysTickMicroSec
  24:Middlewares/Third_Party/FreeRTOS/Source/CMSIS_RTOS/cmsis_os.c ****  *    Removed: osSignalGet 
  25:Middlewares/Third_Party/FreeRTOS/Source/CMSIS_RTOS/cmsis_os.c ****  *    
  26:Middlewares/Third_Party/FreeRTOS/Source/CMSIS_RTOS/cmsis_os.c ****  *  
  27:Middlewares/Third_Party/FreeRTOS/Source/CMSIS_RTOS/cmsis_os.c ****  *----------------------------------------------------------------------------
  28:Middlewares/Third_Party/FreeRTOS/Source/CMSIS_RTOS/cmsis_os.c ****  *
  29:Middlewares/Third_Party/FreeRTOS/Source/CMSIS_RTOS/cmsis_os.c ****  * Portions Copyright © 2016 STMicroelectronics International N.V. All rights reserved.
  30:Middlewares/Third_Party/FreeRTOS/Source/CMSIS_RTOS/cmsis_os.c ****  * Portions Copyright (c) 2013 ARM LIMITED
  31:Middlewares/Third_Party/FreeRTOS/Source/CMSIS_RTOS/cmsis_os.c ****  * All rights reserved.
ARM GAS  /tmp/ccSFdtfu.s 			page 2


  32:Middlewares/Third_Party/FreeRTOS/Source/CMSIS_RTOS/cmsis_os.c ****  * Redistribution and use in source and binary forms, with or without
  33:Middlewares/Third_Party/FreeRTOS/Source/CMSIS_RTOS/cmsis_os.c ****  * modification, are permitted provided that the following conditions are met:
  34:Middlewares/Third_Party/FreeRTOS/Source/CMSIS_RTOS/cmsis_os.c ****  *  - Redistributions of source code must retain the above copyright
  35:Middlewares/Third_Party/FreeRTOS/Source/CMSIS_RTOS/cmsis_os.c ****  *    notice, this list of conditions and the following disclaimer.
  36:Middlewares/Third_Party/FreeRTOS/Source/CMSIS_RTOS/cmsis_os.c ****  *  - Redistributions in binary form must reproduce the above copyright
  37:Middlewares/Third_Party/FreeRTOS/Source/CMSIS_RTOS/cmsis_os.c ****  *    notice, this list of conditions and the following disclaimer in the
  38:Middlewares/Third_Party/FreeRTOS/Source/CMSIS_RTOS/cmsis_os.c ****  *    documentation and/or other materials provided with the distribution.
  39:Middlewares/Third_Party/FreeRTOS/Source/CMSIS_RTOS/cmsis_os.c ****  *  - Neither the name of ARM  nor the names of its contributors may be used
  40:Middlewares/Third_Party/FreeRTOS/Source/CMSIS_RTOS/cmsis_os.c ****  *    to endorse or promote products derived from this software without
  41:Middlewares/Third_Party/FreeRTOS/Source/CMSIS_RTOS/cmsis_os.c ****  *    specific prior written permission.
  42:Middlewares/Third_Party/FreeRTOS/Source/CMSIS_RTOS/cmsis_os.c ****  *
  43:Middlewares/Third_Party/FreeRTOS/Source/CMSIS_RTOS/cmsis_os.c ****  * THIS SOFTWARE IS PROVIDED BY THE COPYRIGHT HOLDERS AND CONTRIBUTORS "AS IS"
  44:Middlewares/Third_Party/FreeRTOS/Source/CMSIS_RTOS/cmsis_os.c ****  * AND ANY EXPRESS OR IMPLIED WARRANTIES, INCLUDING, BUT NOT LIMITED TO, THE
  45:Middlewares/Third_Party/FreeRTOS/Source/CMSIS_RTOS/cmsis_os.c ****  * IMPLIED WARRANTIES OF MERCHANTABILITY AND FITNESS FOR A PARTICULAR PURPOSE
  46:Middlewares/Third_Party/FreeRTOS/Source/CMSIS_RTOS/cmsis_os.c ****  * ARE DISCLAIMED. IN NO EVENT SHALL COPYRIGHT HOLDERS AND CONTRIBUTORS BE
  47:Middlewares/Third_Party/FreeRTOS/Source/CMSIS_RTOS/cmsis_os.c ****  * LIABLE FOR ANY DIRECT, INDIRECT, INCIDENTAL, SPECIAL, EXEMPLARY, OR
  48:Middlewares/Third_Party/FreeRTOS/Source/CMSIS_RTOS/cmsis_os.c ****  * CONSEQUENTIAL DAMAGES (INCLUDING, BUT NOT LIMITED TO, PROCUREMENT OF
  49:Middlewares/Third_Party/FreeRTOS/Source/CMSIS_RTOS/cmsis_os.c ****  * SUBSTITUTE GOODS OR SERVICES; LOSS OF USE, DATA, OR PROFITS; OR BUSINESS
  50:Middlewares/Third_Party/FreeRTOS/Source/CMSIS_RTOS/cmsis_os.c ****  * INTERRUPTION) HOWEVER CAUSED AND ON ANY THEORY OF LIABILITY, WHETHER IN
  51:Middlewares/Third_Party/FreeRTOS/Source/CMSIS_RTOS/cmsis_os.c ****  * CONTRACT, STRICT LIABILITY, OR TORT (INCLUDING NEGLIGENCE OR OTHERWISE)
  52:Middlewares/Third_Party/FreeRTOS/Source/CMSIS_RTOS/cmsis_os.c ****  * ARISING IN ANY WAY OUT OF THE USE OF THIS SOFTWARE, EVEN IF ADVISED OF THE
  53:Middlewares/Third_Party/FreeRTOS/Source/CMSIS_RTOS/cmsis_os.c ****  * POSSIBILITY OF SUCH DAMAGE.
  54:Middlewares/Third_Party/FreeRTOS/Source/CMSIS_RTOS/cmsis_os.c ****  *---------------------------------------------------------------------------*/
  55:Middlewares/Third_Party/FreeRTOS/Source/CMSIS_RTOS/cmsis_os.c **** 
  56:Middlewares/Third_Party/FreeRTOS/Source/CMSIS_RTOS/cmsis_os.c ****  /**
  57:Middlewares/Third_Party/FreeRTOS/Source/CMSIS_RTOS/cmsis_os.c ****   ******************************************************************************
  58:Middlewares/Third_Party/FreeRTOS/Source/CMSIS_RTOS/cmsis_os.c ****   * @file    cmsis_os.c
  59:Middlewares/Third_Party/FreeRTOS/Source/CMSIS_RTOS/cmsis_os.c ****   * @author  MCD Application Team
  60:Middlewares/Third_Party/FreeRTOS/Source/CMSIS_RTOS/cmsis_os.c ****   * @date    03-March-2017
  61:Middlewares/Third_Party/FreeRTOS/Source/CMSIS_RTOS/cmsis_os.c ****   * @brief   CMSIS-RTOS API implementation for FreeRTOS V9.0.0
  62:Middlewares/Third_Party/FreeRTOS/Source/CMSIS_RTOS/cmsis_os.c ****   ******************************************************************************
  63:Middlewares/Third_Party/FreeRTOS/Source/CMSIS_RTOS/cmsis_os.c ****   * @attention
  64:Middlewares/Third_Party/FreeRTOS/Source/CMSIS_RTOS/cmsis_os.c ****   *
  65:Middlewares/Third_Party/FreeRTOS/Source/CMSIS_RTOS/cmsis_os.c ****   * Redistribution and use in source and binary forms, with or without 
  66:Middlewares/Third_Party/FreeRTOS/Source/CMSIS_RTOS/cmsis_os.c ****   * modification, are permitted, provided that the following conditions are met:
  67:Middlewares/Third_Party/FreeRTOS/Source/CMSIS_RTOS/cmsis_os.c ****   *
  68:Middlewares/Third_Party/FreeRTOS/Source/CMSIS_RTOS/cmsis_os.c ****   * 1. Redistribution of source code must retain the above copyright notice, 
  69:Middlewares/Third_Party/FreeRTOS/Source/CMSIS_RTOS/cmsis_os.c ****   *    this list of conditions and the following disclaimer.
  70:Middlewares/Third_Party/FreeRTOS/Source/CMSIS_RTOS/cmsis_os.c ****   * 2. Redistributions in binary form must reproduce the above copyright notice,
  71:Middlewares/Third_Party/FreeRTOS/Source/CMSIS_RTOS/cmsis_os.c ****   *    this list of conditions and the following disclaimer in the documentation
  72:Middlewares/Third_Party/FreeRTOS/Source/CMSIS_RTOS/cmsis_os.c ****   *    and/or other materials provided with the distribution.
  73:Middlewares/Third_Party/FreeRTOS/Source/CMSIS_RTOS/cmsis_os.c ****   * 3. Neither the name of STMicroelectronics nor the names of other 
  74:Middlewares/Third_Party/FreeRTOS/Source/CMSIS_RTOS/cmsis_os.c ****   *    contributors to this software may be used to endorse or promote products 
  75:Middlewares/Third_Party/FreeRTOS/Source/CMSIS_RTOS/cmsis_os.c ****   *    derived from this software without specific written permission.
  76:Middlewares/Third_Party/FreeRTOS/Source/CMSIS_RTOS/cmsis_os.c ****   * 4. This software, including modifications and/or derivative works of this 
  77:Middlewares/Third_Party/FreeRTOS/Source/CMSIS_RTOS/cmsis_os.c ****   *    software, must execute solely and exclusively on microcontroller or
  78:Middlewares/Third_Party/FreeRTOS/Source/CMSIS_RTOS/cmsis_os.c ****   *    microprocessor devices manufactured by or for STMicroelectronics.
  79:Middlewares/Third_Party/FreeRTOS/Source/CMSIS_RTOS/cmsis_os.c ****   * 5. Redistribution and use of this software other than as permitted under 
  80:Middlewares/Third_Party/FreeRTOS/Source/CMSIS_RTOS/cmsis_os.c ****   *    this license is void and will automatically terminate your rights under 
  81:Middlewares/Third_Party/FreeRTOS/Source/CMSIS_RTOS/cmsis_os.c ****   *    this license. 
  82:Middlewares/Third_Party/FreeRTOS/Source/CMSIS_RTOS/cmsis_os.c ****   *
  83:Middlewares/Third_Party/FreeRTOS/Source/CMSIS_RTOS/cmsis_os.c ****   * THIS SOFTWARE IS PROVIDED BY STMICROELECTRONICS AND CONTRIBUTORS "AS IS" 
  84:Middlewares/Third_Party/FreeRTOS/Source/CMSIS_RTOS/cmsis_os.c ****   * AND ANY EXPRESS, IMPLIED OR STATUTORY WARRANTIES, INCLUDING, BUT NOT 
  85:Middlewares/Third_Party/FreeRTOS/Source/CMSIS_RTOS/cmsis_os.c ****   * LIMITED TO, THE IMPLIED WARRANTIES OF MERCHANTABILITY, FITNESS FOR A 
  86:Middlewares/Third_Party/FreeRTOS/Source/CMSIS_RTOS/cmsis_os.c ****   * PARTICULAR PURPOSE AND NON-INFRINGEMENT OF THIRD PARTY INTELLECTUAL PROPERTY
  87:Middlewares/Third_Party/FreeRTOS/Source/CMSIS_RTOS/cmsis_os.c ****   * RIGHTS ARE DISCLAIMED TO THE FULLEST EXTENT PERMITTED BY LAW. IN NO EVENT 
  88:Middlewares/Third_Party/FreeRTOS/Source/CMSIS_RTOS/cmsis_os.c ****   * SHALL STMICROELECTRONICS OR CONTRIBUTORS BE LIABLE FOR ANY DIRECT, INDIRECT,
ARM GAS  /tmp/ccSFdtfu.s 			page 3


  89:Middlewares/Third_Party/FreeRTOS/Source/CMSIS_RTOS/cmsis_os.c ****   * INCIDENTAL, SPECIAL, EXEMPLARY, OR CONSEQUENTIAL DAMAGES (INCLUDING, BUT NOT
  90:Middlewares/Third_Party/FreeRTOS/Source/CMSIS_RTOS/cmsis_os.c ****   * LIMITED TO, PROCUREMENT OF SUBSTITUTE GOODS OR SERVICES; LOSS OF USE, DATA, 
  91:Middlewares/Third_Party/FreeRTOS/Source/CMSIS_RTOS/cmsis_os.c ****   * OR PROFITS; OR BUSINESS INTERRUPTION) HOWEVER CAUSED AND ON ANY THEORY OF 
  92:Middlewares/Third_Party/FreeRTOS/Source/CMSIS_RTOS/cmsis_os.c ****   * LIABILITY, WHETHER IN CONTRACT, STRICT LIABILITY, OR TORT (INCLUDING 
  93:Middlewares/Third_Party/FreeRTOS/Source/CMSIS_RTOS/cmsis_os.c ****   * NEGLIGENCE OR OTHERWISE) ARISING IN ANY WAY OUT OF THE USE OF THIS SOFTWARE,
  94:Middlewares/Third_Party/FreeRTOS/Source/CMSIS_RTOS/cmsis_os.c ****   * EVEN IF ADVISED OF THE POSSIBILITY OF SUCH DAMAGE.
  95:Middlewares/Third_Party/FreeRTOS/Source/CMSIS_RTOS/cmsis_os.c ****   *
  96:Middlewares/Third_Party/FreeRTOS/Source/CMSIS_RTOS/cmsis_os.c ****   ******************************************************************************
  97:Middlewares/Third_Party/FreeRTOS/Source/CMSIS_RTOS/cmsis_os.c ****   */ 
  98:Middlewares/Third_Party/FreeRTOS/Source/CMSIS_RTOS/cmsis_os.c **** 
  99:Middlewares/Third_Party/FreeRTOS/Source/CMSIS_RTOS/cmsis_os.c **** #include <string.h>
 100:Middlewares/Third_Party/FreeRTOS/Source/CMSIS_RTOS/cmsis_os.c **** #include "cmsis_os.h"
 101:Middlewares/Third_Party/FreeRTOS/Source/CMSIS_RTOS/cmsis_os.c **** 
 102:Middlewares/Third_Party/FreeRTOS/Source/CMSIS_RTOS/cmsis_os.c **** /*
 103:Middlewares/Third_Party/FreeRTOS/Source/CMSIS_RTOS/cmsis_os.c ****  * ARM Compiler 4/5
 104:Middlewares/Third_Party/FreeRTOS/Source/CMSIS_RTOS/cmsis_os.c ****  */
 105:Middlewares/Third_Party/FreeRTOS/Source/CMSIS_RTOS/cmsis_os.c **** #if   defined ( __CC_ARM )
 106:Middlewares/Third_Party/FreeRTOS/Source/CMSIS_RTOS/cmsis_os.c **** 
 107:Middlewares/Third_Party/FreeRTOS/Source/CMSIS_RTOS/cmsis_os.c ****   #define __ASM            __asm                                      
 108:Middlewares/Third_Party/FreeRTOS/Source/CMSIS_RTOS/cmsis_os.c ****   #define __INLINE         __inline                                     
 109:Middlewares/Third_Party/FreeRTOS/Source/CMSIS_RTOS/cmsis_os.c ****   #define __STATIC_INLINE  static __inline
 110:Middlewares/Third_Party/FreeRTOS/Source/CMSIS_RTOS/cmsis_os.c ****   #include "cmsis_armcc.h"
 111:Middlewares/Third_Party/FreeRTOS/Source/CMSIS_RTOS/cmsis_os.c **** 
 112:Middlewares/Third_Party/FreeRTOS/Source/CMSIS_RTOS/cmsis_os.c **** /*
 113:Middlewares/Third_Party/FreeRTOS/Source/CMSIS_RTOS/cmsis_os.c ****  * GNU Compiler
 114:Middlewares/Third_Party/FreeRTOS/Source/CMSIS_RTOS/cmsis_os.c ****  */
 115:Middlewares/Third_Party/FreeRTOS/Source/CMSIS_RTOS/cmsis_os.c **** #elif defined ( __GNUC__ )
 116:Middlewares/Third_Party/FreeRTOS/Source/CMSIS_RTOS/cmsis_os.c **** 
 117:Middlewares/Third_Party/FreeRTOS/Source/CMSIS_RTOS/cmsis_os.c ****   #define __ASM            __asm                                      /*!< asm keyword for GNU Comp
 118:Middlewares/Third_Party/FreeRTOS/Source/CMSIS_RTOS/cmsis_os.c ****   #define __INLINE         inline                                     /*!< inline keyword for GNU C
 119:Middlewares/Third_Party/FreeRTOS/Source/CMSIS_RTOS/cmsis_os.c ****   #define __STATIC_INLINE  static inline
 120:Middlewares/Third_Party/FreeRTOS/Source/CMSIS_RTOS/cmsis_os.c **** 
 121:Middlewares/Third_Party/FreeRTOS/Source/CMSIS_RTOS/cmsis_os.c **** 
 122:Middlewares/Third_Party/FreeRTOS/Source/CMSIS_RTOS/cmsis_os.c ****   #include "cmsis_gcc.h"
 123:Middlewares/Third_Party/FreeRTOS/Source/CMSIS_RTOS/cmsis_os.c **** 
 124:Middlewares/Third_Party/FreeRTOS/Source/CMSIS_RTOS/cmsis_os.c **** 
 125:Middlewares/Third_Party/FreeRTOS/Source/CMSIS_RTOS/cmsis_os.c **** /*
 126:Middlewares/Third_Party/FreeRTOS/Source/CMSIS_RTOS/cmsis_os.c ****  * IAR Compiler
 127:Middlewares/Third_Party/FreeRTOS/Source/CMSIS_RTOS/cmsis_os.c ****  */
 128:Middlewares/Third_Party/FreeRTOS/Source/CMSIS_RTOS/cmsis_os.c **** #elif defined ( __ICCARM__ )
 129:Middlewares/Third_Party/FreeRTOS/Source/CMSIS_RTOS/cmsis_os.c **** 
 130:Middlewares/Third_Party/FreeRTOS/Source/CMSIS_RTOS/cmsis_os.c ****   #ifndef   __ASM
 131:Middlewares/Third_Party/FreeRTOS/Source/CMSIS_RTOS/cmsis_os.c ****     #define __ASM                     __asm
 132:Middlewares/Third_Party/FreeRTOS/Source/CMSIS_RTOS/cmsis_os.c ****   #endif
 133:Middlewares/Third_Party/FreeRTOS/Source/CMSIS_RTOS/cmsis_os.c ****   #ifndef   __INLINE
 134:Middlewares/Third_Party/FreeRTOS/Source/CMSIS_RTOS/cmsis_os.c ****     #define __INLINE                  inline
 135:Middlewares/Third_Party/FreeRTOS/Source/CMSIS_RTOS/cmsis_os.c ****   #endif
 136:Middlewares/Third_Party/FreeRTOS/Source/CMSIS_RTOS/cmsis_os.c ****   #ifndef   __STATIC_INLINE
 137:Middlewares/Third_Party/FreeRTOS/Source/CMSIS_RTOS/cmsis_os.c ****     #define __STATIC_INLINE           static inline
 138:Middlewares/Third_Party/FreeRTOS/Source/CMSIS_RTOS/cmsis_os.c ****   #endif
 139:Middlewares/Third_Party/FreeRTOS/Source/CMSIS_RTOS/cmsis_os.c **** 
 140:Middlewares/Third_Party/FreeRTOS/Source/CMSIS_RTOS/cmsis_os.c ****   #include <cmsis_iar.h>
 141:Middlewares/Third_Party/FreeRTOS/Source/CMSIS_RTOS/cmsis_os.c **** #endif
 142:Middlewares/Third_Party/FreeRTOS/Source/CMSIS_RTOS/cmsis_os.c **** 
 143:Middlewares/Third_Party/FreeRTOS/Source/CMSIS_RTOS/cmsis_os.c **** extern void xPortSysTickHandler(void);
 144:Middlewares/Third_Party/FreeRTOS/Source/CMSIS_RTOS/cmsis_os.c **** 
 145:Middlewares/Third_Party/FreeRTOS/Source/CMSIS_RTOS/cmsis_os.c **** /* Convert from CMSIS type osPriority to FreeRTOS priority number */
ARM GAS  /tmp/ccSFdtfu.s 			page 4


 146:Middlewares/Third_Party/FreeRTOS/Source/CMSIS_RTOS/cmsis_os.c **** static unsigned portBASE_TYPE makeFreeRtosPriority (osPriority priority)
 147:Middlewares/Third_Party/FreeRTOS/Source/CMSIS_RTOS/cmsis_os.c **** {
 148:Middlewares/Third_Party/FreeRTOS/Source/CMSIS_RTOS/cmsis_os.c ****   unsigned portBASE_TYPE fpriority = tskIDLE_PRIORITY;
 149:Middlewares/Third_Party/FreeRTOS/Source/CMSIS_RTOS/cmsis_os.c ****   
 150:Middlewares/Third_Party/FreeRTOS/Source/CMSIS_RTOS/cmsis_os.c ****   if (priority != osPriorityError) {
 151:Middlewares/Third_Party/FreeRTOS/Source/CMSIS_RTOS/cmsis_os.c ****     fpriority += (priority - osPriorityIdle);
 152:Middlewares/Third_Party/FreeRTOS/Source/CMSIS_RTOS/cmsis_os.c ****   }
 153:Middlewares/Third_Party/FreeRTOS/Source/CMSIS_RTOS/cmsis_os.c ****   
 154:Middlewares/Third_Party/FreeRTOS/Source/CMSIS_RTOS/cmsis_os.c ****   return fpriority;
 155:Middlewares/Third_Party/FreeRTOS/Source/CMSIS_RTOS/cmsis_os.c **** }
 156:Middlewares/Third_Party/FreeRTOS/Source/CMSIS_RTOS/cmsis_os.c **** 
 157:Middlewares/Third_Party/FreeRTOS/Source/CMSIS_RTOS/cmsis_os.c **** #if (INCLUDE_uxTaskPriorityGet == 1)
 158:Middlewares/Third_Party/FreeRTOS/Source/CMSIS_RTOS/cmsis_os.c **** /* Convert from FreeRTOS priority number to CMSIS type osPriority */
 159:Middlewares/Third_Party/FreeRTOS/Source/CMSIS_RTOS/cmsis_os.c **** static osPriority makeCmsisPriority (unsigned portBASE_TYPE fpriority)
 160:Middlewares/Third_Party/FreeRTOS/Source/CMSIS_RTOS/cmsis_os.c **** {
 161:Middlewares/Third_Party/FreeRTOS/Source/CMSIS_RTOS/cmsis_os.c ****   osPriority priority = osPriorityError;
 162:Middlewares/Third_Party/FreeRTOS/Source/CMSIS_RTOS/cmsis_os.c ****   
 163:Middlewares/Third_Party/FreeRTOS/Source/CMSIS_RTOS/cmsis_os.c ****   if ((fpriority - tskIDLE_PRIORITY) <= (osPriorityRealtime - osPriorityIdle)) {
 164:Middlewares/Third_Party/FreeRTOS/Source/CMSIS_RTOS/cmsis_os.c ****     priority = (osPriority)((int)osPriorityIdle + (int)(fpriority - tskIDLE_PRIORITY));
 165:Middlewares/Third_Party/FreeRTOS/Source/CMSIS_RTOS/cmsis_os.c ****   }
 166:Middlewares/Third_Party/FreeRTOS/Source/CMSIS_RTOS/cmsis_os.c ****   
 167:Middlewares/Third_Party/FreeRTOS/Source/CMSIS_RTOS/cmsis_os.c ****   return priority;
 168:Middlewares/Third_Party/FreeRTOS/Source/CMSIS_RTOS/cmsis_os.c **** }
 169:Middlewares/Third_Party/FreeRTOS/Source/CMSIS_RTOS/cmsis_os.c **** #endif
 170:Middlewares/Third_Party/FreeRTOS/Source/CMSIS_RTOS/cmsis_os.c **** 
 171:Middlewares/Third_Party/FreeRTOS/Source/CMSIS_RTOS/cmsis_os.c **** 
 172:Middlewares/Third_Party/FreeRTOS/Source/CMSIS_RTOS/cmsis_os.c **** /* Determine whether we are in thread mode or handler mode. */
 173:Middlewares/Third_Party/FreeRTOS/Source/CMSIS_RTOS/cmsis_os.c **** static int inHandlerMode (void)
 174:Middlewares/Third_Party/FreeRTOS/Source/CMSIS_RTOS/cmsis_os.c **** {
 175:Middlewares/Third_Party/FreeRTOS/Source/CMSIS_RTOS/cmsis_os.c ****   return __get_IPSR() != 0;
 176:Middlewares/Third_Party/FreeRTOS/Source/CMSIS_RTOS/cmsis_os.c **** }
 177:Middlewares/Third_Party/FreeRTOS/Source/CMSIS_RTOS/cmsis_os.c **** 
 178:Middlewares/Third_Party/FreeRTOS/Source/CMSIS_RTOS/cmsis_os.c **** /*********************** Kernel Control Functions *****************************/
 179:Middlewares/Third_Party/FreeRTOS/Source/CMSIS_RTOS/cmsis_os.c **** /**
 180:Middlewares/Third_Party/FreeRTOS/Source/CMSIS_RTOS/cmsis_os.c **** * @brief  Initialize the RTOS Kernel for creating objects.
 181:Middlewares/Third_Party/FreeRTOS/Source/CMSIS_RTOS/cmsis_os.c **** * @retval status code that indicates the execution status of the function.
 182:Middlewares/Third_Party/FreeRTOS/Source/CMSIS_RTOS/cmsis_os.c **** * @note   MUST REMAIN UNCHANGED: \b osKernelInitialize shall be consistent in every CMSIS-RTOS.
 183:Middlewares/Third_Party/FreeRTOS/Source/CMSIS_RTOS/cmsis_os.c **** */
 184:Middlewares/Third_Party/FreeRTOS/Source/CMSIS_RTOS/cmsis_os.c **** osStatus osKernelInitialize (void);
 185:Middlewares/Third_Party/FreeRTOS/Source/CMSIS_RTOS/cmsis_os.c **** 
 186:Middlewares/Third_Party/FreeRTOS/Source/CMSIS_RTOS/cmsis_os.c **** /**
 187:Middlewares/Third_Party/FreeRTOS/Source/CMSIS_RTOS/cmsis_os.c **** * @brief  Start the RTOS Kernel with executing the specified thread.
 188:Middlewares/Third_Party/FreeRTOS/Source/CMSIS_RTOS/cmsis_os.c **** * @param  thread_def    thread definition referenced with \ref osThread.
 189:Middlewares/Third_Party/FreeRTOS/Source/CMSIS_RTOS/cmsis_os.c **** * @param  argument      pointer that is passed to the thread function as start argument.
 190:Middlewares/Third_Party/FreeRTOS/Source/CMSIS_RTOS/cmsis_os.c **** * @retval status code that indicates the execution status of the function
 191:Middlewares/Third_Party/FreeRTOS/Source/CMSIS_RTOS/cmsis_os.c **** * @note   MUST REMAIN UNCHANGED: \b osKernelStart shall be consistent in every CMSIS-RTOS.
 192:Middlewares/Third_Party/FreeRTOS/Source/CMSIS_RTOS/cmsis_os.c **** */
 193:Middlewares/Third_Party/FreeRTOS/Source/CMSIS_RTOS/cmsis_os.c **** osStatus osKernelStart (void)
 194:Middlewares/Third_Party/FreeRTOS/Source/CMSIS_RTOS/cmsis_os.c **** {
  28              		.loc 1 194 1 view -0
  29              		.cfi_startproc
  30              		@ args = 0, pretend = 0, frame = 0
  31              		@ frame_needed = 0, uses_anonymous_args = 0
 195:Middlewares/Third_Party/FreeRTOS/Source/CMSIS_RTOS/cmsis_os.c ****   vTaskStartScheduler();
  32              		.loc 1 195 3 view .LVU1
 194:Middlewares/Third_Party/FreeRTOS/Source/CMSIS_RTOS/cmsis_os.c ****   vTaskStartScheduler();
  33              		.loc 1 194 1 is_stmt 0 view .LVU2
ARM GAS  /tmp/ccSFdtfu.s 			page 5


  34 0000 10B5     		push	{r4, lr}
  35              	.LCFI0:
  36              		.cfi_def_cfa_offset 8
  37              		.cfi_offset 4, -8
  38              		.cfi_offset 14, -4
  39              		.loc 1 195 3 view .LVU3
  40 0002 FFF7FEFF 		bl	vTaskStartScheduler
  41              	.LVL0:
 196:Middlewares/Third_Party/FreeRTOS/Source/CMSIS_RTOS/cmsis_os.c ****   
 197:Middlewares/Third_Party/FreeRTOS/Source/CMSIS_RTOS/cmsis_os.c ****   return osOK;
  42              		.loc 1 197 3 is_stmt 1 view .LVU4
 198:Middlewares/Third_Party/FreeRTOS/Source/CMSIS_RTOS/cmsis_os.c **** }
  43              		.loc 1 198 1 is_stmt 0 view .LVU5
  44              		@ sp needed
  45 0006 0020     		movs	r0, #0
  46 0008 10BD     		pop	{r4, pc}
  47              		.cfi_endproc
  48              	.LFE40:
  50 000a C046     		.section	.text.osKernelRunning,"ax",%progbits
  51              		.align	1
  52              		.p2align 2,,3
  53              		.global	osKernelRunning
  54              		.syntax unified
  55              		.code	16
  56              		.thumb_func
  57              		.fpu softvfp
  59              	osKernelRunning:
  60              	.LFB41:
 199:Middlewares/Third_Party/FreeRTOS/Source/CMSIS_RTOS/cmsis_os.c **** 
 200:Middlewares/Third_Party/FreeRTOS/Source/CMSIS_RTOS/cmsis_os.c **** /**
 201:Middlewares/Third_Party/FreeRTOS/Source/CMSIS_RTOS/cmsis_os.c **** * @brief  Check if the RTOS kernel is already started
 202:Middlewares/Third_Party/FreeRTOS/Source/CMSIS_RTOS/cmsis_os.c **** * @param  None
 203:Middlewares/Third_Party/FreeRTOS/Source/CMSIS_RTOS/cmsis_os.c **** * @retval (0) RTOS is not started
 204:Middlewares/Third_Party/FreeRTOS/Source/CMSIS_RTOS/cmsis_os.c **** *         (1) RTOS is started
 205:Middlewares/Third_Party/FreeRTOS/Source/CMSIS_RTOS/cmsis_os.c **** *         (-1) if this feature is disabled in FreeRTOSConfig.h 
 206:Middlewares/Third_Party/FreeRTOS/Source/CMSIS_RTOS/cmsis_os.c **** * @note  MUST REMAIN UNCHANGED: \b osKernelRunning shall be consistent in every CMSIS-RTOS.
 207:Middlewares/Third_Party/FreeRTOS/Source/CMSIS_RTOS/cmsis_os.c **** */
 208:Middlewares/Third_Party/FreeRTOS/Source/CMSIS_RTOS/cmsis_os.c **** int32_t osKernelRunning(void)
 209:Middlewares/Third_Party/FreeRTOS/Source/CMSIS_RTOS/cmsis_os.c **** {
  61              		.loc 1 209 1 is_stmt 1 view -0
  62              		.cfi_startproc
  63              		@ args = 0, pretend = 0, frame = 0
  64              		@ frame_needed = 0, uses_anonymous_args = 0
 210:Middlewares/Third_Party/FreeRTOS/Source/CMSIS_RTOS/cmsis_os.c **** #if ( ( INCLUDE_xTaskGetSchedulerState == 1 ) || ( configUSE_TIMERS == 1 ) )
 211:Middlewares/Third_Party/FreeRTOS/Source/CMSIS_RTOS/cmsis_os.c ****   if (xTaskGetSchedulerState() == taskSCHEDULER_NOT_STARTED)
  65              		.loc 1 211 3 view .LVU7
 209:Middlewares/Third_Party/FreeRTOS/Source/CMSIS_RTOS/cmsis_os.c **** #if ( ( INCLUDE_xTaskGetSchedulerState == 1 ) || ( configUSE_TIMERS == 1 ) )
  66              		.loc 1 209 1 is_stmt 0 view .LVU8
  67 0000 10B5     		push	{r4, lr}
  68              	.LCFI1:
  69              		.cfi_def_cfa_offset 8
  70              		.cfi_offset 4, -8
  71              		.cfi_offset 14, -4
  72              		.loc 1 211 7 view .LVU9
  73 0002 FFF7FEFF 		bl	xTaskGetSchedulerState
  74              	.LVL1:
  75              		.loc 1 211 6 view .LVU10
ARM GAS  /tmp/ccSFdtfu.s 			page 6


  76 0006 0138     		subs	r0, r0, #1
  77 0008 431E     		subs	r3, r0, #1
  78 000a 9841     		sbcs	r0, r0, r3
 212:Middlewares/Third_Party/FreeRTOS/Source/CMSIS_RTOS/cmsis_os.c ****     return 0;
 213:Middlewares/Third_Party/FreeRTOS/Source/CMSIS_RTOS/cmsis_os.c ****   else
 214:Middlewares/Third_Party/FreeRTOS/Source/CMSIS_RTOS/cmsis_os.c ****     return 1;
 215:Middlewares/Third_Party/FreeRTOS/Source/CMSIS_RTOS/cmsis_os.c **** #else
 216:Middlewares/Third_Party/FreeRTOS/Source/CMSIS_RTOS/cmsis_os.c **** 	return (-1);
 217:Middlewares/Third_Party/FreeRTOS/Source/CMSIS_RTOS/cmsis_os.c **** #endif	
 218:Middlewares/Third_Party/FreeRTOS/Source/CMSIS_RTOS/cmsis_os.c **** }
  79              		.loc 1 218 1 view .LVU11
  80              		@ sp needed
  81 000c 10BD     		pop	{r4, pc}
  82              		.cfi_endproc
  83              	.LFE41:
  85 000e C046     		.section	.text.osKernelSysTick,"ax",%progbits
  86              		.align	1
  87              		.p2align 2,,3
  88              		.global	osKernelSysTick
  89              		.syntax unified
  90              		.code	16
  91              		.thumb_func
  92              		.fpu softvfp
  94              	osKernelSysTick:
  95              	.LFB42:
 219:Middlewares/Third_Party/FreeRTOS/Source/CMSIS_RTOS/cmsis_os.c **** 
 220:Middlewares/Third_Party/FreeRTOS/Source/CMSIS_RTOS/cmsis_os.c **** #if (defined (osFeature_SysTick)  &&  (osFeature_SysTick != 0))     // System Timer available
 221:Middlewares/Third_Party/FreeRTOS/Source/CMSIS_RTOS/cmsis_os.c **** /**
 222:Middlewares/Third_Party/FreeRTOS/Source/CMSIS_RTOS/cmsis_os.c **** * @brief  Get the value of the Kernel SysTick timer
 223:Middlewares/Third_Party/FreeRTOS/Source/CMSIS_RTOS/cmsis_os.c **** * @param  None
 224:Middlewares/Third_Party/FreeRTOS/Source/CMSIS_RTOS/cmsis_os.c **** * @retval None
 225:Middlewares/Third_Party/FreeRTOS/Source/CMSIS_RTOS/cmsis_os.c **** * @note   MUST REMAIN UNCHANGED: \b osKernelSysTick shall be consistent in every CMSIS-RTOS.
 226:Middlewares/Third_Party/FreeRTOS/Source/CMSIS_RTOS/cmsis_os.c **** */
 227:Middlewares/Third_Party/FreeRTOS/Source/CMSIS_RTOS/cmsis_os.c **** uint32_t osKernelSysTick(void)
 228:Middlewares/Third_Party/FreeRTOS/Source/CMSIS_RTOS/cmsis_os.c **** {
  96              		.loc 1 228 1 is_stmt 1 view -0
  97              		.cfi_startproc
  98              		@ args = 0, pretend = 0, frame = 0
  99              		@ frame_needed = 0, uses_anonymous_args = 0
 229:Middlewares/Third_Party/FreeRTOS/Source/CMSIS_RTOS/cmsis_os.c ****   if (inHandlerMode()) {
 100              		.loc 1 229 3 view .LVU13
 101              	.LBB92:
 102              	.LBI92:
 173:Middlewares/Third_Party/FreeRTOS/Source/CMSIS_RTOS/cmsis_os.c **** {
 103              		.loc 1 173 12 view .LVU14
 104              	.LBE92:
 175:Middlewares/Third_Party/FreeRTOS/Source/CMSIS_RTOS/cmsis_os.c **** }
 105              		.loc 1 175 3 view .LVU15
 106              	.LBB97:
 107              	.LBB93:
 108              	.LBI93:
 109              		.file 2 "Drivers/CMSIS/Include/cmsis_gcc.h"
   1:Drivers/CMSIS/Include/cmsis_gcc.h **** /**************************************************************************//**
   2:Drivers/CMSIS/Include/cmsis_gcc.h ****  * @file     cmsis_gcc.h
   3:Drivers/CMSIS/Include/cmsis_gcc.h ****  * @brief    CMSIS Cortex-M Core Function/Instruction Header File
   4:Drivers/CMSIS/Include/cmsis_gcc.h ****  * @version  V4.30
   5:Drivers/CMSIS/Include/cmsis_gcc.h ****  * @date     20. October 2015
ARM GAS  /tmp/ccSFdtfu.s 			page 7


   6:Drivers/CMSIS/Include/cmsis_gcc.h ****  ******************************************************************************/
   7:Drivers/CMSIS/Include/cmsis_gcc.h **** /* Copyright (c) 2009 - 2015 ARM LIMITED
   8:Drivers/CMSIS/Include/cmsis_gcc.h **** 
   9:Drivers/CMSIS/Include/cmsis_gcc.h ****    All rights reserved.
  10:Drivers/CMSIS/Include/cmsis_gcc.h ****    Redistribution and use in source and binary forms, with or without
  11:Drivers/CMSIS/Include/cmsis_gcc.h ****    modification, are permitted provided that the following conditions are met:
  12:Drivers/CMSIS/Include/cmsis_gcc.h ****    - Redistributions of source code must retain the above copyright
  13:Drivers/CMSIS/Include/cmsis_gcc.h ****      notice, this list of conditions and the following disclaimer.
  14:Drivers/CMSIS/Include/cmsis_gcc.h ****    - Redistributions in binary form must reproduce the above copyright
  15:Drivers/CMSIS/Include/cmsis_gcc.h ****      notice, this list of conditions and the following disclaimer in the
  16:Drivers/CMSIS/Include/cmsis_gcc.h ****      documentation and/or other materials provided with the distribution.
  17:Drivers/CMSIS/Include/cmsis_gcc.h ****    - Neither the name of ARM nor the names of its contributors may be used
  18:Drivers/CMSIS/Include/cmsis_gcc.h ****      to endorse or promote products derived from this software without
  19:Drivers/CMSIS/Include/cmsis_gcc.h ****      specific prior written permission.
  20:Drivers/CMSIS/Include/cmsis_gcc.h ****    *
  21:Drivers/CMSIS/Include/cmsis_gcc.h ****    THIS SOFTWARE IS PROVIDED BY THE COPYRIGHT HOLDERS AND CONTRIBUTORS "AS IS"
  22:Drivers/CMSIS/Include/cmsis_gcc.h ****    AND ANY EXPRESS OR IMPLIED WARRANTIES, INCLUDING, BUT NOT LIMITED TO, THE
  23:Drivers/CMSIS/Include/cmsis_gcc.h ****    IMPLIED WARRANTIES OF MERCHANTABILITY AND FITNESS FOR A PARTICULAR PURPOSE
  24:Drivers/CMSIS/Include/cmsis_gcc.h ****    ARE DISCLAIMED. IN NO EVENT SHALL COPYRIGHT HOLDERS AND CONTRIBUTORS BE
  25:Drivers/CMSIS/Include/cmsis_gcc.h ****    LIABLE FOR ANY DIRECT, INDIRECT, INCIDENTAL, SPECIAL, EXEMPLARY, OR
  26:Drivers/CMSIS/Include/cmsis_gcc.h ****    CONSEQUENTIAL DAMAGES (INCLUDING, BUT NOT LIMITED TO, PROCUREMENT OF
  27:Drivers/CMSIS/Include/cmsis_gcc.h ****    SUBSTITUTE GOODS OR SERVICES; LOSS OF USE, DATA, OR PROFITS; OR BUSINESS
  28:Drivers/CMSIS/Include/cmsis_gcc.h ****    INTERRUPTION) HOWEVER CAUSED AND ON ANY THEORY OF LIABILITY, WHETHER IN
  29:Drivers/CMSIS/Include/cmsis_gcc.h ****    CONTRACT, STRICT LIABILITY, OR TORT (INCLUDING NEGLIGENCE OR OTHERWISE)
  30:Drivers/CMSIS/Include/cmsis_gcc.h ****    ARISING IN ANY WAY OUT OF THE USE OF THIS SOFTWARE, EVEN IF ADVISED OF THE
  31:Drivers/CMSIS/Include/cmsis_gcc.h ****    POSSIBILITY OF SUCH DAMAGE.
  32:Drivers/CMSIS/Include/cmsis_gcc.h ****    ---------------------------------------------------------------------------*/
  33:Drivers/CMSIS/Include/cmsis_gcc.h **** 
  34:Drivers/CMSIS/Include/cmsis_gcc.h **** 
  35:Drivers/CMSIS/Include/cmsis_gcc.h **** #ifndef __CMSIS_GCC_H
  36:Drivers/CMSIS/Include/cmsis_gcc.h **** #define __CMSIS_GCC_H
  37:Drivers/CMSIS/Include/cmsis_gcc.h **** 
  38:Drivers/CMSIS/Include/cmsis_gcc.h **** /* ignore some GCC warnings */
  39:Drivers/CMSIS/Include/cmsis_gcc.h **** #if defined ( __GNUC__ )
  40:Drivers/CMSIS/Include/cmsis_gcc.h **** #pragma GCC diagnostic push
  41:Drivers/CMSIS/Include/cmsis_gcc.h **** #pragma GCC diagnostic ignored "-Wsign-conversion"
  42:Drivers/CMSIS/Include/cmsis_gcc.h **** #pragma GCC diagnostic ignored "-Wconversion"
  43:Drivers/CMSIS/Include/cmsis_gcc.h **** #pragma GCC diagnostic ignored "-Wunused-parameter"
  44:Drivers/CMSIS/Include/cmsis_gcc.h **** #endif
  45:Drivers/CMSIS/Include/cmsis_gcc.h **** 
  46:Drivers/CMSIS/Include/cmsis_gcc.h **** 
  47:Drivers/CMSIS/Include/cmsis_gcc.h **** /* ###########################  Core Function Access  ########################### */
  48:Drivers/CMSIS/Include/cmsis_gcc.h **** /** \ingroup  CMSIS_Core_FunctionInterface
  49:Drivers/CMSIS/Include/cmsis_gcc.h ****     \defgroup CMSIS_Core_RegAccFunctions CMSIS Core Register Access Functions
  50:Drivers/CMSIS/Include/cmsis_gcc.h ****   @{
  51:Drivers/CMSIS/Include/cmsis_gcc.h ****  */
  52:Drivers/CMSIS/Include/cmsis_gcc.h **** 
  53:Drivers/CMSIS/Include/cmsis_gcc.h **** /**
  54:Drivers/CMSIS/Include/cmsis_gcc.h ****   \brief   Enable IRQ Interrupts
  55:Drivers/CMSIS/Include/cmsis_gcc.h ****   \details Enables IRQ interrupts by clearing the I-bit in the CPSR.
  56:Drivers/CMSIS/Include/cmsis_gcc.h ****            Can only be executed in Privileged modes.
  57:Drivers/CMSIS/Include/cmsis_gcc.h ****  */
  58:Drivers/CMSIS/Include/cmsis_gcc.h **** __attribute__( ( always_inline ) ) __STATIC_INLINE void __enable_irq(void)
  59:Drivers/CMSIS/Include/cmsis_gcc.h **** {
  60:Drivers/CMSIS/Include/cmsis_gcc.h ****   __ASM volatile ("cpsie i" : : : "memory");
  61:Drivers/CMSIS/Include/cmsis_gcc.h **** }
  62:Drivers/CMSIS/Include/cmsis_gcc.h **** 
ARM GAS  /tmp/ccSFdtfu.s 			page 8


  63:Drivers/CMSIS/Include/cmsis_gcc.h **** 
  64:Drivers/CMSIS/Include/cmsis_gcc.h **** /**
  65:Drivers/CMSIS/Include/cmsis_gcc.h ****   \brief   Disable IRQ Interrupts
  66:Drivers/CMSIS/Include/cmsis_gcc.h ****   \details Disables IRQ interrupts by setting the I-bit in the CPSR.
  67:Drivers/CMSIS/Include/cmsis_gcc.h ****   Can only be executed in Privileged modes.
  68:Drivers/CMSIS/Include/cmsis_gcc.h ****  */
  69:Drivers/CMSIS/Include/cmsis_gcc.h **** __attribute__( ( always_inline ) ) __STATIC_INLINE void __disable_irq(void)
  70:Drivers/CMSIS/Include/cmsis_gcc.h **** {
  71:Drivers/CMSIS/Include/cmsis_gcc.h ****   __ASM volatile ("cpsid i" : : : "memory");
  72:Drivers/CMSIS/Include/cmsis_gcc.h **** }
  73:Drivers/CMSIS/Include/cmsis_gcc.h **** 
  74:Drivers/CMSIS/Include/cmsis_gcc.h **** 
  75:Drivers/CMSIS/Include/cmsis_gcc.h **** /**
  76:Drivers/CMSIS/Include/cmsis_gcc.h ****   \brief   Get Control Register
  77:Drivers/CMSIS/Include/cmsis_gcc.h ****   \details Returns the content of the Control Register.
  78:Drivers/CMSIS/Include/cmsis_gcc.h ****   \return               Control Register value
  79:Drivers/CMSIS/Include/cmsis_gcc.h ****  */
  80:Drivers/CMSIS/Include/cmsis_gcc.h **** __attribute__( ( always_inline ) ) __STATIC_INLINE uint32_t __get_CONTROL(void)
  81:Drivers/CMSIS/Include/cmsis_gcc.h **** {
  82:Drivers/CMSIS/Include/cmsis_gcc.h ****   uint32_t result;
  83:Drivers/CMSIS/Include/cmsis_gcc.h **** 
  84:Drivers/CMSIS/Include/cmsis_gcc.h ****   __ASM volatile ("MRS %0, control" : "=r" (result) );
  85:Drivers/CMSIS/Include/cmsis_gcc.h ****   return(result);
  86:Drivers/CMSIS/Include/cmsis_gcc.h **** }
  87:Drivers/CMSIS/Include/cmsis_gcc.h **** 
  88:Drivers/CMSIS/Include/cmsis_gcc.h **** 
  89:Drivers/CMSIS/Include/cmsis_gcc.h **** /**
  90:Drivers/CMSIS/Include/cmsis_gcc.h ****   \brief   Set Control Register
  91:Drivers/CMSIS/Include/cmsis_gcc.h ****   \details Writes the given value to the Control Register.
  92:Drivers/CMSIS/Include/cmsis_gcc.h ****   \param [in]    control  Control Register value to set
  93:Drivers/CMSIS/Include/cmsis_gcc.h ****  */
  94:Drivers/CMSIS/Include/cmsis_gcc.h **** __attribute__( ( always_inline ) ) __STATIC_INLINE void __set_CONTROL(uint32_t control)
  95:Drivers/CMSIS/Include/cmsis_gcc.h **** {
  96:Drivers/CMSIS/Include/cmsis_gcc.h ****   __ASM volatile ("MSR control, %0" : : "r" (control) : "memory");
  97:Drivers/CMSIS/Include/cmsis_gcc.h **** }
  98:Drivers/CMSIS/Include/cmsis_gcc.h **** 
  99:Drivers/CMSIS/Include/cmsis_gcc.h **** 
 100:Drivers/CMSIS/Include/cmsis_gcc.h **** /**
 101:Drivers/CMSIS/Include/cmsis_gcc.h ****   \brief   Get IPSR Register
 102:Drivers/CMSIS/Include/cmsis_gcc.h ****   \details Returns the content of the IPSR Register.
 103:Drivers/CMSIS/Include/cmsis_gcc.h ****   \return               IPSR Register value
 104:Drivers/CMSIS/Include/cmsis_gcc.h ****  */
 105:Drivers/CMSIS/Include/cmsis_gcc.h **** __attribute__( ( always_inline ) ) __STATIC_INLINE uint32_t __get_IPSR(void)
 110              		.loc 2 105 61 view .LVU16
 111              	.LBB94:
 106:Drivers/CMSIS/Include/cmsis_gcc.h **** {
 107:Drivers/CMSIS/Include/cmsis_gcc.h ****   uint32_t result;
 112              		.loc 2 107 3 view .LVU17
 108:Drivers/CMSIS/Include/cmsis_gcc.h **** 
 109:Drivers/CMSIS/Include/cmsis_gcc.h ****   __ASM volatile ("MRS %0, ipsr" : "=r" (result) );
 113              		.loc 2 109 3 view .LVU18
 114              	.LBE94:
 115              	.LBE93:
 116              	.LBE97:
 228:Middlewares/Third_Party/FreeRTOS/Source/CMSIS_RTOS/cmsis_os.c ****   if (inHandlerMode()) {
 117              		.loc 1 228 1 is_stmt 0 view .LVU19
 118 0000 10B5     		push	{r4, lr}
ARM GAS  /tmp/ccSFdtfu.s 			page 9


 119              	.LCFI2:
 120              		.cfi_def_cfa_offset 8
 121              		.cfi_offset 4, -8
 122              		.cfi_offset 14, -4
 123              	.LBB98:
 124              	.LBB96:
 125              	.LBB95:
 126              		.loc 2 109 3 view .LVU20
 127              		.syntax divided
 128              	@ 109 "Drivers/CMSIS/Include/cmsis_gcc.h" 1
 129 0002 EFF30583 		MRS r3, ipsr
 130              	@ 0 "" 2
 131              	.LVL2:
 110:Drivers/CMSIS/Include/cmsis_gcc.h ****   return(result);
 132              		.loc 2 110 3 is_stmt 1 view .LVU21
 133              		.loc 2 110 3 is_stmt 0 view .LVU22
 134              		.thumb
 135              		.syntax unified
 136              	.LBE95:
 137              	.LBE96:
 138              	.LBE98:
 139              		.loc 1 229 6 view .LVU23
 140 0006 002B     		cmp	r3, #0
 141 0008 02D0     		beq	.L5
 230:Middlewares/Third_Party/FreeRTOS/Source/CMSIS_RTOS/cmsis_os.c ****     return xTaskGetTickCountFromISR();
 142              		.loc 1 230 5 is_stmt 1 view .LVU24
 143              		.loc 1 230 12 is_stmt 0 view .LVU25
 144 000a FFF7FEFF 		bl	xTaskGetTickCountFromISR
 145              	.LVL3:
 146              	.L4:
 231:Middlewares/Third_Party/FreeRTOS/Source/CMSIS_RTOS/cmsis_os.c ****   }
 232:Middlewares/Third_Party/FreeRTOS/Source/CMSIS_RTOS/cmsis_os.c ****   else {
 233:Middlewares/Third_Party/FreeRTOS/Source/CMSIS_RTOS/cmsis_os.c ****     return xTaskGetTickCount();
 234:Middlewares/Third_Party/FreeRTOS/Source/CMSIS_RTOS/cmsis_os.c ****   }
 235:Middlewares/Third_Party/FreeRTOS/Source/CMSIS_RTOS/cmsis_os.c **** }
 147              		.loc 1 235 1 view .LVU26
 148              		@ sp needed
 149 000e 10BD     		pop	{r4, pc}
 150              	.L5:
 233:Middlewares/Third_Party/FreeRTOS/Source/CMSIS_RTOS/cmsis_os.c ****   }
 151              		.loc 1 233 5 is_stmt 1 view .LVU27
 233:Middlewares/Third_Party/FreeRTOS/Source/CMSIS_RTOS/cmsis_os.c ****   }
 152              		.loc 1 233 12 is_stmt 0 view .LVU28
 153 0010 FFF7FEFF 		bl	xTaskGetTickCount
 154              	.LVL4:
 155 0014 FBE7     		b	.L4
 156              		.cfi_endproc
 157              	.LFE42:
 159              		.section	.text.osThreadCreate,"ax",%progbits
 160              		.align	1
 161              		.p2align 2,,3
 162              		.global	osThreadCreate
 163              		.syntax unified
 164              		.code	16
 165              		.thumb_func
 166              		.fpu softvfp
 168              	osThreadCreate:
ARM GAS  /tmp/ccSFdtfu.s 			page 10


 169              	.LVL5:
 170              	.LFB43:
 236:Middlewares/Third_Party/FreeRTOS/Source/CMSIS_RTOS/cmsis_os.c **** #endif    // System Timer available
 237:Middlewares/Third_Party/FreeRTOS/Source/CMSIS_RTOS/cmsis_os.c **** /*********************** Thread Management *****************************/
 238:Middlewares/Third_Party/FreeRTOS/Source/CMSIS_RTOS/cmsis_os.c **** /**
 239:Middlewares/Third_Party/FreeRTOS/Source/CMSIS_RTOS/cmsis_os.c **** * @brief  Create a thread and add it to Active Threads and set it to state READY.
 240:Middlewares/Third_Party/FreeRTOS/Source/CMSIS_RTOS/cmsis_os.c **** * @param  thread_def    thread definition referenced with \ref osThread.
 241:Middlewares/Third_Party/FreeRTOS/Source/CMSIS_RTOS/cmsis_os.c **** * @param  argument      pointer that is passed to the thread function as start argument.
 242:Middlewares/Third_Party/FreeRTOS/Source/CMSIS_RTOS/cmsis_os.c **** * @retval thread ID for reference by other functions or NULL in case of error.
 243:Middlewares/Third_Party/FreeRTOS/Source/CMSIS_RTOS/cmsis_os.c **** * @note   MUST REMAIN UNCHANGED: \b osThreadCreate shall be consistent in every CMSIS-RTOS.
 244:Middlewares/Third_Party/FreeRTOS/Source/CMSIS_RTOS/cmsis_os.c **** */
 245:Middlewares/Third_Party/FreeRTOS/Source/CMSIS_RTOS/cmsis_os.c **** osThreadId osThreadCreate (const osThreadDef_t *thread_def, void *argument)
 246:Middlewares/Third_Party/FreeRTOS/Source/CMSIS_RTOS/cmsis_os.c **** {
 171              		.loc 1 246 1 is_stmt 1 view -0
 172              		.cfi_startproc
 173              		@ args = 0, pretend = 0, frame = 8
 174              		@ frame_needed = 0, uses_anonymous_args = 0
 247:Middlewares/Third_Party/FreeRTOS/Source/CMSIS_RTOS/cmsis_os.c ****   TaskHandle_t handle;
 175              		.loc 1 247 3 view .LVU30
 248:Middlewares/Third_Party/FreeRTOS/Source/CMSIS_RTOS/cmsis_os.c ****   
 249:Middlewares/Third_Party/FreeRTOS/Source/CMSIS_RTOS/cmsis_os.c **** #if( configSUPPORT_STATIC_ALLOCATION == 1 ) &&  ( configSUPPORT_DYNAMIC_ALLOCATION == 1 )
 250:Middlewares/Third_Party/FreeRTOS/Source/CMSIS_RTOS/cmsis_os.c ****   if((thread_def->buffer != NULL) && (thread_def->controlblock != NULL)) {
 251:Middlewares/Third_Party/FreeRTOS/Source/CMSIS_RTOS/cmsis_os.c ****     handle = xTaskCreateStatic((TaskFunction_t)thread_def->pthread,(const portCHAR *)thread_def->na
 252:Middlewares/Third_Party/FreeRTOS/Source/CMSIS_RTOS/cmsis_os.c ****               thread_def->stacksize, argument, makeFreeRtosPriority(thread_def->tpriority),
 253:Middlewares/Third_Party/FreeRTOS/Source/CMSIS_RTOS/cmsis_os.c ****               thread_def->buffer, thread_def->controlblock);
 254:Middlewares/Third_Party/FreeRTOS/Source/CMSIS_RTOS/cmsis_os.c ****   }
 255:Middlewares/Third_Party/FreeRTOS/Source/CMSIS_RTOS/cmsis_os.c ****   else {
 256:Middlewares/Third_Party/FreeRTOS/Source/CMSIS_RTOS/cmsis_os.c ****     if (xTaskCreate((TaskFunction_t)thread_def->pthread,(const portCHAR *)thread_def->name,
 257:Middlewares/Third_Party/FreeRTOS/Source/CMSIS_RTOS/cmsis_os.c ****               thread_def->stacksize, argument, makeFreeRtosPriority(thread_def->tpriority),
 258:Middlewares/Third_Party/FreeRTOS/Source/CMSIS_RTOS/cmsis_os.c ****               &handle) != pdPASS)  {
 259:Middlewares/Third_Party/FreeRTOS/Source/CMSIS_RTOS/cmsis_os.c ****       return NULL;
 260:Middlewares/Third_Party/FreeRTOS/Source/CMSIS_RTOS/cmsis_os.c ****     } 
 261:Middlewares/Third_Party/FreeRTOS/Source/CMSIS_RTOS/cmsis_os.c ****   }
 262:Middlewares/Third_Party/FreeRTOS/Source/CMSIS_RTOS/cmsis_os.c **** #elif( configSUPPORT_STATIC_ALLOCATION == 1 )
 263:Middlewares/Third_Party/FreeRTOS/Source/CMSIS_RTOS/cmsis_os.c **** 
 264:Middlewares/Third_Party/FreeRTOS/Source/CMSIS_RTOS/cmsis_os.c ****     handle = xTaskCreateStatic((TaskFunction_t)thread_def->pthread,(const portCHAR *)thread_def->na
 265:Middlewares/Third_Party/FreeRTOS/Source/CMSIS_RTOS/cmsis_os.c ****               thread_def->stacksize, argument, makeFreeRtosPriority(thread_def->tpriority),
 266:Middlewares/Third_Party/FreeRTOS/Source/CMSIS_RTOS/cmsis_os.c ****               thread_def->buffer, thread_def->controlblock);
 267:Middlewares/Third_Party/FreeRTOS/Source/CMSIS_RTOS/cmsis_os.c **** #else
 268:Middlewares/Third_Party/FreeRTOS/Source/CMSIS_RTOS/cmsis_os.c ****   if (xTaskCreate((TaskFunction_t)thread_def->pthread,(const portCHAR *)thread_def->name,
 176              		.loc 1 268 3 view .LVU31
 246:Middlewares/Third_Party/FreeRTOS/Source/CMSIS_RTOS/cmsis_os.c ****   TaskHandle_t handle;
 177              		.loc 1 246 1 is_stmt 0 view .LVU32
 178 0000 30B5     		push	{r4, r5, lr}
 179              	.LCFI3:
 180              		.cfi_def_cfa_offset 12
 181              		.cfi_offset 4, -12
 182              		.cfi_offset 5, -8
 183              		.cfi_offset 14, -4
 184 0002 0B00     		movs	r3, r1
 185              		.loc 1 268 45 view .LVU33
 186 0004 4568     		ldr	r5, [r0, #4]
 187              		.loc 1 268 83 view .LVU34
 188 0006 0168     		ldr	r1, [r0]
 189              	.LVL6:
 190              		.loc 1 268 7 view .LVU35
 191 0008 028A     		ldrh	r2, [r0, #16]
ARM GAS  /tmp/ccSFdtfu.s 			page 11


 192 000a 0824     		movs	r4, #8
 193 000c 045F     		ldrsh	r4, [r0, r4]
 194              	.LVL7:
 195              	.LBB99:
 196              	.LBI99:
 146:Middlewares/Third_Party/FreeRTOS/Source/CMSIS_RTOS/cmsis_os.c **** {
 197              		.loc 1 146 31 is_stmt 1 view .LVU36
 198              	.LBB100:
 148:Middlewares/Third_Party/FreeRTOS/Source/CMSIS_RTOS/cmsis_os.c ****   
 199              		.loc 1 148 3 view .LVU37
 150:Middlewares/Third_Party/FreeRTOS/Source/CMSIS_RTOS/cmsis_os.c ****     fpriority += (priority - osPriorityIdle);
 200              		.loc 1 150 3 view .LVU38
 201              	.LBE100:
 202              	.LBE99:
 246:Middlewares/Third_Party/FreeRTOS/Source/CMSIS_RTOS/cmsis_os.c ****   TaskHandle_t handle;
 203              		.loc 1 246 1 is_stmt 0 view .LVU39
 204 000e 85B0     		sub	sp, sp, #20
 205              	.LCFI4:
 206              		.cfi_def_cfa_offset 32
 207              	.LBB104:
 208              	.LBB101:
 150:Middlewares/Third_Party/FreeRTOS/Source/CMSIS_RTOS/cmsis_os.c ****     fpriority += (priority - osPriorityIdle);
 209              		.loc 1 150 6 view .LVU40
 210 0010 842C     		cmp	r4, #132
 211 0012 0BD0     		beq	.L10
 151:Middlewares/Third_Party/FreeRTOS/Source/CMSIS_RTOS/cmsis_os.c ****   }
 212              		.loc 1 151 5 is_stmt 1 view .LVU41
 213              	.LBE101:
 214              	.LBE104:
 215              		.loc 1 268 7 is_stmt 0 view .LVU42
 216 0014 03A8     		add	r0, sp, #12
 217              	.LBB105:
 218              	.LBB102:
 151:Middlewares/Third_Party/FreeRTOS/Source/CMSIS_RTOS/cmsis_os.c ****   }
 219              		.loc 1 151 15 view .LVU43
 220 0016 0334     		adds	r4, r4, #3
 221              	.LVL8:
 154:Middlewares/Third_Party/FreeRTOS/Source/CMSIS_RTOS/cmsis_os.c **** }
 222              		.loc 1 154 3 is_stmt 1 view .LVU44
 154:Middlewares/Third_Party/FreeRTOS/Source/CMSIS_RTOS/cmsis_os.c **** }
 223              		.loc 1 154 3 is_stmt 0 view .LVU45
 224              	.LBE102:
 225              	.LBE105:
 226              		.loc 1 268 7 view .LVU46
 227 0018 0190     		str	r0, [sp, #4]
 228 001a 0094     		str	r4, [sp]
 229 001c 2800     		movs	r0, r5
 230 001e FFF7FEFF 		bl	xTaskCreate
 231              	.LVL9:
 232              		.loc 1 268 6 view .LVU47
 233 0022 0128     		cmp	r0, #1
 234 0024 0BD1     		bne	.L11
 235              	.L12:
 269:Middlewares/Third_Party/FreeRTOS/Source/CMSIS_RTOS/cmsis_os.c ****                    thread_def->stacksize, argument, makeFreeRtosPriority(thread_def->tpriority),
 270:Middlewares/Third_Party/FreeRTOS/Source/CMSIS_RTOS/cmsis_os.c ****                    &handle) != pdPASS)  {
 271:Middlewares/Third_Party/FreeRTOS/Source/CMSIS_RTOS/cmsis_os.c ****     return NULL;
 272:Middlewares/Third_Party/FreeRTOS/Source/CMSIS_RTOS/cmsis_os.c ****   }     
ARM GAS  /tmp/ccSFdtfu.s 			page 12


 273:Middlewares/Third_Party/FreeRTOS/Source/CMSIS_RTOS/cmsis_os.c **** #endif
 274:Middlewares/Third_Party/FreeRTOS/Source/CMSIS_RTOS/cmsis_os.c ****   
 275:Middlewares/Third_Party/FreeRTOS/Source/CMSIS_RTOS/cmsis_os.c ****   return handle;
 236              		.loc 1 275 3 is_stmt 1 view .LVU48
 237              		.loc 1 275 10 is_stmt 0 view .LVU49
 238 0026 0398     		ldr	r0, [sp, #12]
 239              	.L7:
 276:Middlewares/Third_Party/FreeRTOS/Source/CMSIS_RTOS/cmsis_os.c **** }
 240              		.loc 1 276 1 view .LVU50
 241 0028 05B0     		add	sp, sp, #20
 242              		@ sp needed
 243 002a 30BD     		pop	{r4, r5, pc}
 244              	.LVL10:
 245              	.L10:
 246              	.LBB106:
 247              	.LBB103:
 148:Middlewares/Third_Party/FreeRTOS/Source/CMSIS_RTOS/cmsis_os.c ****   
 248              		.loc 1 148 26 view .LVU51
 249 002c 0024     		movs	r4, #0
 250              	.LVL11:
 154:Middlewares/Third_Party/FreeRTOS/Source/CMSIS_RTOS/cmsis_os.c **** }
 251              		.loc 1 154 3 is_stmt 1 view .LVU52
 154:Middlewares/Third_Party/FreeRTOS/Source/CMSIS_RTOS/cmsis_os.c **** }
 252              		.loc 1 154 3 is_stmt 0 view .LVU53
 253              	.LBE103:
 254              	.LBE106:
 268:Middlewares/Third_Party/FreeRTOS/Source/CMSIS_RTOS/cmsis_os.c ****                    thread_def->stacksize, argument, makeFreeRtosPriority(thread_def->tpriority),
 255              		.loc 1 268 7 view .LVU54
 256 002e 03A8     		add	r0, sp, #12
 257 0030 0190     		str	r0, [sp, #4]
 258 0032 0094     		str	r4, [sp]
 259 0034 2800     		movs	r0, r5
 260 0036 FFF7FEFF 		bl	xTaskCreate
 261              	.LVL12:
 268:Middlewares/Third_Party/FreeRTOS/Source/CMSIS_RTOS/cmsis_os.c ****                    thread_def->stacksize, argument, makeFreeRtosPriority(thread_def->tpriority),
 262              		.loc 1 268 6 view .LVU55
 263 003a 0128     		cmp	r0, #1
 264 003c F3D0     		beq	.L12
 265              	.L11:
 271:Middlewares/Third_Party/FreeRTOS/Source/CMSIS_RTOS/cmsis_os.c ****   }     
 266              		.loc 1 271 12 view .LVU56
 267 003e 0020     		movs	r0, #0
 268 0040 F2E7     		b	.L7
 269              		.cfi_endproc
 270              	.LFE43:
 272 0042 C046     		.section	.text.osThreadGetId,"ax",%progbits
 273              		.align	1
 274              		.p2align 2,,3
 275              		.global	osThreadGetId
 276              		.syntax unified
 277              		.code	16
 278              		.thumb_func
 279              		.fpu softvfp
 281              	osThreadGetId:
 282              	.LFB44:
 277:Middlewares/Third_Party/FreeRTOS/Source/CMSIS_RTOS/cmsis_os.c **** 
 278:Middlewares/Third_Party/FreeRTOS/Source/CMSIS_RTOS/cmsis_os.c **** /**
ARM GAS  /tmp/ccSFdtfu.s 			page 13


 279:Middlewares/Third_Party/FreeRTOS/Source/CMSIS_RTOS/cmsis_os.c **** * @brief  Return the thread ID of the current running thread.
 280:Middlewares/Third_Party/FreeRTOS/Source/CMSIS_RTOS/cmsis_os.c **** * @retval thread ID for reference by other functions or NULL in case of error.
 281:Middlewares/Third_Party/FreeRTOS/Source/CMSIS_RTOS/cmsis_os.c **** * @note   MUST REMAIN UNCHANGED: \b osThreadGetId shall be consistent in every CMSIS-RTOS.
 282:Middlewares/Third_Party/FreeRTOS/Source/CMSIS_RTOS/cmsis_os.c **** */
 283:Middlewares/Third_Party/FreeRTOS/Source/CMSIS_RTOS/cmsis_os.c **** osThreadId osThreadGetId (void)
 284:Middlewares/Third_Party/FreeRTOS/Source/CMSIS_RTOS/cmsis_os.c **** {
 283              		.loc 1 284 1 is_stmt 1 view -0
 284              		.cfi_startproc
 285              		@ args = 0, pretend = 0, frame = 0
 286              		@ frame_needed = 0, uses_anonymous_args = 0
 285:Middlewares/Third_Party/FreeRTOS/Source/CMSIS_RTOS/cmsis_os.c **** #if ( ( INCLUDE_xTaskGetCurrentTaskHandle == 1 ) || ( configUSE_MUTEXES == 1 ) )
 286:Middlewares/Third_Party/FreeRTOS/Source/CMSIS_RTOS/cmsis_os.c ****   return xTaskGetCurrentTaskHandle();
 287              		.loc 1 286 3 view .LVU58
 284:Middlewares/Third_Party/FreeRTOS/Source/CMSIS_RTOS/cmsis_os.c **** #if ( ( INCLUDE_xTaskGetCurrentTaskHandle == 1 ) || ( configUSE_MUTEXES == 1 ) )
 288              		.loc 1 284 1 is_stmt 0 view .LVU59
 289 0000 10B5     		push	{r4, lr}
 290              	.LCFI5:
 291              		.cfi_def_cfa_offset 8
 292              		.cfi_offset 4, -8
 293              		.cfi_offset 14, -4
 294              		.loc 1 286 10 view .LVU60
 295 0002 FFF7FEFF 		bl	xTaskGetCurrentTaskHandle
 296              	.LVL13:
 287:Middlewares/Third_Party/FreeRTOS/Source/CMSIS_RTOS/cmsis_os.c **** #else
 288:Middlewares/Third_Party/FreeRTOS/Source/CMSIS_RTOS/cmsis_os.c **** 	return NULL;
 289:Middlewares/Third_Party/FreeRTOS/Source/CMSIS_RTOS/cmsis_os.c **** #endif
 290:Middlewares/Third_Party/FreeRTOS/Source/CMSIS_RTOS/cmsis_os.c **** }
 297              		.loc 1 290 1 view .LVU61
 298              		@ sp needed
 299 0006 10BD     		pop	{r4, pc}
 300              		.cfi_endproc
 301              	.LFE44:
 303              		.section	.text.osThreadTerminate,"ax",%progbits
 304              		.align	1
 305              		.p2align 2,,3
 306              		.global	osThreadTerminate
 307              		.syntax unified
 308              		.code	16
 309              		.thumb_func
 310              		.fpu softvfp
 312              	osThreadTerminate:
 313              	.LVL14:
 314              	.LFB45:
 291:Middlewares/Third_Party/FreeRTOS/Source/CMSIS_RTOS/cmsis_os.c **** 
 292:Middlewares/Third_Party/FreeRTOS/Source/CMSIS_RTOS/cmsis_os.c **** /**
 293:Middlewares/Third_Party/FreeRTOS/Source/CMSIS_RTOS/cmsis_os.c **** * @brief  Terminate execution of a thread and remove it from Active Threads.
 294:Middlewares/Third_Party/FreeRTOS/Source/CMSIS_RTOS/cmsis_os.c **** * @param   thread_id   thread ID obtained by \ref osThreadCreate or \ref osThreadGetId.
 295:Middlewares/Third_Party/FreeRTOS/Source/CMSIS_RTOS/cmsis_os.c **** * @retval  status code that indicates the execution status of the function.
 296:Middlewares/Third_Party/FreeRTOS/Source/CMSIS_RTOS/cmsis_os.c **** * @note   MUST REMAIN UNCHANGED: \b osThreadTerminate shall be consistent in every CMSIS-RTOS.
 297:Middlewares/Third_Party/FreeRTOS/Source/CMSIS_RTOS/cmsis_os.c **** */
 298:Middlewares/Third_Party/FreeRTOS/Source/CMSIS_RTOS/cmsis_os.c **** osStatus osThreadTerminate (osThreadId thread_id)
 299:Middlewares/Third_Party/FreeRTOS/Source/CMSIS_RTOS/cmsis_os.c **** {
 315              		.loc 1 299 1 is_stmt 1 view -0
 316              		.cfi_startproc
 317              		@ args = 0, pretend = 0, frame = 0
 318              		@ frame_needed = 0, uses_anonymous_args = 0
 300:Middlewares/Third_Party/FreeRTOS/Source/CMSIS_RTOS/cmsis_os.c **** #if (INCLUDE_vTaskDelete == 1)
ARM GAS  /tmp/ccSFdtfu.s 			page 14


 301:Middlewares/Third_Party/FreeRTOS/Source/CMSIS_RTOS/cmsis_os.c ****   vTaskDelete(thread_id);
 319              		.loc 1 301 3 view .LVU63
 299:Middlewares/Third_Party/FreeRTOS/Source/CMSIS_RTOS/cmsis_os.c **** #if (INCLUDE_vTaskDelete == 1)
 320              		.loc 1 299 1 is_stmt 0 view .LVU64
 321 0000 10B5     		push	{r4, lr}
 322              	.LCFI6:
 323              		.cfi_def_cfa_offset 8
 324              		.cfi_offset 4, -8
 325              		.cfi_offset 14, -4
 326              		.loc 1 301 3 view .LVU65
 327 0002 FFF7FEFF 		bl	vTaskDelete
 328              	.LVL15:
 302:Middlewares/Third_Party/FreeRTOS/Source/CMSIS_RTOS/cmsis_os.c ****   return osOK;
 329              		.loc 1 302 3 is_stmt 1 view .LVU66
 303:Middlewares/Third_Party/FreeRTOS/Source/CMSIS_RTOS/cmsis_os.c **** #else
 304:Middlewares/Third_Party/FreeRTOS/Source/CMSIS_RTOS/cmsis_os.c ****   return osErrorOS;
 305:Middlewares/Third_Party/FreeRTOS/Source/CMSIS_RTOS/cmsis_os.c **** #endif
 306:Middlewares/Third_Party/FreeRTOS/Source/CMSIS_RTOS/cmsis_os.c **** }
 330              		.loc 1 306 1 is_stmt 0 view .LVU67
 331              		@ sp needed
 332 0006 0020     		movs	r0, #0
 333 0008 10BD     		pop	{r4, pc}
 334              		.cfi_endproc
 335              	.LFE45:
 337 000a C046     		.section	.text.osThreadYield,"ax",%progbits
 338              		.align	1
 339              		.p2align 2,,3
 340              		.global	osThreadYield
 341              		.syntax unified
 342              		.code	16
 343              		.thumb_func
 344              		.fpu softvfp
 346              	osThreadYield:
 347              	.LFB46:
 307:Middlewares/Third_Party/FreeRTOS/Source/CMSIS_RTOS/cmsis_os.c **** 
 308:Middlewares/Third_Party/FreeRTOS/Source/CMSIS_RTOS/cmsis_os.c **** /**
 309:Middlewares/Third_Party/FreeRTOS/Source/CMSIS_RTOS/cmsis_os.c **** * @brief  Pass control to next thread that is in state \b READY.
 310:Middlewares/Third_Party/FreeRTOS/Source/CMSIS_RTOS/cmsis_os.c **** * @retval status code that indicates the execution status of the function.
 311:Middlewares/Third_Party/FreeRTOS/Source/CMSIS_RTOS/cmsis_os.c **** * @note   MUST REMAIN UNCHANGED: \b osThreadYield shall be consistent in every CMSIS-RTOS.
 312:Middlewares/Third_Party/FreeRTOS/Source/CMSIS_RTOS/cmsis_os.c **** */
 313:Middlewares/Third_Party/FreeRTOS/Source/CMSIS_RTOS/cmsis_os.c **** osStatus osThreadYield (void)
 314:Middlewares/Third_Party/FreeRTOS/Source/CMSIS_RTOS/cmsis_os.c **** {
 348              		.loc 1 314 1 is_stmt 1 view -0
 349              		.cfi_startproc
 350              		@ args = 0, pretend = 0, frame = 0
 351              		@ frame_needed = 0, uses_anonymous_args = 0
 315:Middlewares/Third_Party/FreeRTOS/Source/CMSIS_RTOS/cmsis_os.c ****   taskYIELD();
 352              		.loc 1 315 3 view .LVU69
 314:Middlewares/Third_Party/FreeRTOS/Source/CMSIS_RTOS/cmsis_os.c ****   taskYIELD();
 353              		.loc 1 314 1 is_stmt 0 view .LVU70
 354 0000 10B5     		push	{r4, lr}
 355              	.LCFI7:
 356              		.cfi_def_cfa_offset 8
 357              		.cfi_offset 4, -8
 358              		.cfi_offset 14, -4
 359              		.loc 1 315 3 view .LVU71
 360 0002 FFF7FEFF 		bl	vPortYield
ARM GAS  /tmp/ccSFdtfu.s 			page 15


 361              	.LVL16:
 316:Middlewares/Third_Party/FreeRTOS/Source/CMSIS_RTOS/cmsis_os.c ****   
 317:Middlewares/Third_Party/FreeRTOS/Source/CMSIS_RTOS/cmsis_os.c ****   return osOK;
 362              		.loc 1 317 3 is_stmt 1 view .LVU72
 318:Middlewares/Third_Party/FreeRTOS/Source/CMSIS_RTOS/cmsis_os.c **** }
 363              		.loc 1 318 1 is_stmt 0 view .LVU73
 364              		@ sp needed
 365 0006 0020     		movs	r0, #0
 366 0008 10BD     		pop	{r4, pc}
 367              		.cfi_endproc
 368              	.LFE46:
 370 000a C046     		.section	.text.osThreadSetPriority,"ax",%progbits
 371              		.align	1
 372              		.p2align 2,,3
 373              		.global	osThreadSetPriority
 374              		.syntax unified
 375              		.code	16
 376              		.thumb_func
 377              		.fpu softvfp
 379              	osThreadSetPriority:
 380              	.LVL17:
 381              	.LFB47:
 319:Middlewares/Third_Party/FreeRTOS/Source/CMSIS_RTOS/cmsis_os.c **** 
 320:Middlewares/Third_Party/FreeRTOS/Source/CMSIS_RTOS/cmsis_os.c **** /**
 321:Middlewares/Third_Party/FreeRTOS/Source/CMSIS_RTOS/cmsis_os.c **** * @brief   Change priority of an active thread.
 322:Middlewares/Third_Party/FreeRTOS/Source/CMSIS_RTOS/cmsis_os.c **** * @param   thread_id     thread ID obtained by \ref osThreadCreate or \ref osThreadGetId.
 323:Middlewares/Third_Party/FreeRTOS/Source/CMSIS_RTOS/cmsis_os.c **** * @param   priority      new priority value for the thread function.
 324:Middlewares/Third_Party/FreeRTOS/Source/CMSIS_RTOS/cmsis_os.c **** * @retval  status code that indicates the execution status of the function.
 325:Middlewares/Third_Party/FreeRTOS/Source/CMSIS_RTOS/cmsis_os.c **** * @note   MUST REMAIN UNCHANGED: \b osThreadSetPriority shall be consistent in every CMSIS-RTOS.
 326:Middlewares/Third_Party/FreeRTOS/Source/CMSIS_RTOS/cmsis_os.c **** */
 327:Middlewares/Third_Party/FreeRTOS/Source/CMSIS_RTOS/cmsis_os.c **** osStatus osThreadSetPriority (osThreadId thread_id, osPriority priority)
 328:Middlewares/Third_Party/FreeRTOS/Source/CMSIS_RTOS/cmsis_os.c **** {
 382              		.loc 1 328 1 is_stmt 1 view -0
 383              		.cfi_startproc
 384              		@ args = 0, pretend = 0, frame = 0
 385              		@ frame_needed = 0, uses_anonymous_args = 0
 329:Middlewares/Third_Party/FreeRTOS/Source/CMSIS_RTOS/cmsis_os.c **** #if (INCLUDE_vTaskPrioritySet == 1)
 330:Middlewares/Third_Party/FreeRTOS/Source/CMSIS_RTOS/cmsis_os.c ****   vTaskPrioritySet(thread_id, makeFreeRtosPriority(priority));
 386              		.loc 1 330 3 view .LVU75
 387              	.LBB107:
 388              	.LBI107:
 146:Middlewares/Third_Party/FreeRTOS/Source/CMSIS_RTOS/cmsis_os.c **** {
 389              		.loc 1 146 31 view .LVU76
 390              	.LBB108:
 148:Middlewares/Third_Party/FreeRTOS/Source/CMSIS_RTOS/cmsis_os.c ****   
 391              		.loc 1 148 3 view .LVU77
 150:Middlewares/Third_Party/FreeRTOS/Source/CMSIS_RTOS/cmsis_os.c ****     fpriority += (priority - osPriorityIdle);
 392              		.loc 1 150 3 view .LVU78
 393              	.LBE108:
 394              	.LBE107:
 328:Middlewares/Third_Party/FreeRTOS/Source/CMSIS_RTOS/cmsis_os.c **** #if (INCLUDE_vTaskPrioritySet == 1)
 395              		.loc 1 328 1 is_stmt 0 view .LVU79
 396 0000 10B5     		push	{r4, lr}
 397              	.LCFI8:
 398              		.cfi_def_cfa_offset 8
 399              		.cfi_offset 4, -8
 400              		.cfi_offset 14, -4
ARM GAS  /tmp/ccSFdtfu.s 			page 16


 401              	.LBB111:
 402              	.LBB109:
 150:Middlewares/Third_Party/FreeRTOS/Source/CMSIS_RTOS/cmsis_os.c ****     fpriority += (priority - osPriorityIdle);
 403              		.loc 1 150 6 view .LVU80
 404 0002 8429     		cmp	r1, #132
 405 0004 04D0     		beq	.L18
 151:Middlewares/Third_Party/FreeRTOS/Source/CMSIS_RTOS/cmsis_os.c ****   }
 406              		.loc 1 151 5 is_stmt 1 view .LVU81
 151:Middlewares/Third_Party/FreeRTOS/Source/CMSIS_RTOS/cmsis_os.c ****   }
 407              		.loc 1 151 15 is_stmt 0 view .LVU82
 408 0006 0331     		adds	r1, r1, #3
 409              	.LVL18:
 410              	.L17:
 154:Middlewares/Third_Party/FreeRTOS/Source/CMSIS_RTOS/cmsis_os.c **** }
 411              		.loc 1 154 3 is_stmt 1 view .LVU83
 154:Middlewares/Third_Party/FreeRTOS/Source/CMSIS_RTOS/cmsis_os.c **** }
 412              		.loc 1 154 3 is_stmt 0 view .LVU84
 413              	.LBE109:
 414              	.LBE111:
 415              		.loc 1 330 3 view .LVU85
 416 0008 FFF7FEFF 		bl	vTaskPrioritySet
 417              	.LVL19:
 331:Middlewares/Third_Party/FreeRTOS/Source/CMSIS_RTOS/cmsis_os.c ****   return osOK;
 418              		.loc 1 331 3 is_stmt 1 view .LVU86
 332:Middlewares/Third_Party/FreeRTOS/Source/CMSIS_RTOS/cmsis_os.c **** #else
 333:Middlewares/Third_Party/FreeRTOS/Source/CMSIS_RTOS/cmsis_os.c ****   return osErrorOS;
 334:Middlewares/Third_Party/FreeRTOS/Source/CMSIS_RTOS/cmsis_os.c **** #endif
 335:Middlewares/Third_Party/FreeRTOS/Source/CMSIS_RTOS/cmsis_os.c **** }
 419              		.loc 1 335 1 is_stmt 0 view .LVU87
 420              		@ sp needed
 421 000c 0020     		movs	r0, #0
 422 000e 10BD     		pop	{r4, pc}
 423              	.LVL20:
 424              	.L18:
 425              	.LBB112:
 426              	.LBB110:
 148:Middlewares/Third_Party/FreeRTOS/Source/CMSIS_RTOS/cmsis_os.c ****   
 427              		.loc 1 148 26 view .LVU88
 428 0010 0021     		movs	r1, #0
 429              	.LVL21:
 148:Middlewares/Third_Party/FreeRTOS/Source/CMSIS_RTOS/cmsis_os.c ****   
 430              		.loc 1 148 26 view .LVU89
 431 0012 F9E7     		b	.L17
 432              	.LBE110:
 433              	.LBE112:
 434              		.cfi_endproc
 435              	.LFE47:
 437              		.section	.text.osThreadGetPriority,"ax",%progbits
 438              		.align	1
 439              		.p2align 2,,3
 440              		.global	osThreadGetPriority
 441              		.syntax unified
 442              		.code	16
 443              		.thumb_func
 444              		.fpu softvfp
 446              	osThreadGetPriority:
 447              	.LVL22:
ARM GAS  /tmp/ccSFdtfu.s 			page 17


 448              	.LFB48:
 336:Middlewares/Third_Party/FreeRTOS/Source/CMSIS_RTOS/cmsis_os.c **** 
 337:Middlewares/Third_Party/FreeRTOS/Source/CMSIS_RTOS/cmsis_os.c **** /**
 338:Middlewares/Third_Party/FreeRTOS/Source/CMSIS_RTOS/cmsis_os.c **** * @brief   Get current priority of an active thread.
 339:Middlewares/Third_Party/FreeRTOS/Source/CMSIS_RTOS/cmsis_os.c **** * @param   thread_id     thread ID obtained by \ref osThreadCreate or \ref osThreadGetId.
 340:Middlewares/Third_Party/FreeRTOS/Source/CMSIS_RTOS/cmsis_os.c **** * @retval  current priority value of the thread function.
 341:Middlewares/Third_Party/FreeRTOS/Source/CMSIS_RTOS/cmsis_os.c **** * @note   MUST REMAIN UNCHANGED: \b osThreadGetPriority shall be consistent in every CMSIS-RTOS.
 342:Middlewares/Third_Party/FreeRTOS/Source/CMSIS_RTOS/cmsis_os.c **** */
 343:Middlewares/Third_Party/FreeRTOS/Source/CMSIS_RTOS/cmsis_os.c **** osPriority osThreadGetPriority (osThreadId thread_id)
 344:Middlewares/Third_Party/FreeRTOS/Source/CMSIS_RTOS/cmsis_os.c **** {
 449              		.loc 1 344 1 is_stmt 1 view -0
 450              		.cfi_startproc
 451              		@ args = 0, pretend = 0, frame = 0
 452              		@ frame_needed = 0, uses_anonymous_args = 0
 345:Middlewares/Third_Party/FreeRTOS/Source/CMSIS_RTOS/cmsis_os.c **** #if (INCLUDE_uxTaskPriorityGet == 1)
 346:Middlewares/Third_Party/FreeRTOS/Source/CMSIS_RTOS/cmsis_os.c ****   if (inHandlerMode())
 453              		.loc 1 346 3 view .LVU91
 454              	.LBB113:
 455              	.LBI113:
 173:Middlewares/Third_Party/FreeRTOS/Source/CMSIS_RTOS/cmsis_os.c **** {
 456              		.loc 1 173 12 view .LVU92
 457              	.LBE113:
 175:Middlewares/Third_Party/FreeRTOS/Source/CMSIS_RTOS/cmsis_os.c **** }
 458              		.loc 1 175 3 view .LVU93
 459              	.LBB118:
 460              	.LBB114:
 461              	.LBI114:
 105:Drivers/CMSIS/Include/cmsis_gcc.h **** {
 462              		.loc 2 105 61 view .LVU94
 463              	.LBB115:
 107:Drivers/CMSIS/Include/cmsis_gcc.h **** 
 464              		.loc 2 107 3 view .LVU95
 109:Drivers/CMSIS/Include/cmsis_gcc.h ****   return(result);
 465              		.loc 2 109 3 view .LVU96
 466              	.LBE115:
 467              	.LBE114:
 468              	.LBE118:
 344:Middlewares/Third_Party/FreeRTOS/Source/CMSIS_RTOS/cmsis_os.c **** #if (INCLUDE_uxTaskPriorityGet == 1)
 469              		.loc 1 344 1 is_stmt 0 view .LVU97
 470 0000 10B5     		push	{r4, lr}
 471              	.LCFI9:
 472              		.cfi_def_cfa_offset 8
 473              		.cfi_offset 4, -8
 474              		.cfi_offset 14, -4
 475              	.LBB119:
 476              	.LBB117:
 477              	.LBB116:
 109:Drivers/CMSIS/Include/cmsis_gcc.h ****   return(result);
 478              		.loc 2 109 3 view .LVU98
 479              		.syntax divided
 480              	@ 109 "Drivers/CMSIS/Include/cmsis_gcc.h" 1
 481 0002 EFF30583 		MRS r3, ipsr
 482              	@ 0 "" 2
 483              	.LVL23:
 484              		.loc 2 110 3 is_stmt 1 view .LVU99
 485              		.loc 2 110 3 is_stmt 0 view .LVU100
 486              		.thumb
ARM GAS  /tmp/ccSFdtfu.s 			page 18


 487              		.syntax unified
 488              	.LBE116:
 489              	.LBE117:
 490              	.LBE119:
 491              		.loc 1 346 6 view .LVU101
 492 0006 002B     		cmp	r3, #0
 493 0008 06D0     		beq	.L20
 347:Middlewares/Third_Party/FreeRTOS/Source/CMSIS_RTOS/cmsis_os.c ****   {
 348:Middlewares/Third_Party/FreeRTOS/Source/CMSIS_RTOS/cmsis_os.c ****     return makeCmsisPriority(uxTaskPriorityGetFromISR(thread_id));  
 494              		.loc 1 348 5 is_stmt 1 view .LVU102
 495              		.loc 1 348 12 is_stmt 0 view .LVU103
 496 000a FFF7FEFF 		bl	uxTaskPriorityGetFromISR
 497              	.LVL24:
 498              	.LBB120:
 499              	.LBI120:
 159:Middlewares/Third_Party/FreeRTOS/Source/CMSIS_RTOS/cmsis_os.c **** {
 500              		.loc 1 159 19 is_stmt 1 view .LVU104
 501              	.LBB121:
 161:Middlewares/Third_Party/FreeRTOS/Source/CMSIS_RTOS/cmsis_os.c ****   
 502              		.loc 1 161 3 view .LVU105
 163:Middlewares/Third_Party/FreeRTOS/Source/CMSIS_RTOS/cmsis_os.c ****     priority = (osPriority)((int)osPriorityIdle + (int)(fpriority - tskIDLE_PRIORITY));
 503              		.loc 1 163 3 view .LVU106
 163:Middlewares/Third_Party/FreeRTOS/Source/CMSIS_RTOS/cmsis_os.c ****     priority = (osPriority)((int)osPriorityIdle + (int)(fpriority - tskIDLE_PRIORITY));
 504              		.loc 1 163 6 is_stmt 0 view .LVU107
 505 000e 0628     		cmp	r0, #6
 506 0010 06D8     		bhi	.L23
 507              	.LVL25:
 508              	.L24:
 163:Middlewares/Third_Party/FreeRTOS/Source/CMSIS_RTOS/cmsis_os.c ****     priority = (osPriority)((int)osPriorityIdle + (int)(fpriority - tskIDLE_PRIORITY));
 509              		.loc 1 163 6 view .LVU108
 510              	.LBE121:
 511              	.LBE120:
 512              	.LBB123:
 513              	.LBB124:
 164:Middlewares/Third_Party/FreeRTOS/Source/CMSIS_RTOS/cmsis_os.c ****   }
 514              		.loc 1 164 5 is_stmt 1 view .LVU109
 164:Middlewares/Third_Party/FreeRTOS/Source/CMSIS_RTOS/cmsis_os.c ****   }
 515              		.loc 1 164 49 is_stmt 0 view .LVU110
 516 0012 0338     		subs	r0, r0, #3
 164:Middlewares/Third_Party/FreeRTOS/Source/CMSIS_RTOS/cmsis_os.c ****   }
 517              		.loc 1 164 14 view .LVU111
 518 0014 00B2     		sxth	r0, r0
 519              	.LVL26:
 520              	.L22:
 164:Middlewares/Third_Party/FreeRTOS/Source/CMSIS_RTOS/cmsis_os.c ****   }
 521              		.loc 1 164 14 view .LVU112
 522              	.LBE124:
 523              	.LBE123:
 349:Middlewares/Third_Party/FreeRTOS/Source/CMSIS_RTOS/cmsis_os.c ****   }
 350:Middlewares/Third_Party/FreeRTOS/Source/CMSIS_RTOS/cmsis_os.c ****   else
 351:Middlewares/Third_Party/FreeRTOS/Source/CMSIS_RTOS/cmsis_os.c ****   {  
 352:Middlewares/Third_Party/FreeRTOS/Source/CMSIS_RTOS/cmsis_os.c ****     return makeCmsisPriority(uxTaskPriorityGet(thread_id));
 353:Middlewares/Third_Party/FreeRTOS/Source/CMSIS_RTOS/cmsis_os.c ****   }
 354:Middlewares/Third_Party/FreeRTOS/Source/CMSIS_RTOS/cmsis_os.c **** #else
 355:Middlewares/Third_Party/FreeRTOS/Source/CMSIS_RTOS/cmsis_os.c ****   return osPriorityError;
 356:Middlewares/Third_Party/FreeRTOS/Source/CMSIS_RTOS/cmsis_os.c **** #endif
 357:Middlewares/Third_Party/FreeRTOS/Source/CMSIS_RTOS/cmsis_os.c **** }
ARM GAS  /tmp/ccSFdtfu.s 			page 19


 524              		.loc 1 357 1 view .LVU113
 525              		@ sp needed
 526 0016 10BD     		pop	{r4, pc}
 527              	.LVL27:
 528              	.L20:
 352:Middlewares/Third_Party/FreeRTOS/Source/CMSIS_RTOS/cmsis_os.c ****   }
 529              		.loc 1 352 5 is_stmt 1 view .LVU114
 352:Middlewares/Third_Party/FreeRTOS/Source/CMSIS_RTOS/cmsis_os.c ****   }
 530              		.loc 1 352 12 is_stmt 0 view .LVU115
 531 0018 FFF7FEFF 		bl	uxTaskPriorityGet
 532              	.LVL28:
 533              	.LBB126:
 534              	.LBI123:
 159:Middlewares/Third_Party/FreeRTOS/Source/CMSIS_RTOS/cmsis_os.c **** {
 535              		.loc 1 159 19 is_stmt 1 view .LVU116
 536              	.LBB125:
 161:Middlewares/Third_Party/FreeRTOS/Source/CMSIS_RTOS/cmsis_os.c ****   
 537              		.loc 1 161 3 view .LVU117
 163:Middlewares/Third_Party/FreeRTOS/Source/CMSIS_RTOS/cmsis_os.c ****     priority = (osPriority)((int)osPriorityIdle + (int)(fpriority - tskIDLE_PRIORITY));
 538              		.loc 1 163 3 view .LVU118
 163:Middlewares/Third_Party/FreeRTOS/Source/CMSIS_RTOS/cmsis_os.c ****     priority = (osPriority)((int)osPriorityIdle + (int)(fpriority - tskIDLE_PRIORITY));
 539              		.loc 1 163 6 is_stmt 0 view .LVU119
 540 001c 0628     		cmp	r0, #6
 541 001e F8D9     		bls	.L24
 542              	.LVL29:
 543              	.L23:
 163:Middlewares/Third_Party/FreeRTOS/Source/CMSIS_RTOS/cmsis_os.c ****     priority = (osPriority)((int)osPriorityIdle + (int)(fpriority - tskIDLE_PRIORITY));
 544              		.loc 1 163 6 view .LVU120
 545              	.LBE125:
 546              	.LBE126:
 547              	.LBB127:
 548              	.LBB122:
 161:Middlewares/Third_Party/FreeRTOS/Source/CMSIS_RTOS/cmsis_os.c ****   
 549              		.loc 1 161 14 view .LVU121
 550 0020 8420     		movs	r0, #132
 551 0022 F8E7     		b	.L22
 552              	.LBE122:
 553              	.LBE127:
 554              		.cfi_endproc
 555              	.LFE48:
 557              		.section	.text.osDelay,"ax",%progbits
 558              		.align	1
 559              		.p2align 2,,3
 560              		.global	osDelay
 561              		.syntax unified
 562              		.code	16
 563              		.thumb_func
 564              		.fpu softvfp
 566              	osDelay:
 567              	.LVL30:
 568              	.LFB49:
 358:Middlewares/Third_Party/FreeRTOS/Source/CMSIS_RTOS/cmsis_os.c **** 
 359:Middlewares/Third_Party/FreeRTOS/Source/CMSIS_RTOS/cmsis_os.c **** /*********************** Generic Wait Functions *******************************/
 360:Middlewares/Third_Party/FreeRTOS/Source/CMSIS_RTOS/cmsis_os.c **** /**
 361:Middlewares/Third_Party/FreeRTOS/Source/CMSIS_RTOS/cmsis_os.c **** * @brief   Wait for Timeout (Time Delay)
 362:Middlewares/Third_Party/FreeRTOS/Source/CMSIS_RTOS/cmsis_os.c **** * @param   millisec      time delay value
 363:Middlewares/Third_Party/FreeRTOS/Source/CMSIS_RTOS/cmsis_os.c **** * @retval  status code that indicates the execution status of the function.
ARM GAS  /tmp/ccSFdtfu.s 			page 20


 364:Middlewares/Third_Party/FreeRTOS/Source/CMSIS_RTOS/cmsis_os.c **** */
 365:Middlewares/Third_Party/FreeRTOS/Source/CMSIS_RTOS/cmsis_os.c **** osStatus osDelay (uint32_t millisec)
 366:Middlewares/Third_Party/FreeRTOS/Source/CMSIS_RTOS/cmsis_os.c **** {
 569              		.loc 1 366 1 is_stmt 1 view -0
 570              		.cfi_startproc
 571              		@ args = 0, pretend = 0, frame = 0
 572              		@ frame_needed = 0, uses_anonymous_args = 0
 367:Middlewares/Third_Party/FreeRTOS/Source/CMSIS_RTOS/cmsis_os.c **** #if INCLUDE_vTaskDelay
 368:Middlewares/Third_Party/FreeRTOS/Source/CMSIS_RTOS/cmsis_os.c ****   TickType_t ticks = millisec / portTICK_PERIOD_MS;
 573              		.loc 1 368 3 view .LVU123
 369:Middlewares/Third_Party/FreeRTOS/Source/CMSIS_RTOS/cmsis_os.c ****   
 370:Middlewares/Third_Party/FreeRTOS/Source/CMSIS_RTOS/cmsis_os.c ****   vTaskDelay(ticks ? ticks : 1);          /* Minimum delay = 1 tick */
 574              		.loc 1 370 3 view .LVU124
 366:Middlewares/Third_Party/FreeRTOS/Source/CMSIS_RTOS/cmsis_os.c **** #if INCLUDE_vTaskDelay
 575              		.loc 1 366 1 is_stmt 0 view .LVU125
 576 0000 10B5     		push	{r4, lr}
 577              	.LCFI10:
 578              		.cfi_def_cfa_offset 8
 579              		.cfi_offset 4, -8
 580              		.cfi_offset 14, -4
 581              		.loc 1 370 3 view .LVU126
 582 0002 0028     		cmp	r0, #0
 583 0004 00D1     		bne	.L26
 584 0006 0130     		adds	r0, r0, #1
 585              	.LVL31:
 586              	.L26:
 587              		.loc 1 370 3 discriminator 4 view .LVU127
 588 0008 FFF7FEFF 		bl	vTaskDelay
 589              	.LVL32:
 371:Middlewares/Third_Party/FreeRTOS/Source/CMSIS_RTOS/cmsis_os.c ****   
 372:Middlewares/Third_Party/FreeRTOS/Source/CMSIS_RTOS/cmsis_os.c ****   return osOK;
 590              		.loc 1 372 3 is_stmt 1 discriminator 4 view .LVU128
 373:Middlewares/Third_Party/FreeRTOS/Source/CMSIS_RTOS/cmsis_os.c **** #else
 374:Middlewares/Third_Party/FreeRTOS/Source/CMSIS_RTOS/cmsis_os.c ****   (void) millisec;
 375:Middlewares/Third_Party/FreeRTOS/Source/CMSIS_RTOS/cmsis_os.c ****   
 376:Middlewares/Third_Party/FreeRTOS/Source/CMSIS_RTOS/cmsis_os.c ****   return osErrorResource;
 377:Middlewares/Third_Party/FreeRTOS/Source/CMSIS_RTOS/cmsis_os.c **** #endif
 378:Middlewares/Third_Party/FreeRTOS/Source/CMSIS_RTOS/cmsis_os.c **** }
 591              		.loc 1 378 1 is_stmt 0 discriminator 4 view .LVU129
 592              		@ sp needed
 593 000c 0020     		movs	r0, #0
 594 000e 10BD     		pop	{r4, pc}
 595              		.cfi_endproc
 596              	.LFE49:
 598              		.section	.text.osTimerCreate,"ax",%progbits
 599              		.align	1
 600              		.p2align 2,,3
 601              		.global	osTimerCreate
 602              		.syntax unified
 603              		.code	16
 604              		.thumb_func
 605              		.fpu softvfp
 607              	osTimerCreate:
 608              	.LVL33:
 609              	.LFB50:
 379:Middlewares/Third_Party/FreeRTOS/Source/CMSIS_RTOS/cmsis_os.c **** 
 380:Middlewares/Third_Party/FreeRTOS/Source/CMSIS_RTOS/cmsis_os.c **** #if (defined (osFeature_Wait)  &&  (osFeature_Wait != 0)) /* Generic Wait available */
ARM GAS  /tmp/ccSFdtfu.s 			page 21


 381:Middlewares/Third_Party/FreeRTOS/Source/CMSIS_RTOS/cmsis_os.c **** /**
 382:Middlewares/Third_Party/FreeRTOS/Source/CMSIS_RTOS/cmsis_os.c **** * @brief  Wait for Signal, Message, Mail, or Timeout
 383:Middlewares/Third_Party/FreeRTOS/Source/CMSIS_RTOS/cmsis_os.c **** * @param   millisec  timeout value or 0 in case of no time-out
 384:Middlewares/Third_Party/FreeRTOS/Source/CMSIS_RTOS/cmsis_os.c **** * @retval  event that contains signal, message, or mail information or error code.
 385:Middlewares/Third_Party/FreeRTOS/Source/CMSIS_RTOS/cmsis_os.c **** * @note   MUST REMAIN UNCHANGED: \b osWait shall be consistent in every CMSIS-RTOS.
 386:Middlewares/Third_Party/FreeRTOS/Source/CMSIS_RTOS/cmsis_os.c **** */
 387:Middlewares/Third_Party/FreeRTOS/Source/CMSIS_RTOS/cmsis_os.c **** osEvent osWait (uint32_t millisec);
 388:Middlewares/Third_Party/FreeRTOS/Source/CMSIS_RTOS/cmsis_os.c **** 
 389:Middlewares/Third_Party/FreeRTOS/Source/CMSIS_RTOS/cmsis_os.c **** #endif  /* Generic Wait available */
 390:Middlewares/Third_Party/FreeRTOS/Source/CMSIS_RTOS/cmsis_os.c **** 
 391:Middlewares/Third_Party/FreeRTOS/Source/CMSIS_RTOS/cmsis_os.c **** /***********************  Timer Management Functions ***************************/
 392:Middlewares/Third_Party/FreeRTOS/Source/CMSIS_RTOS/cmsis_os.c **** /**
 393:Middlewares/Third_Party/FreeRTOS/Source/CMSIS_RTOS/cmsis_os.c **** * @brief  Create a timer.
 394:Middlewares/Third_Party/FreeRTOS/Source/CMSIS_RTOS/cmsis_os.c **** * @param  timer_def     timer object referenced with \ref osTimer.
 395:Middlewares/Third_Party/FreeRTOS/Source/CMSIS_RTOS/cmsis_os.c **** * @param  type          osTimerOnce for one-shot or osTimerPeriodic for periodic behavior.
 396:Middlewares/Third_Party/FreeRTOS/Source/CMSIS_RTOS/cmsis_os.c **** * @param  argument      argument to the timer call back function.
 397:Middlewares/Third_Party/FreeRTOS/Source/CMSIS_RTOS/cmsis_os.c **** * @retval  timer ID for reference by other functions or NULL in case of error.
 398:Middlewares/Third_Party/FreeRTOS/Source/CMSIS_RTOS/cmsis_os.c **** * @note   MUST REMAIN UNCHANGED: \b osTimerCreate shall be consistent in every CMSIS-RTOS.
 399:Middlewares/Third_Party/FreeRTOS/Source/CMSIS_RTOS/cmsis_os.c **** */
 400:Middlewares/Third_Party/FreeRTOS/Source/CMSIS_RTOS/cmsis_os.c **** osTimerId osTimerCreate (const osTimerDef_t *timer_def, os_timer_type type, void *argument)
 401:Middlewares/Third_Party/FreeRTOS/Source/CMSIS_RTOS/cmsis_os.c **** {
 610              		.loc 1 401 1 is_stmt 1 view -0
 611              		.cfi_startproc
 612              		@ args = 0, pretend = 0, frame = 0
 613              		@ frame_needed = 0, uses_anonymous_args = 0
 614              		@ link register save eliminated.
 402:Middlewares/Third_Party/FreeRTOS/Source/CMSIS_RTOS/cmsis_os.c **** #if (configUSE_TIMERS == 1)
 403:Middlewares/Third_Party/FreeRTOS/Source/CMSIS_RTOS/cmsis_os.c **** 
 404:Middlewares/Third_Party/FreeRTOS/Source/CMSIS_RTOS/cmsis_os.c **** #if( ( configSUPPORT_STATIC_ALLOCATION == 1 ) && ( configSUPPORT_DYNAMIC_ALLOCATION == 1 ) ) 
 405:Middlewares/Third_Party/FreeRTOS/Source/CMSIS_RTOS/cmsis_os.c ****   if(timer_def->controlblock != NULL) {
 406:Middlewares/Third_Party/FreeRTOS/Source/CMSIS_RTOS/cmsis_os.c ****     return xTimerCreateStatic((const char *)"",
 407:Middlewares/Third_Party/FreeRTOS/Source/CMSIS_RTOS/cmsis_os.c ****                       1, // period should be filled when starting the Timer using osTimerStart
 408:Middlewares/Third_Party/FreeRTOS/Source/CMSIS_RTOS/cmsis_os.c ****                       (type == osTimerPeriodic) ? pdTRUE : pdFALSE,
 409:Middlewares/Third_Party/FreeRTOS/Source/CMSIS_RTOS/cmsis_os.c ****                       (void *) argument,
 410:Middlewares/Third_Party/FreeRTOS/Source/CMSIS_RTOS/cmsis_os.c ****                       (TaskFunction_t)timer_def->ptimer,
 411:Middlewares/Third_Party/FreeRTOS/Source/CMSIS_RTOS/cmsis_os.c ****                       (StaticTimer_t *)timer_def->controlblock);
 412:Middlewares/Third_Party/FreeRTOS/Source/CMSIS_RTOS/cmsis_os.c ****   }
 413:Middlewares/Third_Party/FreeRTOS/Source/CMSIS_RTOS/cmsis_os.c ****   else {
 414:Middlewares/Third_Party/FreeRTOS/Source/CMSIS_RTOS/cmsis_os.c ****     return xTimerCreate((const char *)"",
 415:Middlewares/Third_Party/FreeRTOS/Source/CMSIS_RTOS/cmsis_os.c ****                       1, // period should be filled when starting the Timer using osTimerStart
 416:Middlewares/Third_Party/FreeRTOS/Source/CMSIS_RTOS/cmsis_os.c ****                       (type == osTimerPeriodic) ? pdTRUE : pdFALSE,
 417:Middlewares/Third_Party/FreeRTOS/Source/CMSIS_RTOS/cmsis_os.c ****                       (void *) argument,
 418:Middlewares/Third_Party/FreeRTOS/Source/CMSIS_RTOS/cmsis_os.c ****                       (TaskFunction_t)timer_def->ptimer);
 419:Middlewares/Third_Party/FreeRTOS/Source/CMSIS_RTOS/cmsis_os.c ****  }
 420:Middlewares/Third_Party/FreeRTOS/Source/CMSIS_RTOS/cmsis_os.c **** #elif( configSUPPORT_STATIC_ALLOCATION == 1 )
 421:Middlewares/Third_Party/FreeRTOS/Source/CMSIS_RTOS/cmsis_os.c ****   return xTimerCreateStatic((const char *)"",
 422:Middlewares/Third_Party/FreeRTOS/Source/CMSIS_RTOS/cmsis_os.c ****                       1, // period should be filled when starting the Timer using osTimerStart
 423:Middlewares/Third_Party/FreeRTOS/Source/CMSIS_RTOS/cmsis_os.c ****                       (type == osTimerPeriodic) ? pdTRUE : pdFALSE,
 424:Middlewares/Third_Party/FreeRTOS/Source/CMSIS_RTOS/cmsis_os.c ****                       (void *) argument,
 425:Middlewares/Third_Party/FreeRTOS/Source/CMSIS_RTOS/cmsis_os.c ****                       (TaskFunction_t)timer_def->ptimer,
 426:Middlewares/Third_Party/FreeRTOS/Source/CMSIS_RTOS/cmsis_os.c ****                       (StaticTimer_t *)timer_def->controlblock);  
 427:Middlewares/Third_Party/FreeRTOS/Source/CMSIS_RTOS/cmsis_os.c **** #else
 428:Middlewares/Third_Party/FreeRTOS/Source/CMSIS_RTOS/cmsis_os.c ****   return xTimerCreate((const char *)"",
 429:Middlewares/Third_Party/FreeRTOS/Source/CMSIS_RTOS/cmsis_os.c ****                       1, // period should be filled when starting the Timer using osTimerStart
 430:Middlewares/Third_Party/FreeRTOS/Source/CMSIS_RTOS/cmsis_os.c ****                       (type == osTimerPeriodic) ? pdTRUE : pdFALSE,
 431:Middlewares/Third_Party/FreeRTOS/Source/CMSIS_RTOS/cmsis_os.c ****                       (void *) argument,
 432:Middlewares/Third_Party/FreeRTOS/Source/CMSIS_RTOS/cmsis_os.c ****                       (TaskFunction_t)timer_def->ptimer);
ARM GAS  /tmp/ccSFdtfu.s 			page 22


 433:Middlewares/Third_Party/FreeRTOS/Source/CMSIS_RTOS/cmsis_os.c **** #endif
 434:Middlewares/Third_Party/FreeRTOS/Source/CMSIS_RTOS/cmsis_os.c **** 
 435:Middlewares/Third_Party/FreeRTOS/Source/CMSIS_RTOS/cmsis_os.c **** #else 
 436:Middlewares/Third_Party/FreeRTOS/Source/CMSIS_RTOS/cmsis_os.c **** 	return NULL;
 615              		.loc 1 436 2 view .LVU131
 437:Middlewares/Third_Party/FreeRTOS/Source/CMSIS_RTOS/cmsis_os.c **** #endif
 438:Middlewares/Third_Party/FreeRTOS/Source/CMSIS_RTOS/cmsis_os.c **** }
 616              		.loc 1 438 1 is_stmt 0 view .LVU132
 617 0000 0020     		movs	r0, #0
 618              	.LVL34:
 619              		.loc 1 438 1 view .LVU133
 620              		@ sp needed
 621 0002 7047     		bx	lr
 622              		.cfi_endproc
 623              	.LFE50:
 625              		.section	.text.osTimerStart,"ax",%progbits
 626              		.align	1
 627              		.p2align 2,,3
 628              		.global	osTimerStart
 629              		.syntax unified
 630              		.code	16
 631              		.thumb_func
 632              		.fpu softvfp
 634              	osTimerStart:
 635              	.LVL35:
 636              	.LFB51:
 439:Middlewares/Third_Party/FreeRTOS/Source/CMSIS_RTOS/cmsis_os.c **** 
 440:Middlewares/Third_Party/FreeRTOS/Source/CMSIS_RTOS/cmsis_os.c **** /**
 441:Middlewares/Third_Party/FreeRTOS/Source/CMSIS_RTOS/cmsis_os.c **** * @brief  Start or restart a timer.
 442:Middlewares/Third_Party/FreeRTOS/Source/CMSIS_RTOS/cmsis_os.c **** * @param  timer_id      timer ID obtained by \ref osTimerCreate.
 443:Middlewares/Third_Party/FreeRTOS/Source/CMSIS_RTOS/cmsis_os.c **** * @param  millisec      time delay value of the timer.
 444:Middlewares/Third_Party/FreeRTOS/Source/CMSIS_RTOS/cmsis_os.c **** * @retval  status code that indicates the execution status of the function
 445:Middlewares/Third_Party/FreeRTOS/Source/CMSIS_RTOS/cmsis_os.c **** * @note   MUST REMAIN UNCHANGED: \b osTimerStart shall be consistent in every CMSIS-RTOS.
 446:Middlewares/Third_Party/FreeRTOS/Source/CMSIS_RTOS/cmsis_os.c **** */
 447:Middlewares/Third_Party/FreeRTOS/Source/CMSIS_RTOS/cmsis_os.c **** osStatus osTimerStart (osTimerId timer_id, uint32_t millisec)
 448:Middlewares/Third_Party/FreeRTOS/Source/CMSIS_RTOS/cmsis_os.c **** {
 637              		.loc 1 448 1 is_stmt 1 view -0
 638              		.cfi_startproc
 639              		@ args = 0, pretend = 0, frame = 0
 640              		@ frame_needed = 0, uses_anonymous_args = 0
 641              		@ link register save eliminated.
 449:Middlewares/Third_Party/FreeRTOS/Source/CMSIS_RTOS/cmsis_os.c ****   osStatus result = osOK;
 642              		.loc 1 449 3 view .LVU135
 450:Middlewares/Third_Party/FreeRTOS/Source/CMSIS_RTOS/cmsis_os.c **** #if (configUSE_TIMERS == 1)  
 451:Middlewares/Third_Party/FreeRTOS/Source/CMSIS_RTOS/cmsis_os.c ****   portBASE_TYPE taskWoken = pdFALSE;
 452:Middlewares/Third_Party/FreeRTOS/Source/CMSIS_RTOS/cmsis_os.c ****   TickType_t ticks = millisec / portTICK_PERIOD_MS;
 453:Middlewares/Third_Party/FreeRTOS/Source/CMSIS_RTOS/cmsis_os.c **** 
 454:Middlewares/Third_Party/FreeRTOS/Source/CMSIS_RTOS/cmsis_os.c ****   if (ticks == 0)
 455:Middlewares/Third_Party/FreeRTOS/Source/CMSIS_RTOS/cmsis_os.c ****     ticks = 1;
 456:Middlewares/Third_Party/FreeRTOS/Source/CMSIS_RTOS/cmsis_os.c ****     
 457:Middlewares/Third_Party/FreeRTOS/Source/CMSIS_RTOS/cmsis_os.c ****   if (inHandlerMode()) 
 458:Middlewares/Third_Party/FreeRTOS/Source/CMSIS_RTOS/cmsis_os.c ****   {
 459:Middlewares/Third_Party/FreeRTOS/Source/CMSIS_RTOS/cmsis_os.c ****     if (xTimerChangePeriodFromISR(timer_id, ticks, &taskWoken) != pdPASS)
 460:Middlewares/Third_Party/FreeRTOS/Source/CMSIS_RTOS/cmsis_os.c ****     {
 461:Middlewares/Third_Party/FreeRTOS/Source/CMSIS_RTOS/cmsis_os.c ****       result = osErrorOS;
 462:Middlewares/Third_Party/FreeRTOS/Source/CMSIS_RTOS/cmsis_os.c ****     }
 463:Middlewares/Third_Party/FreeRTOS/Source/CMSIS_RTOS/cmsis_os.c ****     else
ARM GAS  /tmp/ccSFdtfu.s 			page 23


 464:Middlewares/Third_Party/FreeRTOS/Source/CMSIS_RTOS/cmsis_os.c ****     {
 465:Middlewares/Third_Party/FreeRTOS/Source/CMSIS_RTOS/cmsis_os.c ****       portEND_SWITCHING_ISR(taskWoken);     
 466:Middlewares/Third_Party/FreeRTOS/Source/CMSIS_RTOS/cmsis_os.c ****     }
 467:Middlewares/Third_Party/FreeRTOS/Source/CMSIS_RTOS/cmsis_os.c ****   }
 468:Middlewares/Third_Party/FreeRTOS/Source/CMSIS_RTOS/cmsis_os.c ****   else 
 469:Middlewares/Third_Party/FreeRTOS/Source/CMSIS_RTOS/cmsis_os.c ****   {
 470:Middlewares/Third_Party/FreeRTOS/Source/CMSIS_RTOS/cmsis_os.c ****     if (xTimerChangePeriod(timer_id, ticks, 0) != pdPASS)
 471:Middlewares/Third_Party/FreeRTOS/Source/CMSIS_RTOS/cmsis_os.c ****       result = osErrorOS;
 472:Middlewares/Third_Party/FreeRTOS/Source/CMSIS_RTOS/cmsis_os.c ****   }
 473:Middlewares/Third_Party/FreeRTOS/Source/CMSIS_RTOS/cmsis_os.c **** 
 474:Middlewares/Third_Party/FreeRTOS/Source/CMSIS_RTOS/cmsis_os.c **** #else 
 475:Middlewares/Third_Party/FreeRTOS/Source/CMSIS_RTOS/cmsis_os.c ****   result = osErrorOS;
 643              		.loc 1 475 3 view .LVU136
 476:Middlewares/Third_Party/FreeRTOS/Source/CMSIS_RTOS/cmsis_os.c **** #endif
 477:Middlewares/Third_Party/FreeRTOS/Source/CMSIS_RTOS/cmsis_os.c ****   return result;
 644              		.loc 1 477 3 view .LVU137
 478:Middlewares/Third_Party/FreeRTOS/Source/CMSIS_RTOS/cmsis_os.c **** }
 645              		.loc 1 478 1 is_stmt 0 view .LVU138
 646 0000 FF20     		movs	r0, #255
 647              	.LVL36:
 648              		.loc 1 478 1 view .LVU139
 649              		@ sp needed
 650 0002 7047     		bx	lr
 651              		.cfi_endproc
 652              	.LFE51:
 654              		.section	.text.osTimerStop,"ax",%progbits
 655              		.align	1
 656              		.p2align 2,,3
 657              		.global	osTimerStop
 658              		.syntax unified
 659              		.code	16
 660              		.thumb_func
 661              		.fpu softvfp
 663              	osTimerStop:
 664              	.LVL37:
 665              	.LFB52:
 479:Middlewares/Third_Party/FreeRTOS/Source/CMSIS_RTOS/cmsis_os.c **** 
 480:Middlewares/Third_Party/FreeRTOS/Source/CMSIS_RTOS/cmsis_os.c **** /**
 481:Middlewares/Third_Party/FreeRTOS/Source/CMSIS_RTOS/cmsis_os.c **** * @brief  Stop a timer.
 482:Middlewares/Third_Party/FreeRTOS/Source/CMSIS_RTOS/cmsis_os.c **** * @param  timer_id      timer ID obtained by \ref osTimerCreate
 483:Middlewares/Third_Party/FreeRTOS/Source/CMSIS_RTOS/cmsis_os.c **** * @retval  status code that indicates the execution status of the function.
 484:Middlewares/Third_Party/FreeRTOS/Source/CMSIS_RTOS/cmsis_os.c **** * @note   MUST REMAIN UNCHANGED: \b osTimerStop shall be consistent in every CMSIS-RTOS.
 485:Middlewares/Third_Party/FreeRTOS/Source/CMSIS_RTOS/cmsis_os.c **** */
 486:Middlewares/Third_Party/FreeRTOS/Source/CMSIS_RTOS/cmsis_os.c **** osStatus osTimerStop (osTimerId timer_id)
 487:Middlewares/Third_Party/FreeRTOS/Source/CMSIS_RTOS/cmsis_os.c **** {
 666              		.loc 1 487 1 is_stmt 1 view -0
 667              		.cfi_startproc
 668              		@ args = 0, pretend = 0, frame = 0
 669              		@ frame_needed = 0, uses_anonymous_args = 0
 670              		@ link register save eliminated.
 488:Middlewares/Third_Party/FreeRTOS/Source/CMSIS_RTOS/cmsis_os.c ****   osStatus result = osOK;
 671              		.loc 1 488 3 view .LVU141
 489:Middlewares/Third_Party/FreeRTOS/Source/CMSIS_RTOS/cmsis_os.c **** #if (configUSE_TIMERS == 1)  
 490:Middlewares/Third_Party/FreeRTOS/Source/CMSIS_RTOS/cmsis_os.c ****   portBASE_TYPE taskWoken = pdFALSE;
 491:Middlewares/Third_Party/FreeRTOS/Source/CMSIS_RTOS/cmsis_os.c **** 
 492:Middlewares/Third_Party/FreeRTOS/Source/CMSIS_RTOS/cmsis_os.c ****   if (inHandlerMode()) {
 493:Middlewares/Third_Party/FreeRTOS/Source/CMSIS_RTOS/cmsis_os.c ****     if (xTimerStopFromISR(timer_id, &taskWoken) != pdPASS) {
ARM GAS  /tmp/ccSFdtfu.s 			page 24


 494:Middlewares/Third_Party/FreeRTOS/Source/CMSIS_RTOS/cmsis_os.c ****       return osErrorOS;
 495:Middlewares/Third_Party/FreeRTOS/Source/CMSIS_RTOS/cmsis_os.c ****     }
 496:Middlewares/Third_Party/FreeRTOS/Source/CMSIS_RTOS/cmsis_os.c ****     portEND_SWITCHING_ISR(taskWoken);
 497:Middlewares/Third_Party/FreeRTOS/Source/CMSIS_RTOS/cmsis_os.c ****   }
 498:Middlewares/Third_Party/FreeRTOS/Source/CMSIS_RTOS/cmsis_os.c ****   else {
 499:Middlewares/Third_Party/FreeRTOS/Source/CMSIS_RTOS/cmsis_os.c ****     if (xTimerStop(timer_id, 0) != pdPASS) {
 500:Middlewares/Third_Party/FreeRTOS/Source/CMSIS_RTOS/cmsis_os.c ****       result = osErrorOS;
 501:Middlewares/Third_Party/FreeRTOS/Source/CMSIS_RTOS/cmsis_os.c ****     }
 502:Middlewares/Third_Party/FreeRTOS/Source/CMSIS_RTOS/cmsis_os.c ****   }
 503:Middlewares/Third_Party/FreeRTOS/Source/CMSIS_RTOS/cmsis_os.c **** #else 
 504:Middlewares/Third_Party/FreeRTOS/Source/CMSIS_RTOS/cmsis_os.c ****   result = osErrorOS;
 672              		.loc 1 504 3 view .LVU142
 505:Middlewares/Third_Party/FreeRTOS/Source/CMSIS_RTOS/cmsis_os.c **** #endif 
 506:Middlewares/Third_Party/FreeRTOS/Source/CMSIS_RTOS/cmsis_os.c ****   return result;
 673              		.loc 1 506 3 view .LVU143
 507:Middlewares/Third_Party/FreeRTOS/Source/CMSIS_RTOS/cmsis_os.c **** }
 674              		.loc 1 507 1 is_stmt 0 view .LVU144
 675 0000 FF20     		movs	r0, #255
 676              	.LVL38:
 677              		.loc 1 507 1 view .LVU145
 678              		@ sp needed
 679 0002 7047     		bx	lr
 680              		.cfi_endproc
 681              	.LFE52:
 683              		.section	.text.osTimerDelete,"ax",%progbits
 684              		.align	1
 685              		.p2align 2,,3
 686              		.global	osTimerDelete
 687              		.syntax unified
 688              		.code	16
 689              		.thumb_func
 690              		.fpu softvfp
 692              	osTimerDelete:
 693              	.LFB94:
 694              		.cfi_startproc
 695              		@ args = 0, pretend = 0, frame = 0
 696              		@ frame_needed = 0, uses_anonymous_args = 0
 697              		@ link register save eliminated.
 698 0000 FF20     		movs	r0, #255
 699              		@ sp needed
 700 0002 7047     		bx	lr
 701              		.cfi_endproc
 702              	.LFE94:
 704              		.section	.text.osSignalSet,"ax",%progbits
 705              		.align	1
 706              		.p2align 2,,3
 707              		.global	osSignalSet
 708              		.syntax unified
 709              		.code	16
 710              		.thumb_func
 711              		.fpu softvfp
 713              	osSignalSet:
 714              	.LVL39:
 715              	.LFB54:
 508:Middlewares/Third_Party/FreeRTOS/Source/CMSIS_RTOS/cmsis_os.c **** 
 509:Middlewares/Third_Party/FreeRTOS/Source/CMSIS_RTOS/cmsis_os.c **** /**
 510:Middlewares/Third_Party/FreeRTOS/Source/CMSIS_RTOS/cmsis_os.c **** * @brief  Delete a timer.
ARM GAS  /tmp/ccSFdtfu.s 			page 25


 511:Middlewares/Third_Party/FreeRTOS/Source/CMSIS_RTOS/cmsis_os.c **** * @param  timer_id      timer ID obtained by \ref osTimerCreate
 512:Middlewares/Third_Party/FreeRTOS/Source/CMSIS_RTOS/cmsis_os.c **** * @retval  status code that indicates the execution status of the function.
 513:Middlewares/Third_Party/FreeRTOS/Source/CMSIS_RTOS/cmsis_os.c **** * @note   MUST REMAIN UNCHANGED: \b osTimerDelete shall be consistent in every CMSIS-RTOS.
 514:Middlewares/Third_Party/FreeRTOS/Source/CMSIS_RTOS/cmsis_os.c **** */
 515:Middlewares/Third_Party/FreeRTOS/Source/CMSIS_RTOS/cmsis_os.c **** osStatus osTimerDelete (osTimerId timer_id)
 516:Middlewares/Third_Party/FreeRTOS/Source/CMSIS_RTOS/cmsis_os.c **** {
 517:Middlewares/Third_Party/FreeRTOS/Source/CMSIS_RTOS/cmsis_os.c **** osStatus result = osOK;
 518:Middlewares/Third_Party/FreeRTOS/Source/CMSIS_RTOS/cmsis_os.c **** 
 519:Middlewares/Third_Party/FreeRTOS/Source/CMSIS_RTOS/cmsis_os.c **** #if (configUSE_TIMERS == 1)
 520:Middlewares/Third_Party/FreeRTOS/Source/CMSIS_RTOS/cmsis_os.c **** 
 521:Middlewares/Third_Party/FreeRTOS/Source/CMSIS_RTOS/cmsis_os.c ****    if (inHandlerMode()) {
 522:Middlewares/Third_Party/FreeRTOS/Source/CMSIS_RTOS/cmsis_os.c ****      return osErrorISR;
 523:Middlewares/Third_Party/FreeRTOS/Source/CMSIS_RTOS/cmsis_os.c ****   }
 524:Middlewares/Third_Party/FreeRTOS/Source/CMSIS_RTOS/cmsis_os.c ****   else { 
 525:Middlewares/Third_Party/FreeRTOS/Source/CMSIS_RTOS/cmsis_os.c ****     if ((xTimerDelete(timer_id, osWaitForever )) != pdPASS) {
 526:Middlewares/Third_Party/FreeRTOS/Source/CMSIS_RTOS/cmsis_os.c ****       result = osErrorOS;
 527:Middlewares/Third_Party/FreeRTOS/Source/CMSIS_RTOS/cmsis_os.c ****     }
 528:Middlewares/Third_Party/FreeRTOS/Source/CMSIS_RTOS/cmsis_os.c ****   } 
 529:Middlewares/Third_Party/FreeRTOS/Source/CMSIS_RTOS/cmsis_os.c ****     
 530:Middlewares/Third_Party/FreeRTOS/Source/CMSIS_RTOS/cmsis_os.c **** #else 
 531:Middlewares/Third_Party/FreeRTOS/Source/CMSIS_RTOS/cmsis_os.c ****   result = osErrorOS;
 532:Middlewares/Third_Party/FreeRTOS/Source/CMSIS_RTOS/cmsis_os.c **** #endif 
 533:Middlewares/Third_Party/FreeRTOS/Source/CMSIS_RTOS/cmsis_os.c ****  
 534:Middlewares/Third_Party/FreeRTOS/Source/CMSIS_RTOS/cmsis_os.c ****   return result;
 535:Middlewares/Third_Party/FreeRTOS/Source/CMSIS_RTOS/cmsis_os.c **** }
 536:Middlewares/Third_Party/FreeRTOS/Source/CMSIS_RTOS/cmsis_os.c **** 
 537:Middlewares/Third_Party/FreeRTOS/Source/CMSIS_RTOS/cmsis_os.c **** /***************************  Signal Management ********************************/
 538:Middlewares/Third_Party/FreeRTOS/Source/CMSIS_RTOS/cmsis_os.c **** /**
 539:Middlewares/Third_Party/FreeRTOS/Source/CMSIS_RTOS/cmsis_os.c **** * @brief  Set the specified Signal Flags of an active thread.
 540:Middlewares/Third_Party/FreeRTOS/Source/CMSIS_RTOS/cmsis_os.c **** * @param  thread_id     thread ID obtained by \ref osThreadCreate or \ref osThreadGetId.
 541:Middlewares/Third_Party/FreeRTOS/Source/CMSIS_RTOS/cmsis_os.c **** * @param  signals       specifies the signal flags of the thread that should be set.
 542:Middlewares/Third_Party/FreeRTOS/Source/CMSIS_RTOS/cmsis_os.c **** * @retval previous signal flags of the specified thread or 0x80000000 in case of incorrect paramete
 543:Middlewares/Third_Party/FreeRTOS/Source/CMSIS_RTOS/cmsis_os.c **** * @note   MUST REMAIN UNCHANGED: \b osSignalSet shall be consistent in every CMSIS-RTOS.
 544:Middlewares/Third_Party/FreeRTOS/Source/CMSIS_RTOS/cmsis_os.c **** */
 545:Middlewares/Third_Party/FreeRTOS/Source/CMSIS_RTOS/cmsis_os.c **** int32_t osSignalSet (osThreadId thread_id, int32_t signal)
 546:Middlewares/Third_Party/FreeRTOS/Source/CMSIS_RTOS/cmsis_os.c **** {
 716              		.loc 1 546 1 is_stmt 1 view -0
 717              		.cfi_startproc
 718              		@ args = 0, pretend = 0, frame = 8
 719              		@ frame_needed = 0, uses_anonymous_args = 0
 547:Middlewares/Third_Party/FreeRTOS/Source/CMSIS_RTOS/cmsis_os.c **** #if( configUSE_TASK_NOTIFICATIONS == 1 )	
 548:Middlewares/Third_Party/FreeRTOS/Source/CMSIS_RTOS/cmsis_os.c ****   BaseType_t xHigherPriorityTaskWoken = pdFALSE;
 720              		.loc 1 548 3 view .LVU147
 721              		.loc 1 548 14 is_stmt 0 view .LVU148
 722 0000 0023     		movs	r3, #0
 546:Middlewares/Third_Party/FreeRTOS/Source/CMSIS_RTOS/cmsis_os.c **** #if( configUSE_TASK_NOTIFICATIONS == 1 )	
 723              		.loc 1 546 1 view .LVU149
 724 0002 00B5     		push	{lr}
 725              	.LCFI11:
 726              		.cfi_def_cfa_offset 4
 727              		.cfi_offset 14, -4
 728 0004 85B0     		sub	sp, sp, #20
 729              	.LCFI12:
 730              		.cfi_def_cfa_offset 24
 731              		.loc 1 548 14 view .LVU150
 732 0006 0293     		str	r3, [sp, #8]
 549:Middlewares/Third_Party/FreeRTOS/Source/CMSIS_RTOS/cmsis_os.c ****   uint32_t ulPreviousNotificationValue = 0;
ARM GAS  /tmp/ccSFdtfu.s 			page 26


 733              		.loc 1 549 3 is_stmt 1 view .LVU151
 734              		.loc 1 549 12 is_stmt 0 view .LVU152
 735 0008 0393     		str	r3, [sp, #12]
 550:Middlewares/Third_Party/FreeRTOS/Source/CMSIS_RTOS/cmsis_os.c ****   
 551:Middlewares/Third_Party/FreeRTOS/Source/CMSIS_RTOS/cmsis_os.c ****   if (inHandlerMode())
 736              		.loc 1 551 3 is_stmt 1 view .LVU153
 737              	.LBB128:
 738              	.LBI128:
 173:Middlewares/Third_Party/FreeRTOS/Source/CMSIS_RTOS/cmsis_os.c **** {
 739              		.loc 1 173 12 view .LVU154
 740              	.LBE128:
 175:Middlewares/Third_Party/FreeRTOS/Source/CMSIS_RTOS/cmsis_os.c **** }
 741              		.loc 1 175 3 view .LVU155
 742              	.LBB131:
 743              	.LBB129:
 744              	.LBI129:
 105:Drivers/CMSIS/Include/cmsis_gcc.h **** {
 745              		.loc 2 105 61 view .LVU156
 746              	.LBB130:
 107:Drivers/CMSIS/Include/cmsis_gcc.h **** 
 747              		.loc 2 107 3 view .LVU157
 109:Drivers/CMSIS/Include/cmsis_gcc.h ****   return(result);
 748              		.loc 2 109 3 view .LVU158
 749              		.syntax divided
 750              	@ 109 "Drivers/CMSIS/Include/cmsis_gcc.h" 1
 751 000a EFF30583 		MRS r3, ipsr
 752              	@ 0 "" 2
 753              	.LVL40:
 754              		.loc 2 110 3 view .LVU159
 755              		.loc 2 110 3 is_stmt 0 view .LVU160
 756              		.thumb
 757              		.syntax unified
 758              	.LBE130:
 759              	.LBE129:
 760              	.LBE131:
 761              		.loc 1 551 6 view .LVU161
 762 000e 002B     		cmp	r3, #0
 763 0010 11D0     		beq	.L32
 552:Middlewares/Third_Party/FreeRTOS/Source/CMSIS_RTOS/cmsis_os.c ****   {
 553:Middlewares/Third_Party/FreeRTOS/Source/CMSIS_RTOS/cmsis_os.c ****     if(xTaskGenericNotifyFromISR( thread_id , (uint32_t)signal, eSetBits, &ulPreviousNotificationVa
 764              		.loc 1 553 5 is_stmt 1 view .LVU162
 765              		.loc 1 553 8 is_stmt 0 view .LVU163
 766 0012 02AB     		add	r3, sp, #8
 767 0014 0093     		str	r3, [sp]
 768 0016 0122     		movs	r2, #1
 769 0018 03AB     		add	r3, sp, #12
 770 001a FFF7FEFF 		bl	xTaskGenericNotifyFromISR
 771              	.LVL41:
 772              		.loc 1 553 7 view .LVU164
 773 001e 0128     		cmp	r0, #1
 774 0020 0FD1     		bne	.L37
 554:Middlewares/Third_Party/FreeRTOS/Source/CMSIS_RTOS/cmsis_os.c ****       return 0x80000000;
 555:Middlewares/Third_Party/FreeRTOS/Source/CMSIS_RTOS/cmsis_os.c ****     
 556:Middlewares/Third_Party/FreeRTOS/Source/CMSIS_RTOS/cmsis_os.c ****     portYIELD_FROM_ISR( xHigherPriorityTaskWoken );
 775              		.loc 1 556 5 is_stmt 1 view .LVU165
 776 0022 029B     		ldr	r3, [sp, #8]
 777 0024 002B     		cmp	r3, #0
ARM GAS  /tmp/ccSFdtfu.s 			page 27


 778 0026 03D0     		beq	.L36
 779              		.loc 1 556 5 discriminator 1 view .LVU166
 780 0028 8022     		movs	r2, #128
 781 002a 074B     		ldr	r3, .L39
 782 002c 5205     		lsls	r2, r2, #21
 783 002e 1A60     		str	r2, [r3]
 784              	.L36:
 557:Middlewares/Third_Party/FreeRTOS/Source/CMSIS_RTOS/cmsis_os.c ****   }  
 558:Middlewares/Third_Party/FreeRTOS/Source/CMSIS_RTOS/cmsis_os.c ****   else if(xTaskGenericNotify( thread_id , (uint32_t)signal, eSetBits, &ulPreviousNotificationValue)
 559:Middlewares/Third_Party/FreeRTOS/Source/CMSIS_RTOS/cmsis_os.c ****     return 0x80000000;
 560:Middlewares/Third_Party/FreeRTOS/Source/CMSIS_RTOS/cmsis_os.c ****   
 561:Middlewares/Third_Party/FreeRTOS/Source/CMSIS_RTOS/cmsis_os.c ****   return ulPreviousNotificationValue;
 785              		.loc 1 561 3 view .LVU167
 786              		.loc 1 561 10 is_stmt 0 view .LVU168
 787 0030 0398     		ldr	r0, [sp, #12]
 788              	.L31:
 562:Middlewares/Third_Party/FreeRTOS/Source/CMSIS_RTOS/cmsis_os.c **** #else
 563:Middlewares/Third_Party/FreeRTOS/Source/CMSIS_RTOS/cmsis_os.c ****   (void) thread_id;
 564:Middlewares/Third_Party/FreeRTOS/Source/CMSIS_RTOS/cmsis_os.c ****   (void) signal;
 565:Middlewares/Third_Party/FreeRTOS/Source/CMSIS_RTOS/cmsis_os.c **** 
 566:Middlewares/Third_Party/FreeRTOS/Source/CMSIS_RTOS/cmsis_os.c ****   return 0x80000000; /* Task Notification not supported */ 	
 567:Middlewares/Third_Party/FreeRTOS/Source/CMSIS_RTOS/cmsis_os.c **** #endif
 568:Middlewares/Third_Party/FreeRTOS/Source/CMSIS_RTOS/cmsis_os.c **** }
 789              		.loc 1 568 1 view .LVU169
 790 0032 05B0     		add	sp, sp, #20
 791              		@ sp needed
 792 0034 00BD     		pop	{pc}
 793              	.LVL42:
 794              	.L32:
 558:Middlewares/Third_Party/FreeRTOS/Source/CMSIS_RTOS/cmsis_os.c ****     return 0x80000000;
 795              		.loc 1 558 8 is_stmt 1 view .LVU170
 558:Middlewares/Third_Party/FreeRTOS/Source/CMSIS_RTOS/cmsis_os.c ****     return 0x80000000;
 796              		.loc 1 558 11 is_stmt 0 view .LVU171
 797 0036 03AB     		add	r3, sp, #12
 798 0038 0122     		movs	r2, #1
 799 003a FFF7FEFF 		bl	xTaskGenericNotify
 800              	.LVL43:
 558:Middlewares/Third_Party/FreeRTOS/Source/CMSIS_RTOS/cmsis_os.c ****     return 0x80000000;
 801              		.loc 1 558 10 view .LVU172
 802 003e 0128     		cmp	r0, #1
 803 0040 F6D0     		beq	.L36
 804              	.L37:
 554:Middlewares/Third_Party/FreeRTOS/Source/CMSIS_RTOS/cmsis_os.c ****     
 805              		.loc 1 554 14 view .LVU173
 806 0042 8020     		movs	r0, #128
 807 0044 0006     		lsls	r0, r0, #24
 808 0046 F4E7     		b	.L31
 809              	.L40:
 810              		.align	2
 811              	.L39:
 812 0048 04ED00E0 		.word	-536810236
 813              		.cfi_endproc
 814              	.LFE54:
 816              		.section	.text.osSignalWait,"ax",%progbits
 817              		.align	1
 818              		.p2align 2,,3
 819              		.global	osSignalWait
ARM GAS  /tmp/ccSFdtfu.s 			page 28


 820              		.syntax unified
 821              		.code	16
 822              		.thumb_func
 823              		.fpu softvfp
 825              	osSignalWait:
 826              	.LVL44:
 827              	.LFB55:
 569:Middlewares/Third_Party/FreeRTOS/Source/CMSIS_RTOS/cmsis_os.c **** 
 570:Middlewares/Third_Party/FreeRTOS/Source/CMSIS_RTOS/cmsis_os.c **** /**
 571:Middlewares/Third_Party/FreeRTOS/Source/CMSIS_RTOS/cmsis_os.c **** * @brief  Clear the specified Signal Flags of an active thread.
 572:Middlewares/Third_Party/FreeRTOS/Source/CMSIS_RTOS/cmsis_os.c **** * @param  thread_id  thread ID obtained by \ref osThreadCreate or \ref osThreadGetId.
 573:Middlewares/Third_Party/FreeRTOS/Source/CMSIS_RTOS/cmsis_os.c **** * @param  signals    specifies the signal flags of the thread that shall be cleared.
 574:Middlewares/Third_Party/FreeRTOS/Source/CMSIS_RTOS/cmsis_os.c **** * @retval  previous signal flags of the specified thread or 0x80000000 in case of incorrect paramet
 575:Middlewares/Third_Party/FreeRTOS/Source/CMSIS_RTOS/cmsis_os.c **** * @note   MUST REMAIN UNCHANGED: \b osSignalClear shall be consistent in every CMSIS-RTOS.
 576:Middlewares/Third_Party/FreeRTOS/Source/CMSIS_RTOS/cmsis_os.c **** */
 577:Middlewares/Third_Party/FreeRTOS/Source/CMSIS_RTOS/cmsis_os.c **** int32_t osSignalClear (osThreadId thread_id, int32_t signal);
 578:Middlewares/Third_Party/FreeRTOS/Source/CMSIS_RTOS/cmsis_os.c **** 
 579:Middlewares/Third_Party/FreeRTOS/Source/CMSIS_RTOS/cmsis_os.c **** /**
 580:Middlewares/Third_Party/FreeRTOS/Source/CMSIS_RTOS/cmsis_os.c **** * @brief  Wait for one or more Signal Flags to become signaled for the current \b RUNNING thread.
 581:Middlewares/Third_Party/FreeRTOS/Source/CMSIS_RTOS/cmsis_os.c **** * @param  signals   wait until all specified signal flags set or 0 for any single signal flag.
 582:Middlewares/Third_Party/FreeRTOS/Source/CMSIS_RTOS/cmsis_os.c **** * @param  millisec  timeout value or 0 in case of no time-out.
 583:Middlewares/Third_Party/FreeRTOS/Source/CMSIS_RTOS/cmsis_os.c **** * @retval  event flag information or error code.
 584:Middlewares/Third_Party/FreeRTOS/Source/CMSIS_RTOS/cmsis_os.c **** * @note   MUST REMAIN UNCHANGED: \b osSignalWait shall be consistent in every CMSIS-RTOS.
 585:Middlewares/Third_Party/FreeRTOS/Source/CMSIS_RTOS/cmsis_os.c **** */
 586:Middlewares/Third_Party/FreeRTOS/Source/CMSIS_RTOS/cmsis_os.c **** osEvent osSignalWait (int32_t signals, uint32_t millisec)
 587:Middlewares/Third_Party/FreeRTOS/Source/CMSIS_RTOS/cmsis_os.c **** {
 828              		.loc 1 587 1 is_stmt 1 view -0
 829              		.cfi_startproc
 830              		@ args = 0, pretend = 0, frame = 16
 831              		@ frame_needed = 0, uses_anonymous_args = 0
 588:Middlewares/Third_Party/FreeRTOS/Source/CMSIS_RTOS/cmsis_os.c ****   osEvent ret;
 832              		.loc 1 588 3 view .LVU175
 589:Middlewares/Third_Party/FreeRTOS/Source/CMSIS_RTOS/cmsis_os.c **** 
 590:Middlewares/Third_Party/FreeRTOS/Source/CMSIS_RTOS/cmsis_os.c **** #if( configUSE_TASK_NOTIFICATIONS == 1 )
 591:Middlewares/Third_Party/FreeRTOS/Source/CMSIS_RTOS/cmsis_os.c **** 	
 592:Middlewares/Third_Party/FreeRTOS/Source/CMSIS_RTOS/cmsis_os.c ****   TickType_t ticks;
 833              		.loc 1 592 3 view .LVU176
 593:Middlewares/Third_Party/FreeRTOS/Source/CMSIS_RTOS/cmsis_os.c **** 
 594:Middlewares/Third_Party/FreeRTOS/Source/CMSIS_RTOS/cmsis_os.c ****   ret.value.signals = 0;  
 834              		.loc 1 594 3 view .LVU177
 835              		.loc 1 594 21 is_stmt 0 view .LVU178
 836 0000 0023     		movs	r3, #0
 587:Middlewares/Third_Party/FreeRTOS/Source/CMSIS_RTOS/cmsis_os.c ****   osEvent ret;
 837              		.loc 1 587 1 view .LVU179
 838 0002 70B5     		push	{r4, r5, r6, lr}
 839              	.LCFI13:
 840              		.cfi_def_cfa_offset 16
 841              		.cfi_offset 4, -16
 842              		.cfi_offset 5, -12
 843              		.cfi_offset 6, -8
 844              		.cfi_offset 14, -4
 845 0004 84B0     		sub	sp, sp, #16
 846              	.LCFI14:
 847              		.cfi_def_cfa_offset 32
 848              		.loc 1 594 21 view .LVU180
 849 0006 01AC     		add	r4, sp, #4
 587:Middlewares/Third_Party/FreeRTOS/Source/CMSIS_RTOS/cmsis_os.c ****   osEvent ret;
ARM GAS  /tmp/ccSFdtfu.s 			page 29


 850              		.loc 1 587 1 view .LVU181
 851 0008 0500     		movs	r5, r0
 852 000a 1600     		movs	r6, r2
 853              		.loc 1 594 21 view .LVU182
 854 000c 6360     		str	r3, [r4, #4]
 595:Middlewares/Third_Party/FreeRTOS/Source/CMSIS_RTOS/cmsis_os.c ****   ticks = 0;
 855              		.loc 1 595 3 is_stmt 1 view .LVU183
 856              	.LVL45:
 596:Middlewares/Third_Party/FreeRTOS/Source/CMSIS_RTOS/cmsis_os.c ****   if (millisec == osWaitForever) {
 857              		.loc 1 596 3 view .LVU184
 597:Middlewares/Third_Party/FreeRTOS/Source/CMSIS_RTOS/cmsis_os.c ****     ticks = portMAX_DELAY;
 598:Middlewares/Third_Party/FreeRTOS/Source/CMSIS_RTOS/cmsis_os.c ****   }
 599:Middlewares/Third_Party/FreeRTOS/Source/CMSIS_RTOS/cmsis_os.c ****   else if (millisec != 0) {
 600:Middlewares/Third_Party/FreeRTOS/Source/CMSIS_RTOS/cmsis_os.c ****     ticks = millisec / portTICK_PERIOD_MS;
 601:Middlewares/Third_Party/FreeRTOS/Source/CMSIS_RTOS/cmsis_os.c ****     if (ticks == 0) {
 602:Middlewares/Third_Party/FreeRTOS/Source/CMSIS_RTOS/cmsis_os.c ****       ticks = 1;
 603:Middlewares/Third_Party/FreeRTOS/Source/CMSIS_RTOS/cmsis_os.c ****     }
 604:Middlewares/Third_Party/FreeRTOS/Source/CMSIS_RTOS/cmsis_os.c ****   }  
 605:Middlewares/Third_Party/FreeRTOS/Source/CMSIS_RTOS/cmsis_os.c ****   
 606:Middlewares/Third_Party/FreeRTOS/Source/CMSIS_RTOS/cmsis_os.c ****   if (inHandlerMode())
 858              		.loc 1 606 3 view .LVU185
 859              	.LBB132:
 860              	.LBI132:
 173:Middlewares/Third_Party/FreeRTOS/Source/CMSIS_RTOS/cmsis_os.c **** {
 861              		.loc 1 173 12 view .LVU186
 862              	.LBE132:
 175:Middlewares/Third_Party/FreeRTOS/Source/CMSIS_RTOS/cmsis_os.c **** }
 863              		.loc 1 175 3 view .LVU187
 864              	.LBB135:
 865              	.LBB133:
 866              	.LBI133:
 105:Drivers/CMSIS/Include/cmsis_gcc.h **** {
 867              		.loc 2 105 61 view .LVU188
 868              	.LBB134:
 107:Drivers/CMSIS/Include/cmsis_gcc.h **** 
 869              		.loc 2 107 3 view .LVU189
 109:Drivers/CMSIS/Include/cmsis_gcc.h ****   return(result);
 870              		.loc 2 109 3 view .LVU190
 871              		.syntax divided
 872              	@ 109 "Drivers/CMSIS/Include/cmsis_gcc.h" 1
 873 000e EFF30583 		MRS r3, ipsr
 874              	@ 0 "" 2
 875              	.LVL46:
 876              		.loc 2 110 3 view .LVU191
 877              		.loc 2 110 3 is_stmt 0 view .LVU192
 878              		.thumb
 879              		.syntax unified
 880              	.LBE134:
 881              	.LBE133:
 882              	.LBE135:
 883              		.loc 1 606 6 view .LVU193
 884 0012 002B     		cmp	r3, #0
 885 0014 07D0     		beq	.L42
 607:Middlewares/Third_Party/FreeRTOS/Source/CMSIS_RTOS/cmsis_os.c ****   {
 608:Middlewares/Third_Party/FreeRTOS/Source/CMSIS_RTOS/cmsis_os.c ****     ret.status = osErrorISR;  /*Not allowed in ISR*/
 886              		.loc 1 608 5 is_stmt 1 view .LVU194
 887              		.loc 1 608 16 is_stmt 0 view .LVU195
ARM GAS  /tmp/ccSFdtfu.s 			page 30


 888 0016 8223     		movs	r3, #130
 889 0018 0193     		str	r3, [sp, #4]
 890              	.LVL47:
 891              	.L43:
 609:Middlewares/Third_Party/FreeRTOS/Source/CMSIS_RTOS/cmsis_os.c ****   }
 610:Middlewares/Third_Party/FreeRTOS/Source/CMSIS_RTOS/cmsis_os.c ****   else
 611:Middlewares/Third_Party/FreeRTOS/Source/CMSIS_RTOS/cmsis_os.c ****   {
 612:Middlewares/Third_Party/FreeRTOS/Source/CMSIS_RTOS/cmsis_os.c ****     if(xTaskNotifyWait( 0,(uint32_t) signals, (uint32_t *)&ret.value.signals, ticks) != pdTRUE)
 613:Middlewares/Third_Party/FreeRTOS/Source/CMSIS_RTOS/cmsis_os.c ****     {
 614:Middlewares/Third_Party/FreeRTOS/Source/CMSIS_RTOS/cmsis_os.c ****       if(ticks == 0)  ret.status = osOK;
 615:Middlewares/Third_Party/FreeRTOS/Source/CMSIS_RTOS/cmsis_os.c ****       else  ret.status = osEventTimeout;
 616:Middlewares/Third_Party/FreeRTOS/Source/CMSIS_RTOS/cmsis_os.c ****     }
 617:Middlewares/Third_Party/FreeRTOS/Source/CMSIS_RTOS/cmsis_os.c ****     else if(ret.value.signals < 0)
 618:Middlewares/Third_Party/FreeRTOS/Source/CMSIS_RTOS/cmsis_os.c ****     {
 619:Middlewares/Third_Party/FreeRTOS/Source/CMSIS_RTOS/cmsis_os.c ****       ret.status =  osErrorValue;     
 620:Middlewares/Third_Party/FreeRTOS/Source/CMSIS_RTOS/cmsis_os.c ****     }
 621:Middlewares/Third_Party/FreeRTOS/Source/CMSIS_RTOS/cmsis_os.c ****     else  ret.status =  osEventSignal;
 622:Middlewares/Third_Party/FreeRTOS/Source/CMSIS_RTOS/cmsis_os.c ****   }
 623:Middlewares/Third_Party/FreeRTOS/Source/CMSIS_RTOS/cmsis_os.c **** #else
 624:Middlewares/Third_Party/FreeRTOS/Source/CMSIS_RTOS/cmsis_os.c ****   (void) signals;
 625:Middlewares/Third_Party/FreeRTOS/Source/CMSIS_RTOS/cmsis_os.c ****   (void) millisec;
 626:Middlewares/Third_Party/FreeRTOS/Source/CMSIS_RTOS/cmsis_os.c **** 	
 627:Middlewares/Third_Party/FreeRTOS/Source/CMSIS_RTOS/cmsis_os.c ****   ret.status =  osErrorOS;	/* Task Notification not supported */
 628:Middlewares/Third_Party/FreeRTOS/Source/CMSIS_RTOS/cmsis_os.c **** #endif
 629:Middlewares/Third_Party/FreeRTOS/Source/CMSIS_RTOS/cmsis_os.c ****   
 630:Middlewares/Third_Party/FreeRTOS/Source/CMSIS_RTOS/cmsis_os.c ****   return ret;
 892              		.loc 1 630 3 is_stmt 1 view .LVU196
 893              		.loc 1 630 10 is_stmt 0 view .LVU197
 894 001a 2B00     		movs	r3, r5
 895 001c 07CC     		ldmia	r4!, {r0, r1, r2}
 896 001e 07C3     		stmia	r3!, {r0, r1, r2}
 631:Middlewares/Third_Party/FreeRTOS/Source/CMSIS_RTOS/cmsis_os.c **** }
 897              		.loc 1 631 1 view .LVU198
 898 0020 2800     		movs	r0, r5
 899 0022 04B0     		add	sp, sp, #16
 900              		@ sp needed
 901              	.LVL48:
 902              	.LVL49:
 903              		.loc 1 631 1 view .LVU199
 904 0024 70BD     		pop	{r4, r5, r6, pc}
 905              	.LVL50:
 906              	.L42:
 612:Middlewares/Third_Party/FreeRTOS/Source/CMSIS_RTOS/cmsis_os.c ****     {
 907              		.loc 1 612 5 is_stmt 1 view .LVU200
 612:Middlewares/Third_Party/FreeRTOS/Source/CMSIS_RTOS/cmsis_os.c ****     {
 908              		.loc 1 612 8 is_stmt 0 view .LVU201
 909 0026 1300     		movs	r3, r2
 910 0028 0020     		movs	r0, #0
 911              	.LVL51:
 612:Middlewares/Third_Party/FreeRTOS/Source/CMSIS_RTOS/cmsis_os.c ****     {
 912              		.loc 1 612 8 view .LVU202
 913 002a 02AA     		add	r2, sp, #8
 914              	.LVL52:
 612:Middlewares/Third_Party/FreeRTOS/Source/CMSIS_RTOS/cmsis_os.c ****     {
 915              		.loc 1 612 8 view .LVU203
 916 002c FFF7FEFF 		bl	xTaskNotifyWait
 917              	.LVL53:
ARM GAS  /tmp/ccSFdtfu.s 			page 31


 612:Middlewares/Third_Party/FreeRTOS/Source/CMSIS_RTOS/cmsis_os.c ****     {
 918              		.loc 1 612 7 view .LVU204
 919 0030 0128     		cmp	r0, #1
 920 0032 06D0     		beq	.L44
 614:Middlewares/Third_Party/FreeRTOS/Source/CMSIS_RTOS/cmsis_os.c ****       else  ret.status = osEventTimeout;
 921              		.loc 1 614 7 is_stmt 1 view .LVU205
 614:Middlewares/Third_Party/FreeRTOS/Source/CMSIS_RTOS/cmsis_os.c ****       else  ret.status = osEventTimeout;
 922              		.loc 1 614 9 is_stmt 0 view .LVU206
 923 0034 002E     		cmp	r6, #0
 924 0036 01D1     		bne	.L45
 614:Middlewares/Third_Party/FreeRTOS/Source/CMSIS_RTOS/cmsis_os.c ****       else  ret.status = osEventTimeout;
 925              		.loc 1 614 23 is_stmt 1 discriminator 1 view .LVU207
 614:Middlewares/Third_Party/FreeRTOS/Source/CMSIS_RTOS/cmsis_os.c ****       else  ret.status = osEventTimeout;
 926              		.loc 1 614 34 is_stmt 0 discriminator 1 view .LVU208
 927 0038 2660     		str	r6, [r4]
 928 003a EEE7     		b	.L43
 929              	.L45:
 615:Middlewares/Third_Party/FreeRTOS/Source/CMSIS_RTOS/cmsis_os.c ****     }
 930              		.loc 1 615 13 is_stmt 1 view .LVU209
 615:Middlewares/Third_Party/FreeRTOS/Source/CMSIS_RTOS/cmsis_os.c ****     }
 931              		.loc 1 615 24 is_stmt 0 view .LVU210
 932 003c 4023     		movs	r3, #64
 933 003e 2360     		str	r3, [r4]
 934 0040 EBE7     		b	.L43
 935              	.L44:
 617:Middlewares/Third_Party/FreeRTOS/Source/CMSIS_RTOS/cmsis_os.c ****     {
 936              		.loc 1 617 10 is_stmt 1 view .LVU211
 617:Middlewares/Third_Party/FreeRTOS/Source/CMSIS_RTOS/cmsis_os.c ****     {
 937              		.loc 1 617 12 is_stmt 0 view .LVU212
 938 0042 6368     		ldr	r3, [r4, #4]
 939 0044 002B     		cmp	r3, #0
 940 0046 02DB     		blt	.L47
 621:Middlewares/Third_Party/FreeRTOS/Source/CMSIS_RTOS/cmsis_os.c ****   }
 941              		.loc 1 621 11 is_stmt 1 view .LVU213
 621:Middlewares/Third_Party/FreeRTOS/Source/CMSIS_RTOS/cmsis_os.c ****   }
 942              		.loc 1 621 22 is_stmt 0 view .LVU214
 943 0048 0823     		movs	r3, #8
 944 004a 2360     		str	r3, [r4]
 945 004c E5E7     		b	.L43
 946              	.L47:
 619:Middlewares/Third_Party/FreeRTOS/Source/CMSIS_RTOS/cmsis_os.c ****     }
 947              		.loc 1 619 7 is_stmt 1 view .LVU215
 619:Middlewares/Third_Party/FreeRTOS/Source/CMSIS_RTOS/cmsis_os.c ****     }
 948              		.loc 1 619 18 is_stmt 0 view .LVU216
 949 004e 8623     		movs	r3, #134
 950 0050 2360     		str	r3, [r4]
 951 0052 E2E7     		b	.L43
 952              		.cfi_endproc
 953              	.LFE55:
 955              		.section	.text.osMutexCreate,"ax",%progbits
 956              		.align	1
 957              		.p2align 2,,3
 958              		.global	osMutexCreate
 959              		.syntax unified
 960              		.code	16
 961              		.thumb_func
 962              		.fpu softvfp
ARM GAS  /tmp/ccSFdtfu.s 			page 32


 964              	osMutexCreate:
 965              	.LVL54:
 966              	.LFB56:
 632:Middlewares/Third_Party/FreeRTOS/Source/CMSIS_RTOS/cmsis_os.c **** 
 633:Middlewares/Third_Party/FreeRTOS/Source/CMSIS_RTOS/cmsis_os.c **** /****************************  Mutex Management ********************************/
 634:Middlewares/Third_Party/FreeRTOS/Source/CMSIS_RTOS/cmsis_os.c **** /**
 635:Middlewares/Third_Party/FreeRTOS/Source/CMSIS_RTOS/cmsis_os.c **** * @brief  Create and Initialize a Mutex object
 636:Middlewares/Third_Party/FreeRTOS/Source/CMSIS_RTOS/cmsis_os.c **** * @param  mutex_def     mutex definition referenced with \ref osMutex.
 637:Middlewares/Third_Party/FreeRTOS/Source/CMSIS_RTOS/cmsis_os.c **** * @retval  mutex ID for reference by other functions or NULL in case of error.
 638:Middlewares/Third_Party/FreeRTOS/Source/CMSIS_RTOS/cmsis_os.c **** * @note   MUST REMAIN UNCHANGED: \b osMutexCreate shall be consistent in every CMSIS-RTOS.
 639:Middlewares/Third_Party/FreeRTOS/Source/CMSIS_RTOS/cmsis_os.c **** */
 640:Middlewares/Third_Party/FreeRTOS/Source/CMSIS_RTOS/cmsis_os.c **** osMutexId osMutexCreate (const osMutexDef_t *mutex_def)
 641:Middlewares/Third_Party/FreeRTOS/Source/CMSIS_RTOS/cmsis_os.c **** {
 967              		.loc 1 641 1 is_stmt 1 view -0
 968              		.cfi_startproc
 969              		@ args = 0, pretend = 0, frame = 0
 970              		@ frame_needed = 0, uses_anonymous_args = 0
 642:Middlewares/Third_Party/FreeRTOS/Source/CMSIS_RTOS/cmsis_os.c **** #if ( configUSE_MUTEXES == 1)
 643:Middlewares/Third_Party/FreeRTOS/Source/CMSIS_RTOS/cmsis_os.c **** 
 644:Middlewares/Third_Party/FreeRTOS/Source/CMSIS_RTOS/cmsis_os.c **** #if( configSUPPORT_STATIC_ALLOCATION == 1 ) && ( configSUPPORT_DYNAMIC_ALLOCATION == 1 )
 645:Middlewares/Third_Party/FreeRTOS/Source/CMSIS_RTOS/cmsis_os.c **** 
 646:Middlewares/Third_Party/FreeRTOS/Source/CMSIS_RTOS/cmsis_os.c ****   if (mutex_def->controlblock != NULL) {
 647:Middlewares/Third_Party/FreeRTOS/Source/CMSIS_RTOS/cmsis_os.c ****     return xSemaphoreCreateMutexStatic( mutex_def->controlblock );
 648:Middlewares/Third_Party/FreeRTOS/Source/CMSIS_RTOS/cmsis_os.c ****      }
 649:Middlewares/Third_Party/FreeRTOS/Source/CMSIS_RTOS/cmsis_os.c ****   else {
 650:Middlewares/Third_Party/FreeRTOS/Source/CMSIS_RTOS/cmsis_os.c ****     return xSemaphoreCreateMutex(); 
 651:Middlewares/Third_Party/FreeRTOS/Source/CMSIS_RTOS/cmsis_os.c ****   }
 652:Middlewares/Third_Party/FreeRTOS/Source/CMSIS_RTOS/cmsis_os.c **** #elif ( configSUPPORT_STATIC_ALLOCATION == 1 )
 653:Middlewares/Third_Party/FreeRTOS/Source/CMSIS_RTOS/cmsis_os.c ****   return xSemaphoreCreateMutexStatic( mutex_def->controlblock );
 654:Middlewares/Third_Party/FreeRTOS/Source/CMSIS_RTOS/cmsis_os.c **** #else  
 655:Middlewares/Third_Party/FreeRTOS/Source/CMSIS_RTOS/cmsis_os.c ****     return xSemaphoreCreateMutex(); 
 971              		.loc 1 655 5 view .LVU218
 641:Middlewares/Third_Party/FreeRTOS/Source/CMSIS_RTOS/cmsis_os.c **** #if ( configUSE_MUTEXES == 1)
 972              		.loc 1 641 1 is_stmt 0 view .LVU219
 973 0000 10B5     		push	{r4, lr}
 974              	.LCFI15:
 975              		.cfi_def_cfa_offset 8
 976              		.cfi_offset 4, -8
 977              		.cfi_offset 14, -4
 978              		.loc 1 655 12 view .LVU220
 979 0002 0120     		movs	r0, #1
 980              	.LVL55:
 981              		.loc 1 655 12 view .LVU221
 982 0004 FFF7FEFF 		bl	xQueueCreateMutex
 983              	.LVL56:
 656:Middlewares/Third_Party/FreeRTOS/Source/CMSIS_RTOS/cmsis_os.c **** #endif
 657:Middlewares/Third_Party/FreeRTOS/Source/CMSIS_RTOS/cmsis_os.c **** #else
 658:Middlewares/Third_Party/FreeRTOS/Source/CMSIS_RTOS/cmsis_os.c ****   return NULL;
 659:Middlewares/Third_Party/FreeRTOS/Source/CMSIS_RTOS/cmsis_os.c **** #endif
 660:Middlewares/Third_Party/FreeRTOS/Source/CMSIS_RTOS/cmsis_os.c **** }
 984              		.loc 1 660 1 view .LVU222
 985              		@ sp needed
 986 0008 10BD     		pop	{r4, pc}
 987              		.cfi_endproc
 988              	.LFE56:
 990 000a C046     		.section	.text.osMutexWait,"ax",%progbits
 991              		.align	1
ARM GAS  /tmp/ccSFdtfu.s 			page 33


 992              		.p2align 2,,3
 993              		.global	osMutexWait
 994              		.syntax unified
 995              		.code	16
 996              		.thumb_func
 997              		.fpu softvfp
 999              	osMutexWait:
 1000              	.LVL57:
 1001              	.LFB57:
 661:Middlewares/Third_Party/FreeRTOS/Source/CMSIS_RTOS/cmsis_os.c **** 
 662:Middlewares/Third_Party/FreeRTOS/Source/CMSIS_RTOS/cmsis_os.c **** /**
 663:Middlewares/Third_Party/FreeRTOS/Source/CMSIS_RTOS/cmsis_os.c **** * @brief Wait until a Mutex becomes available
 664:Middlewares/Third_Party/FreeRTOS/Source/CMSIS_RTOS/cmsis_os.c **** * @param mutex_id      mutex ID obtained by \ref osMutexCreate.
 665:Middlewares/Third_Party/FreeRTOS/Source/CMSIS_RTOS/cmsis_os.c **** * @param millisec      timeout value or 0 in case of no time-out.
 666:Middlewares/Third_Party/FreeRTOS/Source/CMSIS_RTOS/cmsis_os.c **** * @retval  status code that indicates the execution status of the function.
 667:Middlewares/Third_Party/FreeRTOS/Source/CMSIS_RTOS/cmsis_os.c **** * @note   MUST REMAIN UNCHANGED: \b osMutexWait shall be consistent in every CMSIS-RTOS.
 668:Middlewares/Third_Party/FreeRTOS/Source/CMSIS_RTOS/cmsis_os.c **** */
 669:Middlewares/Third_Party/FreeRTOS/Source/CMSIS_RTOS/cmsis_os.c **** osStatus osMutexWait (osMutexId mutex_id, uint32_t millisec)
 670:Middlewares/Third_Party/FreeRTOS/Source/CMSIS_RTOS/cmsis_os.c **** {
 1002              		.loc 1 670 1 is_stmt 1 view -0
 1003              		.cfi_startproc
 1004              		@ args = 0, pretend = 0, frame = 8
 1005              		@ frame_needed = 0, uses_anonymous_args = 0
 671:Middlewares/Third_Party/FreeRTOS/Source/CMSIS_RTOS/cmsis_os.c ****   TickType_t ticks;
 1006              		.loc 1 671 3 view .LVU224
 672:Middlewares/Third_Party/FreeRTOS/Source/CMSIS_RTOS/cmsis_os.c ****   portBASE_TYPE taskWoken = pdFALSE;  
 1007              		.loc 1 672 3 view .LVU225
 1008              		.loc 1 672 17 is_stmt 0 view .LVU226
 1009 0000 0023     		movs	r3, #0
 670:Middlewares/Third_Party/FreeRTOS/Source/CMSIS_RTOS/cmsis_os.c ****   TickType_t ticks;
 1010              		.loc 1 670 1 view .LVU227
 1011 0002 00B5     		push	{lr}
 1012              	.LCFI16:
 1013              		.cfi_def_cfa_offset 4
 1014              		.cfi_offset 14, -4
 1015 0004 83B0     		sub	sp, sp, #12
 1016              	.LCFI17:
 1017              		.cfi_def_cfa_offset 16
 1018              		.loc 1 672 17 view .LVU228
 1019 0006 0193     		str	r3, [sp, #4]
 673:Middlewares/Third_Party/FreeRTOS/Source/CMSIS_RTOS/cmsis_os.c ****   
 674:Middlewares/Third_Party/FreeRTOS/Source/CMSIS_RTOS/cmsis_os.c ****   
 675:Middlewares/Third_Party/FreeRTOS/Source/CMSIS_RTOS/cmsis_os.c ****   if (mutex_id == NULL) {
 1020              		.loc 1 675 3 is_stmt 1 view .LVU229
 1021              		.loc 1 675 6 is_stmt 0 view .LVU230
 1022 0008 0028     		cmp	r0, #0
 1023 000a 1DD0     		beq	.L55
 676:Middlewares/Third_Party/FreeRTOS/Source/CMSIS_RTOS/cmsis_os.c ****     return osErrorParameter;
 677:Middlewares/Third_Party/FreeRTOS/Source/CMSIS_RTOS/cmsis_os.c ****   }
 678:Middlewares/Third_Party/FreeRTOS/Source/CMSIS_RTOS/cmsis_os.c ****   
 679:Middlewares/Third_Party/FreeRTOS/Source/CMSIS_RTOS/cmsis_os.c ****   ticks = 0;
 1024              		.loc 1 679 3 is_stmt 1 view .LVU231
 1025              	.LVL58:
 680:Middlewares/Third_Party/FreeRTOS/Source/CMSIS_RTOS/cmsis_os.c ****   if (millisec == osWaitForever) {
 1026              		.loc 1 680 3 view .LVU232
 681:Middlewares/Third_Party/FreeRTOS/Source/CMSIS_RTOS/cmsis_os.c ****     ticks = portMAX_DELAY;
 682:Middlewares/Third_Party/FreeRTOS/Source/CMSIS_RTOS/cmsis_os.c ****   }
ARM GAS  /tmp/ccSFdtfu.s 			page 34


 683:Middlewares/Third_Party/FreeRTOS/Source/CMSIS_RTOS/cmsis_os.c ****   else if (millisec != 0) {
 684:Middlewares/Third_Party/FreeRTOS/Source/CMSIS_RTOS/cmsis_os.c ****     ticks = millisec / portTICK_PERIOD_MS;
 685:Middlewares/Third_Party/FreeRTOS/Source/CMSIS_RTOS/cmsis_os.c ****     if (ticks == 0) {
 686:Middlewares/Third_Party/FreeRTOS/Source/CMSIS_RTOS/cmsis_os.c ****       ticks = 1;
 687:Middlewares/Third_Party/FreeRTOS/Source/CMSIS_RTOS/cmsis_os.c ****     }
 688:Middlewares/Third_Party/FreeRTOS/Source/CMSIS_RTOS/cmsis_os.c ****   }
 689:Middlewares/Third_Party/FreeRTOS/Source/CMSIS_RTOS/cmsis_os.c ****   
 690:Middlewares/Third_Party/FreeRTOS/Source/CMSIS_RTOS/cmsis_os.c ****   if (inHandlerMode()) {
 1027              		.loc 1 690 3 view .LVU233
 1028              	.LBB136:
 1029              	.LBI136:
 173:Middlewares/Third_Party/FreeRTOS/Source/CMSIS_RTOS/cmsis_os.c **** {
 1030              		.loc 1 173 12 view .LVU234
 1031              	.LBE136:
 175:Middlewares/Third_Party/FreeRTOS/Source/CMSIS_RTOS/cmsis_os.c **** }
 1032              		.loc 1 175 3 view .LVU235
 1033              	.LBB139:
 1034              	.LBB137:
 1035              	.LBI137:
 105:Drivers/CMSIS/Include/cmsis_gcc.h **** {
 1036              		.loc 2 105 61 view .LVU236
 1037              	.LBB138:
 107:Drivers/CMSIS/Include/cmsis_gcc.h **** 
 1038              		.loc 2 107 3 view .LVU237
 109:Drivers/CMSIS/Include/cmsis_gcc.h ****   return(result);
 1039              		.loc 2 109 3 view .LVU238
 1040              		.syntax divided
 1041              	@ 109 "Drivers/CMSIS/Include/cmsis_gcc.h" 1
 1042 000c EFF30583 		MRS r3, ipsr
 1043              	@ 0 "" 2
 1044              	.LVL59:
 1045              		.loc 2 110 3 view .LVU239
 1046              		.loc 2 110 3 is_stmt 0 view .LVU240
 1047              		.thumb
 1048              		.syntax unified
 1049              	.LBE138:
 1050              	.LBE137:
 1051              	.LBE139:
 1052              		.loc 1 690 6 view .LVU241
 1053 0010 002B     		cmp	r3, #0
 1054 0012 0BD0     		beq	.L51
 691:Middlewares/Third_Party/FreeRTOS/Source/CMSIS_RTOS/cmsis_os.c ****     if (xSemaphoreTakeFromISR(mutex_id, &taskWoken) != pdTRUE) {
 1055              		.loc 1 691 5 is_stmt 1 view .LVU242
 1056              		.loc 1 691 9 is_stmt 0 view .LVU243
 1057 0014 01AA     		add	r2, sp, #4
 1058 0016 0021     		movs	r1, #0
 1059              	.LVL60:
 1060              		.loc 1 691 9 view .LVU244
 1061 0018 FFF7FEFF 		bl	xQueueReceiveFromISR
 1062              	.LVL61:
 1063              		.loc 1 691 8 view .LVU245
 1064 001c 0128     		cmp	r0, #1
 1065 001e 0CD1     		bne	.L52
 692:Middlewares/Third_Party/FreeRTOS/Source/CMSIS_RTOS/cmsis_os.c ****       return osErrorOS;
 693:Middlewares/Third_Party/FreeRTOS/Source/CMSIS_RTOS/cmsis_os.c ****     }
 694:Middlewares/Third_Party/FreeRTOS/Source/CMSIS_RTOS/cmsis_os.c **** 	portEND_SWITCHING_ISR(taskWoken);
 1066              		.loc 1 694 2 is_stmt 1 view .LVU246
ARM GAS  /tmp/ccSFdtfu.s 			page 35


 1067 0020 019B     		ldr	r3, [sp, #4]
 1068 0022 002B     		cmp	r3, #0
 1069 0024 0BD1     		bne	.L53
 1070              	.L59:
 695:Middlewares/Third_Party/FreeRTOS/Source/CMSIS_RTOS/cmsis_os.c ****   } 
 696:Middlewares/Third_Party/FreeRTOS/Source/CMSIS_RTOS/cmsis_os.c ****   else if (xSemaphoreTake(mutex_id, ticks) != pdTRUE) {
 697:Middlewares/Third_Party/FreeRTOS/Source/CMSIS_RTOS/cmsis_os.c ****     return osErrorOS;
 698:Middlewares/Third_Party/FreeRTOS/Source/CMSIS_RTOS/cmsis_os.c ****   }
 699:Middlewares/Third_Party/FreeRTOS/Source/CMSIS_RTOS/cmsis_os.c ****   
 700:Middlewares/Third_Party/FreeRTOS/Source/CMSIS_RTOS/cmsis_os.c ****   return osOK;
 1071              		.loc 1 700 10 is_stmt 0 discriminator 1 view .LVU247
 1072 0026 0020     		movs	r0, #0
 1073              	.LVL62:
 1074              	.L49:
 701:Middlewares/Third_Party/FreeRTOS/Source/CMSIS_RTOS/cmsis_os.c **** }
 1075              		.loc 1 701 1 view .LVU248
 1076 0028 03B0     		add	sp, sp, #12
 1077              		@ sp needed
 1078 002a 00BD     		pop	{pc}
 1079              	.LVL63:
 1080              	.L51:
 696:Middlewares/Third_Party/FreeRTOS/Source/CMSIS_RTOS/cmsis_os.c ****     return osErrorOS;
 1081              		.loc 1 696 8 is_stmt 1 view .LVU249
 696:Middlewares/Third_Party/FreeRTOS/Source/CMSIS_RTOS/cmsis_os.c ****     return osErrorOS;
 1082              		.loc 1 696 12 is_stmt 0 view .LVU250
 1083 002c 0A00     		movs	r2, r1
 1084 002e 0023     		movs	r3, #0
 1085 0030 0021     		movs	r1, #0
 1086              	.LVL64:
 696:Middlewares/Third_Party/FreeRTOS/Source/CMSIS_RTOS/cmsis_os.c ****     return osErrorOS;
 1087              		.loc 1 696 12 view .LVU251
 1088 0032 FFF7FEFF 		bl	xQueueGenericReceive
 1089              	.LVL65:
 696:Middlewares/Third_Party/FreeRTOS/Source/CMSIS_RTOS/cmsis_os.c ****     return osErrorOS;
 1090              		.loc 1 696 11 view .LVU252
 1091 0036 0128     		cmp	r0, #1
 1092 0038 F5D0     		beq	.L59
 1093              	.L52:
 697:Middlewares/Third_Party/FreeRTOS/Source/CMSIS_RTOS/cmsis_os.c ****   }
 1094              		.loc 1 697 5 is_stmt 1 view .LVU253
 697:Middlewares/Third_Party/FreeRTOS/Source/CMSIS_RTOS/cmsis_os.c ****   }
 1095              		.loc 1 697 12 is_stmt 0 view .LVU254
 1096 003a FF20     		movs	r0, #255
 1097 003c F4E7     		b	.L49
 1098              	.L53:
 694:Middlewares/Third_Party/FreeRTOS/Source/CMSIS_RTOS/cmsis_os.c ****   } 
 1099              		.loc 1 694 2 is_stmt 1 discriminator 1 view .LVU255
 1100 003e 8022     		movs	r2, #128
 1101 0040 024B     		ldr	r3, .L60
 1102 0042 5205     		lsls	r2, r2, #21
 1103 0044 1A60     		str	r2, [r3]
 1104 0046 EEE7     		b	.L59
 1105              	.LVL66:
 1106              	.L55:
 676:Middlewares/Third_Party/FreeRTOS/Source/CMSIS_RTOS/cmsis_os.c ****   }
 1107              		.loc 1 676 12 is_stmt 0 view .LVU256
 1108 0048 8020     		movs	r0, #128
ARM GAS  /tmp/ccSFdtfu.s 			page 36


 1109              	.LVL67:
 676:Middlewares/Third_Party/FreeRTOS/Source/CMSIS_RTOS/cmsis_os.c ****   }
 1110              		.loc 1 676 12 view .LVU257
 1111 004a EDE7     		b	.L49
 1112              	.L61:
 1113              		.align	2
 1114              	.L60:
 1115 004c 04ED00E0 		.word	-536810236
 1116              		.cfi_endproc
 1117              	.LFE57:
 1119              		.section	.text.osMutexRelease,"ax",%progbits
 1120              		.align	1
 1121              		.p2align 2,,3
 1122              		.global	osMutexRelease
 1123              		.syntax unified
 1124              		.code	16
 1125              		.thumb_func
 1126              		.fpu softvfp
 1128              	osMutexRelease:
 1129              	.LVL68:
 1130              	.LFB58:
 702:Middlewares/Third_Party/FreeRTOS/Source/CMSIS_RTOS/cmsis_os.c **** 
 703:Middlewares/Third_Party/FreeRTOS/Source/CMSIS_RTOS/cmsis_os.c **** /**
 704:Middlewares/Third_Party/FreeRTOS/Source/CMSIS_RTOS/cmsis_os.c **** * @brief Release a Mutex that was obtained by \ref osMutexWait
 705:Middlewares/Third_Party/FreeRTOS/Source/CMSIS_RTOS/cmsis_os.c **** * @param mutex_id      mutex ID obtained by \ref osMutexCreate.
 706:Middlewares/Third_Party/FreeRTOS/Source/CMSIS_RTOS/cmsis_os.c **** * @retval  status code that indicates the execution status of the function.
 707:Middlewares/Third_Party/FreeRTOS/Source/CMSIS_RTOS/cmsis_os.c **** * @note   MUST REMAIN UNCHANGED: \b osMutexRelease shall be consistent in every CMSIS-RTOS.
 708:Middlewares/Third_Party/FreeRTOS/Source/CMSIS_RTOS/cmsis_os.c **** */
 709:Middlewares/Third_Party/FreeRTOS/Source/CMSIS_RTOS/cmsis_os.c **** osStatus osMutexRelease (osMutexId mutex_id)
 710:Middlewares/Third_Party/FreeRTOS/Source/CMSIS_RTOS/cmsis_os.c **** {
 1131              		.loc 1 710 1 is_stmt 1 view -0
 1132              		.cfi_startproc
 1133              		@ args = 0, pretend = 0, frame = 8
 1134              		@ frame_needed = 0, uses_anonymous_args = 0
 711:Middlewares/Third_Party/FreeRTOS/Source/CMSIS_RTOS/cmsis_os.c ****   osStatus result = osOK;
 1135              		.loc 1 711 3 view .LVU259
 712:Middlewares/Third_Party/FreeRTOS/Source/CMSIS_RTOS/cmsis_os.c ****   portBASE_TYPE taskWoken = pdFALSE;
 1136              		.loc 1 712 3 view .LVU260
 1137              		.loc 1 712 17 is_stmt 0 view .LVU261
 1138 0000 0023     		movs	r3, #0
 710:Middlewares/Third_Party/FreeRTOS/Source/CMSIS_RTOS/cmsis_os.c ****   osStatus result = osOK;
 1139              		.loc 1 710 1 view .LVU262
 1140 0002 00B5     		push	{lr}
 1141              	.LCFI18:
 1142              		.cfi_def_cfa_offset 4
 1143              		.cfi_offset 14, -4
 1144 0004 83B0     		sub	sp, sp, #12
 1145              	.LCFI19:
 1146              		.cfi_def_cfa_offset 16
 1147              		.loc 1 712 17 view .LVU263
 1148 0006 0193     		str	r3, [sp, #4]
 713:Middlewares/Third_Party/FreeRTOS/Source/CMSIS_RTOS/cmsis_os.c ****   
 714:Middlewares/Third_Party/FreeRTOS/Source/CMSIS_RTOS/cmsis_os.c ****   if (inHandlerMode()) {
 1149              		.loc 1 714 3 is_stmt 1 view .LVU264
 1150              	.LBB143:
 1151              	.LBI143:
 173:Middlewares/Third_Party/FreeRTOS/Source/CMSIS_RTOS/cmsis_os.c **** {
ARM GAS  /tmp/ccSFdtfu.s 			page 37


 1152              		.loc 1 173 12 view .LVU265
 1153              	.LBE143:
 175:Middlewares/Third_Party/FreeRTOS/Source/CMSIS_RTOS/cmsis_os.c **** }
 1154              		.loc 1 175 3 view .LVU266
 1155              	.LBB146:
 1156              	.LBB144:
 1157              	.LBI144:
 105:Drivers/CMSIS/Include/cmsis_gcc.h **** {
 1158              		.loc 2 105 61 view .LVU267
 1159              	.LBB145:
 107:Drivers/CMSIS/Include/cmsis_gcc.h **** 
 1160              		.loc 2 107 3 view .LVU268
 109:Drivers/CMSIS/Include/cmsis_gcc.h ****   return(result);
 1161              		.loc 2 109 3 view .LVU269
 1162              		.syntax divided
 1163              	@ 109 "Drivers/CMSIS/Include/cmsis_gcc.h" 1
 1164 0008 EFF30583 		MRS r3, ipsr
 1165              	@ 0 "" 2
 1166              	.LVL69:
 1167              		.loc 2 110 3 view .LVU270
 1168              		.loc 2 110 3 is_stmt 0 view .LVU271
 1169              		.thumb
 1170              		.syntax unified
 1171              	.LBE145:
 1172              	.LBE144:
 1173              	.LBE146:
 1174              		.loc 1 714 6 view .LVU272
 1175 000c 002B     		cmp	r3, #0
 1176 000e 0DD0     		beq	.L63
 715:Middlewares/Third_Party/FreeRTOS/Source/CMSIS_RTOS/cmsis_os.c ****     if (xSemaphoreGiveFromISR(mutex_id, &taskWoken) != pdTRUE) {
 1177              		.loc 1 715 5 is_stmt 1 view .LVU273
 1178              		.loc 1 715 9 is_stmt 0 view .LVU274
 1179 0010 01A9     		add	r1, sp, #4
 1180 0012 FFF7FEFF 		bl	xQueueGiveFromISR
 1181              	.LVL70:
 1182              		.loc 1 715 8 view .LVU275
 1183 0016 0128     		cmp	r0, #1
 1184 0018 0FD1     		bne	.L64
 716:Middlewares/Third_Party/FreeRTOS/Source/CMSIS_RTOS/cmsis_os.c ****       return osErrorOS;
 717:Middlewares/Third_Party/FreeRTOS/Source/CMSIS_RTOS/cmsis_os.c ****     }
 718:Middlewares/Third_Party/FreeRTOS/Source/CMSIS_RTOS/cmsis_os.c ****     portEND_SWITCHING_ISR(taskWoken);
 1185              		.loc 1 718 5 is_stmt 1 view .LVU276
 1186 001a 019B     		ldr	r3, [sp, #4]
 1187 001c 002B     		cmp	r3, #0
 1188 001e 03D0     		beq	.L71
 1189              		.loc 1 718 5 discriminator 1 view .LVU277
 1190 0020 8022     		movs	r2, #128
 1191 0022 074B     		ldr	r3, .L72
 1192 0024 5205     		lsls	r2, r2, #21
 1193 0026 1A60     		str	r2, [r3]
 1194              	.L71:
 711:Middlewares/Third_Party/FreeRTOS/Source/CMSIS_RTOS/cmsis_os.c ****   portBASE_TYPE taskWoken = pdFALSE;
 1195              		.loc 1 711 12 is_stmt 0 discriminator 1 view .LVU278
 1196 0028 0020     		movs	r0, #0
 1197 002a 07E0     		b	.L62
 1198              	.LVL71:
 1199              	.L63:
ARM GAS  /tmp/ccSFdtfu.s 			page 38


 719:Middlewares/Third_Party/FreeRTOS/Source/CMSIS_RTOS/cmsis_os.c ****   }
 720:Middlewares/Third_Party/FreeRTOS/Source/CMSIS_RTOS/cmsis_os.c ****   else if (xSemaphoreGive(mutex_id) != pdTRUE) 
 1200              		.loc 1 720 8 is_stmt 1 view .LVU279
 1201              		.loc 1 720 12 is_stmt 0 view .LVU280
 1202 002c 0023     		movs	r3, #0
 1203 002e 0022     		movs	r2, #0
 1204 0030 0021     		movs	r1, #0
 1205 0032 FFF7FEFF 		bl	xQueueGenericSend
 1206              	.LVL72:
 1207              		.loc 1 720 11 view .LVU281
 1208 0036 0128     		cmp	r0, #1
 1209 0038 F6D0     		beq	.L71
 1210              	.L64:
 721:Middlewares/Third_Party/FreeRTOS/Source/CMSIS_RTOS/cmsis_os.c ****   {
 722:Middlewares/Third_Party/FreeRTOS/Source/CMSIS_RTOS/cmsis_os.c ****     result = osErrorOS;
 1211              		.loc 1 722 5 is_stmt 1 view .LVU282
 1212              	.LVL73:
 1213              		.loc 1 722 12 is_stmt 0 view .LVU283
 1214 003a FF20     		movs	r0, #255
 1215              	.LVL74:
 1216              	.L62:
 723:Middlewares/Third_Party/FreeRTOS/Source/CMSIS_RTOS/cmsis_os.c ****   }
 724:Middlewares/Third_Party/FreeRTOS/Source/CMSIS_RTOS/cmsis_os.c ****   return result;
 725:Middlewares/Third_Party/FreeRTOS/Source/CMSIS_RTOS/cmsis_os.c **** }
 1217              		.loc 1 725 1 view .LVU284
 1218 003c 03B0     		add	sp, sp, #12
 1219              		@ sp needed
 1220 003e 00BD     		pop	{pc}
 1221              	.L73:
 1222              		.align	2
 1223              	.L72:
 1224 0040 04ED00E0 		.word	-536810236
 1225              		.cfi_endproc
 1226              	.LFE58:
 1228              		.section	.text.osMutexDelete,"ax",%progbits
 1229              		.align	1
 1230              		.p2align 2,,3
 1231              		.global	osMutexDelete
 1232              		.syntax unified
 1233              		.code	16
 1234              		.thumb_func
 1235              		.fpu softvfp
 1237              	osMutexDelete:
 1238              	.LVL75:
 1239              	.LFB59:
 726:Middlewares/Third_Party/FreeRTOS/Source/CMSIS_RTOS/cmsis_os.c **** 
 727:Middlewares/Third_Party/FreeRTOS/Source/CMSIS_RTOS/cmsis_os.c **** /**
 728:Middlewares/Third_Party/FreeRTOS/Source/CMSIS_RTOS/cmsis_os.c **** * @brief Delete a Mutex
 729:Middlewares/Third_Party/FreeRTOS/Source/CMSIS_RTOS/cmsis_os.c **** * @param mutex_id  mutex ID obtained by \ref osMutexCreate.
 730:Middlewares/Third_Party/FreeRTOS/Source/CMSIS_RTOS/cmsis_os.c **** * @retval  status code that indicates the execution status of the function.
 731:Middlewares/Third_Party/FreeRTOS/Source/CMSIS_RTOS/cmsis_os.c **** * @note   MUST REMAIN UNCHANGED: \b osMutexDelete shall be consistent in every CMSIS-RTOS.
 732:Middlewares/Third_Party/FreeRTOS/Source/CMSIS_RTOS/cmsis_os.c **** */
 733:Middlewares/Third_Party/FreeRTOS/Source/CMSIS_RTOS/cmsis_os.c **** osStatus osMutexDelete (osMutexId mutex_id)
 734:Middlewares/Third_Party/FreeRTOS/Source/CMSIS_RTOS/cmsis_os.c **** {
 1240              		.loc 1 734 1 is_stmt 1 view -0
 1241              		.cfi_startproc
 1242              		@ args = 0, pretend = 0, frame = 0
ARM GAS  /tmp/ccSFdtfu.s 			page 39


 1243              		@ frame_needed = 0, uses_anonymous_args = 0
 735:Middlewares/Third_Party/FreeRTOS/Source/CMSIS_RTOS/cmsis_os.c ****   if (inHandlerMode()) {
 1244              		.loc 1 735 3 view .LVU286
 1245              	.LBB150:
 1246              	.LBI150:
 173:Middlewares/Third_Party/FreeRTOS/Source/CMSIS_RTOS/cmsis_os.c **** {
 1247              		.loc 1 173 12 view .LVU287
 1248              	.LBE150:
 175:Middlewares/Third_Party/FreeRTOS/Source/CMSIS_RTOS/cmsis_os.c **** }
 1249              		.loc 1 175 3 view .LVU288
 1250              	.LBB155:
 1251              	.LBB151:
 1252              	.LBI151:
 105:Drivers/CMSIS/Include/cmsis_gcc.h **** {
 1253              		.loc 2 105 61 view .LVU289
 1254              	.LBB152:
 107:Drivers/CMSIS/Include/cmsis_gcc.h **** 
 1255              		.loc 2 107 3 view .LVU290
 109:Drivers/CMSIS/Include/cmsis_gcc.h ****   return(result);
 1256              		.loc 2 109 3 view .LVU291
 1257              	.LBE152:
 1258              	.LBE151:
 1259              	.LBE155:
 734:Middlewares/Third_Party/FreeRTOS/Source/CMSIS_RTOS/cmsis_os.c ****   if (inHandlerMode()) {
 1260              		.loc 1 734 1 is_stmt 0 view .LVU292
 1261 0000 10B5     		push	{r4, lr}
 1262              	.LCFI20:
 1263              		.cfi_def_cfa_offset 8
 1264              		.cfi_offset 4, -8
 1265              		.cfi_offset 14, -4
 1266              	.LBB156:
 1267              	.LBB154:
 1268              	.LBB153:
 109:Drivers/CMSIS/Include/cmsis_gcc.h ****   return(result);
 1269              		.loc 2 109 3 view .LVU293
 1270              		.syntax divided
 1271              	@ 109 "Drivers/CMSIS/Include/cmsis_gcc.h" 1
 1272 0002 EFF30583 		MRS r3, ipsr
 1273              	@ 0 "" 2
 1274              	.LVL76:
 1275              		.loc 2 110 3 is_stmt 1 view .LVU294
 1276              		.loc 2 110 3 is_stmt 0 view .LVU295
 1277              		.thumb
 1278              		.syntax unified
 1279              	.LBE153:
 1280              	.LBE154:
 1281              	.LBE156:
 1282              		.loc 1 735 6 view .LVU296
 1283 0006 002B     		cmp	r3, #0
 1284 0008 03D1     		bne	.L76
 736:Middlewares/Third_Party/FreeRTOS/Source/CMSIS_RTOS/cmsis_os.c ****     return osErrorISR;
 737:Middlewares/Third_Party/FreeRTOS/Source/CMSIS_RTOS/cmsis_os.c ****   }
 738:Middlewares/Third_Party/FreeRTOS/Source/CMSIS_RTOS/cmsis_os.c **** 
 739:Middlewares/Third_Party/FreeRTOS/Source/CMSIS_RTOS/cmsis_os.c ****   vQueueDelete(mutex_id);
 1285              		.loc 1 739 3 is_stmt 1 view .LVU297
 1286 000a FFF7FEFF 		bl	vQueueDelete
 1287              	.LVL77:
ARM GAS  /tmp/ccSFdtfu.s 			page 40


 740:Middlewares/Third_Party/FreeRTOS/Source/CMSIS_RTOS/cmsis_os.c **** 
 741:Middlewares/Third_Party/FreeRTOS/Source/CMSIS_RTOS/cmsis_os.c ****   return osOK;
 1288              		.loc 1 741 3 view .LVU298
 1289              		.loc 1 741 10 is_stmt 0 view .LVU299
 1290 000e 0020     		movs	r0, #0
 1291              	.L74:
 742:Middlewares/Third_Party/FreeRTOS/Source/CMSIS_RTOS/cmsis_os.c **** }
 1292              		.loc 1 742 1 view .LVU300
 1293              		@ sp needed
 1294 0010 10BD     		pop	{r4, pc}
 1295              	.LVL78:
 1296              	.L76:
 736:Middlewares/Third_Party/FreeRTOS/Source/CMSIS_RTOS/cmsis_os.c ****     return osErrorISR;
 1297              		.loc 1 736 12 view .LVU301
 1298 0012 8220     		movs	r0, #130
 1299              	.LVL79:
 736:Middlewares/Third_Party/FreeRTOS/Source/CMSIS_RTOS/cmsis_os.c ****     return osErrorISR;
 1300              		.loc 1 736 12 view .LVU302
 1301 0014 FCE7     		b	.L74
 1302              		.cfi_endproc
 1303              	.LFE59:
 1305 0016 C046     		.section	.text.osSemaphoreCreate,"ax",%progbits
 1306              		.align	1
 1307              		.p2align 2,,3
 1308              		.global	osSemaphoreCreate
 1309              		.syntax unified
 1310              		.code	16
 1311              		.thumb_func
 1312              		.fpu softvfp
 1314              	osSemaphoreCreate:
 1315              	.LVL80:
 1316              	.LFB60:
 743:Middlewares/Third_Party/FreeRTOS/Source/CMSIS_RTOS/cmsis_os.c **** 
 744:Middlewares/Third_Party/FreeRTOS/Source/CMSIS_RTOS/cmsis_os.c **** /********************  Semaphore Management Functions **************************/
 745:Middlewares/Third_Party/FreeRTOS/Source/CMSIS_RTOS/cmsis_os.c **** 
 746:Middlewares/Third_Party/FreeRTOS/Source/CMSIS_RTOS/cmsis_os.c **** #if (defined (osFeature_Semaphore)  &&  (osFeature_Semaphore != 0))
 747:Middlewares/Third_Party/FreeRTOS/Source/CMSIS_RTOS/cmsis_os.c **** 
 748:Middlewares/Third_Party/FreeRTOS/Source/CMSIS_RTOS/cmsis_os.c **** /**
 749:Middlewares/Third_Party/FreeRTOS/Source/CMSIS_RTOS/cmsis_os.c **** * @brief Create and Initialize a Semaphore object used for managing resources
 750:Middlewares/Third_Party/FreeRTOS/Source/CMSIS_RTOS/cmsis_os.c **** * @param semaphore_def semaphore definition referenced with \ref osSemaphore.
 751:Middlewares/Third_Party/FreeRTOS/Source/CMSIS_RTOS/cmsis_os.c **** * @param count         number of available resources.
 752:Middlewares/Third_Party/FreeRTOS/Source/CMSIS_RTOS/cmsis_os.c **** * @retval  semaphore ID for reference by other functions or NULL in case of error.
 753:Middlewares/Third_Party/FreeRTOS/Source/CMSIS_RTOS/cmsis_os.c **** * @note   MUST REMAIN UNCHANGED: \b osSemaphoreCreate shall be consistent in every CMSIS-RTOS.
 754:Middlewares/Third_Party/FreeRTOS/Source/CMSIS_RTOS/cmsis_os.c **** */
 755:Middlewares/Third_Party/FreeRTOS/Source/CMSIS_RTOS/cmsis_os.c **** osSemaphoreId osSemaphoreCreate (const osSemaphoreDef_t *semaphore_def, int32_t count)
 756:Middlewares/Third_Party/FreeRTOS/Source/CMSIS_RTOS/cmsis_os.c **** { 
 1317              		.loc 1 756 1 is_stmt 1 view -0
 1318              		.cfi_startproc
 1319              		@ args = 0, pretend = 0, frame = 0
 1320              		@ frame_needed = 0, uses_anonymous_args = 0
 757:Middlewares/Third_Party/FreeRTOS/Source/CMSIS_RTOS/cmsis_os.c **** #if( configSUPPORT_STATIC_ALLOCATION == 1 ) && ( configSUPPORT_DYNAMIC_ALLOCATION == 1 )
 758:Middlewares/Third_Party/FreeRTOS/Source/CMSIS_RTOS/cmsis_os.c **** 
 759:Middlewares/Third_Party/FreeRTOS/Source/CMSIS_RTOS/cmsis_os.c ****   osSemaphoreId sema;
 760:Middlewares/Third_Party/FreeRTOS/Source/CMSIS_RTOS/cmsis_os.c ****   
 761:Middlewares/Third_Party/FreeRTOS/Source/CMSIS_RTOS/cmsis_os.c ****   if (semaphore_def->controlblock != NULL){
 762:Middlewares/Third_Party/FreeRTOS/Source/CMSIS_RTOS/cmsis_os.c ****     if (count == 1) {
 763:Middlewares/Third_Party/FreeRTOS/Source/CMSIS_RTOS/cmsis_os.c ****       return xSemaphoreCreateBinaryStatic( semaphore_def->controlblock );
ARM GAS  /tmp/ccSFdtfu.s 			page 41


 764:Middlewares/Third_Party/FreeRTOS/Source/CMSIS_RTOS/cmsis_os.c ****     }
 765:Middlewares/Third_Party/FreeRTOS/Source/CMSIS_RTOS/cmsis_os.c ****     else {
 766:Middlewares/Third_Party/FreeRTOS/Source/CMSIS_RTOS/cmsis_os.c **** #if (configUSE_COUNTING_SEMAPHORES == 1 )
 767:Middlewares/Third_Party/FreeRTOS/Source/CMSIS_RTOS/cmsis_os.c ****       return xSemaphoreCreateCountingStatic( count, count, semaphore_def->controlblock );
 768:Middlewares/Third_Party/FreeRTOS/Source/CMSIS_RTOS/cmsis_os.c **** #else
 769:Middlewares/Third_Party/FreeRTOS/Source/CMSIS_RTOS/cmsis_os.c ****       return NULL;
 770:Middlewares/Third_Party/FreeRTOS/Source/CMSIS_RTOS/cmsis_os.c **** #endif
 771:Middlewares/Third_Party/FreeRTOS/Source/CMSIS_RTOS/cmsis_os.c ****     }
 772:Middlewares/Third_Party/FreeRTOS/Source/CMSIS_RTOS/cmsis_os.c ****   }
 773:Middlewares/Third_Party/FreeRTOS/Source/CMSIS_RTOS/cmsis_os.c ****   else {
 774:Middlewares/Third_Party/FreeRTOS/Source/CMSIS_RTOS/cmsis_os.c ****     if (count == 1) {
 775:Middlewares/Third_Party/FreeRTOS/Source/CMSIS_RTOS/cmsis_os.c ****       vSemaphoreCreateBinary(sema);
 776:Middlewares/Third_Party/FreeRTOS/Source/CMSIS_RTOS/cmsis_os.c ****       return sema;
 777:Middlewares/Third_Party/FreeRTOS/Source/CMSIS_RTOS/cmsis_os.c ****     }
 778:Middlewares/Third_Party/FreeRTOS/Source/CMSIS_RTOS/cmsis_os.c ****     else {
 779:Middlewares/Third_Party/FreeRTOS/Source/CMSIS_RTOS/cmsis_os.c **** #if (configUSE_COUNTING_SEMAPHORES == 1 )	
 780:Middlewares/Third_Party/FreeRTOS/Source/CMSIS_RTOS/cmsis_os.c ****       return xSemaphoreCreateCounting(count, count);
 781:Middlewares/Third_Party/FreeRTOS/Source/CMSIS_RTOS/cmsis_os.c **** #else
 782:Middlewares/Third_Party/FreeRTOS/Source/CMSIS_RTOS/cmsis_os.c ****       return NULL;
 783:Middlewares/Third_Party/FreeRTOS/Source/CMSIS_RTOS/cmsis_os.c **** #endif    
 784:Middlewares/Third_Party/FreeRTOS/Source/CMSIS_RTOS/cmsis_os.c ****     }
 785:Middlewares/Third_Party/FreeRTOS/Source/CMSIS_RTOS/cmsis_os.c ****   }
 786:Middlewares/Third_Party/FreeRTOS/Source/CMSIS_RTOS/cmsis_os.c **** #elif ( configSUPPORT_STATIC_ALLOCATION == 1 ) // configSUPPORT_DYNAMIC_ALLOCATION == 0
 787:Middlewares/Third_Party/FreeRTOS/Source/CMSIS_RTOS/cmsis_os.c ****   if(count == 1) {
 788:Middlewares/Third_Party/FreeRTOS/Source/CMSIS_RTOS/cmsis_os.c ****     return xSemaphoreCreateBinaryStatic( semaphore_def->controlblock );
 789:Middlewares/Third_Party/FreeRTOS/Source/CMSIS_RTOS/cmsis_os.c ****   }
 790:Middlewares/Third_Party/FreeRTOS/Source/CMSIS_RTOS/cmsis_os.c ****   else
 791:Middlewares/Third_Party/FreeRTOS/Source/CMSIS_RTOS/cmsis_os.c ****   {
 792:Middlewares/Third_Party/FreeRTOS/Source/CMSIS_RTOS/cmsis_os.c **** #if (configUSE_COUNTING_SEMAPHORES == 1 )
 793:Middlewares/Third_Party/FreeRTOS/Source/CMSIS_RTOS/cmsis_os.c ****       return xSemaphoreCreateCountingStatic( count, count, semaphore_def->controlblock );
 794:Middlewares/Third_Party/FreeRTOS/Source/CMSIS_RTOS/cmsis_os.c **** #else
 795:Middlewares/Third_Party/FreeRTOS/Source/CMSIS_RTOS/cmsis_os.c ****       return NULL;
 796:Middlewares/Third_Party/FreeRTOS/Source/CMSIS_RTOS/cmsis_os.c **** #endif    
 797:Middlewares/Third_Party/FreeRTOS/Source/CMSIS_RTOS/cmsis_os.c ****   }
 798:Middlewares/Third_Party/FreeRTOS/Source/CMSIS_RTOS/cmsis_os.c **** #else  // configSUPPORT_STATIC_ALLOCATION == 0  && configSUPPORT_DYNAMIC_ALLOCATION == 1
 799:Middlewares/Third_Party/FreeRTOS/Source/CMSIS_RTOS/cmsis_os.c ****   osSemaphoreId sema;
 1321              		.loc 1 799 3 view .LVU304
 800:Middlewares/Third_Party/FreeRTOS/Source/CMSIS_RTOS/cmsis_os.c ****  
 801:Middlewares/Third_Party/FreeRTOS/Source/CMSIS_RTOS/cmsis_os.c ****   if (count == 1) {
 1322              		.loc 1 801 3 view .LVU305
 756:Middlewares/Third_Party/FreeRTOS/Source/CMSIS_RTOS/cmsis_os.c **** #if( configSUPPORT_STATIC_ALLOCATION == 1 ) && ( configSUPPORT_DYNAMIC_ALLOCATION == 1 )
 1323              		.loc 1 756 1 is_stmt 0 view .LVU306
 1324 0000 10B5     		push	{r4, lr}
 1325              	.LCFI21:
 1326              		.cfi_def_cfa_offset 8
 1327              		.cfi_offset 4, -8
 1328              		.cfi_offset 14, -4
 802:Middlewares/Third_Party/FreeRTOS/Source/CMSIS_RTOS/cmsis_os.c ****     vSemaphoreCreateBinary(sema);
 803:Middlewares/Third_Party/FreeRTOS/Source/CMSIS_RTOS/cmsis_os.c ****     return sema;
 804:Middlewares/Third_Party/FreeRTOS/Source/CMSIS_RTOS/cmsis_os.c ****   }
 805:Middlewares/Third_Party/FreeRTOS/Source/CMSIS_RTOS/cmsis_os.c ****   else {
 806:Middlewares/Third_Party/FreeRTOS/Source/CMSIS_RTOS/cmsis_os.c **** #if (configUSE_COUNTING_SEMAPHORES == 1 )	
 807:Middlewares/Third_Party/FreeRTOS/Source/CMSIS_RTOS/cmsis_os.c ****     return xSemaphoreCreateCounting(count, count);
 808:Middlewares/Third_Party/FreeRTOS/Source/CMSIS_RTOS/cmsis_os.c **** #else
 809:Middlewares/Third_Party/FreeRTOS/Source/CMSIS_RTOS/cmsis_os.c ****     return NULL;
 1329              		.loc 1 809 12 view .LVU307
 1330 0002 0024     		movs	r4, #0
ARM GAS  /tmp/ccSFdtfu.s 			page 42


 801:Middlewares/Third_Party/FreeRTOS/Source/CMSIS_RTOS/cmsis_os.c ****     vSemaphoreCreateBinary(sema);
 1331              		.loc 1 801 6 view .LVU308
 1332 0004 0129     		cmp	r1, #1
 1333 0006 01D0     		beq	.L83
 1334              	.LVL81:
 1335              	.L77:
 810:Middlewares/Third_Party/FreeRTOS/Source/CMSIS_RTOS/cmsis_os.c **** #endif
 811:Middlewares/Third_Party/FreeRTOS/Source/CMSIS_RTOS/cmsis_os.c ****   }
 812:Middlewares/Third_Party/FreeRTOS/Source/CMSIS_RTOS/cmsis_os.c **** #endif
 813:Middlewares/Third_Party/FreeRTOS/Source/CMSIS_RTOS/cmsis_os.c **** }
 1336              		.loc 1 813 1 view .LVU309
 1337 0008 2000     		movs	r0, r4
 1338              		@ sp needed
 1339 000a 10BD     		pop	{r4, pc}
 1340              	.LVL82:
 1341              	.L83:
 802:Middlewares/Third_Party/FreeRTOS/Source/CMSIS_RTOS/cmsis_os.c ****     return sema;
 1342              		.loc 1 802 5 is_stmt 1 view .LVU310
 1343 000c 0322     		movs	r2, #3
 1344 000e 0021     		movs	r1, #0
 1345              	.LVL83:
 802:Middlewares/Third_Party/FreeRTOS/Source/CMSIS_RTOS/cmsis_os.c ****     return sema;
 1346              		.loc 1 802 5 is_stmt 0 view .LVU311
 1347 0010 0120     		movs	r0, #1
 1348              	.LVL84:
 802:Middlewares/Third_Party/FreeRTOS/Source/CMSIS_RTOS/cmsis_os.c ****     return sema;
 1349              		.loc 1 802 5 view .LVU312
 1350 0012 FFF7FEFF 		bl	xQueueGenericCreate
 1351              	.LVL85:
 1352 0016 041E     		subs	r4, r0, #0
 1353              	.LVL86:
 802:Middlewares/Third_Party/FreeRTOS/Source/CMSIS_RTOS/cmsis_os.c ****     return sema;
 1354              		.loc 1 802 5 is_stmt 1 view .LVU313
 1355 0018 F6D0     		beq	.L77
 802:Middlewares/Third_Party/FreeRTOS/Source/CMSIS_RTOS/cmsis_os.c ****     return sema;
 1356              		.loc 1 802 5 discriminator 1 view .LVU314
 1357 001a 0023     		movs	r3, #0
 1358 001c 0022     		movs	r2, #0
 1359 001e 0021     		movs	r1, #0
 1360 0020 FFF7FEFF 		bl	xQueueGenericSend
 1361              	.LVL87:
 802:Middlewares/Third_Party/FreeRTOS/Source/CMSIS_RTOS/cmsis_os.c ****     return sema;
 1362              		.loc 1 802 5 is_stmt 0 discriminator 1 view .LVU315
 1363 0024 F0E7     		b	.L77
 1364              		.cfi_endproc
 1365              	.LFE60:
 1367 0026 C046     		.section	.text.osSemaphoreWait,"ax",%progbits
 1368              		.align	1
 1369              		.p2align 2,,3
 1370              		.global	osSemaphoreWait
 1371              		.syntax unified
 1372              		.code	16
 1373              		.thumb_func
 1374              		.fpu softvfp
 1376              	osSemaphoreWait:
 1377              	.LVL88:
 1378              	.LFB61:
ARM GAS  /tmp/ccSFdtfu.s 			page 43


 814:Middlewares/Third_Party/FreeRTOS/Source/CMSIS_RTOS/cmsis_os.c **** 
 815:Middlewares/Third_Party/FreeRTOS/Source/CMSIS_RTOS/cmsis_os.c **** /**
 816:Middlewares/Third_Party/FreeRTOS/Source/CMSIS_RTOS/cmsis_os.c **** * @brief Wait until a Semaphore token becomes available
 817:Middlewares/Third_Party/FreeRTOS/Source/CMSIS_RTOS/cmsis_os.c **** * @param  semaphore_id  semaphore object referenced with \ref osSemaphore.
 818:Middlewares/Third_Party/FreeRTOS/Source/CMSIS_RTOS/cmsis_os.c **** * @param  millisec      timeout value or 0 in case of no time-out.
 819:Middlewares/Third_Party/FreeRTOS/Source/CMSIS_RTOS/cmsis_os.c **** * @retval  number of available tokens, or -1 in case of incorrect parameters.
 820:Middlewares/Third_Party/FreeRTOS/Source/CMSIS_RTOS/cmsis_os.c **** * @note   MUST REMAIN UNCHANGED: \b osSemaphoreWait shall be consistent in every CMSIS-RTOS.
 821:Middlewares/Third_Party/FreeRTOS/Source/CMSIS_RTOS/cmsis_os.c **** */
 822:Middlewares/Third_Party/FreeRTOS/Source/CMSIS_RTOS/cmsis_os.c **** int32_t osSemaphoreWait (osSemaphoreId semaphore_id, uint32_t millisec)
 823:Middlewares/Third_Party/FreeRTOS/Source/CMSIS_RTOS/cmsis_os.c **** {
 1379              		.loc 1 823 1 is_stmt 1 view -0
 1380              		.cfi_startproc
 1381              		@ args = 0, pretend = 0, frame = 8
 1382              		@ frame_needed = 0, uses_anonymous_args = 0
 824:Middlewares/Third_Party/FreeRTOS/Source/CMSIS_RTOS/cmsis_os.c ****   TickType_t ticks;
 1383              		.loc 1 824 3 view .LVU317
 825:Middlewares/Third_Party/FreeRTOS/Source/CMSIS_RTOS/cmsis_os.c ****   portBASE_TYPE taskWoken = pdFALSE;  
 1384              		.loc 1 825 3 view .LVU318
 1385              		.loc 1 825 17 is_stmt 0 view .LVU319
 1386 0000 0023     		movs	r3, #0
 823:Middlewares/Third_Party/FreeRTOS/Source/CMSIS_RTOS/cmsis_os.c ****   TickType_t ticks;
 1387              		.loc 1 823 1 view .LVU320
 1388 0002 00B5     		push	{lr}
 1389              	.LCFI22:
 1390              		.cfi_def_cfa_offset 4
 1391              		.cfi_offset 14, -4
 1392 0004 83B0     		sub	sp, sp, #12
 1393              	.LCFI23:
 1394              		.cfi_def_cfa_offset 16
 1395              		.loc 1 825 17 view .LVU321
 1396 0006 0193     		str	r3, [sp, #4]
 826:Middlewares/Third_Party/FreeRTOS/Source/CMSIS_RTOS/cmsis_os.c ****   
 827:Middlewares/Third_Party/FreeRTOS/Source/CMSIS_RTOS/cmsis_os.c ****   
 828:Middlewares/Third_Party/FreeRTOS/Source/CMSIS_RTOS/cmsis_os.c ****   if (semaphore_id == NULL) {
 1397              		.loc 1 828 3 is_stmt 1 view .LVU322
 1398              		.loc 1 828 6 is_stmt 0 view .LVU323
 1399 0008 0028     		cmp	r0, #0
 1400 000a 1DD0     		beq	.L90
 829:Middlewares/Third_Party/FreeRTOS/Source/CMSIS_RTOS/cmsis_os.c ****     return osErrorParameter;
 830:Middlewares/Third_Party/FreeRTOS/Source/CMSIS_RTOS/cmsis_os.c ****   }
 831:Middlewares/Third_Party/FreeRTOS/Source/CMSIS_RTOS/cmsis_os.c ****   
 832:Middlewares/Third_Party/FreeRTOS/Source/CMSIS_RTOS/cmsis_os.c ****   ticks = 0;
 1401              		.loc 1 832 3 is_stmt 1 view .LVU324
 1402              	.LVL89:
 833:Middlewares/Third_Party/FreeRTOS/Source/CMSIS_RTOS/cmsis_os.c ****   if (millisec == osWaitForever) {
 1403              		.loc 1 833 3 view .LVU325
 834:Middlewares/Third_Party/FreeRTOS/Source/CMSIS_RTOS/cmsis_os.c ****     ticks = portMAX_DELAY;
 835:Middlewares/Third_Party/FreeRTOS/Source/CMSIS_RTOS/cmsis_os.c ****   }
 836:Middlewares/Third_Party/FreeRTOS/Source/CMSIS_RTOS/cmsis_os.c ****   else if (millisec != 0) {
 837:Middlewares/Third_Party/FreeRTOS/Source/CMSIS_RTOS/cmsis_os.c ****     ticks = millisec / portTICK_PERIOD_MS;
 838:Middlewares/Third_Party/FreeRTOS/Source/CMSIS_RTOS/cmsis_os.c ****     if (ticks == 0) {
 839:Middlewares/Third_Party/FreeRTOS/Source/CMSIS_RTOS/cmsis_os.c ****       ticks = 1;
 840:Middlewares/Third_Party/FreeRTOS/Source/CMSIS_RTOS/cmsis_os.c ****     }
 841:Middlewares/Third_Party/FreeRTOS/Source/CMSIS_RTOS/cmsis_os.c ****   }
 842:Middlewares/Third_Party/FreeRTOS/Source/CMSIS_RTOS/cmsis_os.c ****   
 843:Middlewares/Third_Party/FreeRTOS/Source/CMSIS_RTOS/cmsis_os.c ****   if (inHandlerMode()) {
 1404              		.loc 1 843 3 view .LVU326
ARM GAS  /tmp/ccSFdtfu.s 			page 44


 1405              	.LBB157:
 1406              	.LBI157:
 173:Middlewares/Third_Party/FreeRTOS/Source/CMSIS_RTOS/cmsis_os.c **** {
 1407              		.loc 1 173 12 view .LVU327
 1408              	.LBE157:
 175:Middlewares/Third_Party/FreeRTOS/Source/CMSIS_RTOS/cmsis_os.c **** }
 1409              		.loc 1 175 3 view .LVU328
 1410              	.LBB160:
 1411              	.LBB158:
 1412              	.LBI158:
 105:Drivers/CMSIS/Include/cmsis_gcc.h **** {
 1413              		.loc 2 105 61 view .LVU329
 1414              	.LBB159:
 107:Drivers/CMSIS/Include/cmsis_gcc.h **** 
 1415              		.loc 2 107 3 view .LVU330
 109:Drivers/CMSIS/Include/cmsis_gcc.h ****   return(result);
 1416              		.loc 2 109 3 view .LVU331
 1417              		.syntax divided
 1418              	@ 109 "Drivers/CMSIS/Include/cmsis_gcc.h" 1
 1419 000c EFF30583 		MRS r3, ipsr
 1420              	@ 0 "" 2
 1421              	.LVL90:
 1422              		.loc 2 110 3 view .LVU332
 1423              		.loc 2 110 3 is_stmt 0 view .LVU333
 1424              		.thumb
 1425              		.syntax unified
 1426              	.LBE159:
 1427              	.LBE158:
 1428              	.LBE160:
 1429              		.loc 1 843 6 view .LVU334
 1430 0010 002B     		cmp	r3, #0
 1431 0012 0BD0     		beq	.L86
 844:Middlewares/Third_Party/FreeRTOS/Source/CMSIS_RTOS/cmsis_os.c ****     if (xSemaphoreTakeFromISR(semaphore_id, &taskWoken) != pdTRUE) {
 1432              		.loc 1 844 5 is_stmt 1 view .LVU335
 1433              		.loc 1 844 9 is_stmt 0 view .LVU336
 1434 0014 01AA     		add	r2, sp, #4
 1435 0016 0021     		movs	r1, #0
 1436              	.LVL91:
 1437              		.loc 1 844 9 view .LVU337
 1438 0018 FFF7FEFF 		bl	xQueueReceiveFromISR
 1439              	.LVL92:
 1440              		.loc 1 844 8 view .LVU338
 1441 001c 0128     		cmp	r0, #1
 1442 001e 0CD1     		bne	.L87
 845:Middlewares/Third_Party/FreeRTOS/Source/CMSIS_RTOS/cmsis_os.c ****       return osErrorOS;
 846:Middlewares/Third_Party/FreeRTOS/Source/CMSIS_RTOS/cmsis_os.c ****     }
 847:Middlewares/Third_Party/FreeRTOS/Source/CMSIS_RTOS/cmsis_os.c **** 	portEND_SWITCHING_ISR(taskWoken);
 1443              		.loc 1 847 2 is_stmt 1 view .LVU339
 1444 0020 019B     		ldr	r3, [sp, #4]
 1445 0022 002B     		cmp	r3, #0
 1446 0024 0BD1     		bne	.L88
 1447              	.L94:
 848:Middlewares/Third_Party/FreeRTOS/Source/CMSIS_RTOS/cmsis_os.c ****   }  
 849:Middlewares/Third_Party/FreeRTOS/Source/CMSIS_RTOS/cmsis_os.c ****   else if (xSemaphoreTake(semaphore_id, ticks) != pdTRUE) {
 850:Middlewares/Third_Party/FreeRTOS/Source/CMSIS_RTOS/cmsis_os.c ****     return osErrorOS;
 851:Middlewares/Third_Party/FreeRTOS/Source/CMSIS_RTOS/cmsis_os.c ****   }
 852:Middlewares/Third_Party/FreeRTOS/Source/CMSIS_RTOS/cmsis_os.c ****   
ARM GAS  /tmp/ccSFdtfu.s 			page 45


 853:Middlewares/Third_Party/FreeRTOS/Source/CMSIS_RTOS/cmsis_os.c ****   return osOK;
 1448              		.loc 1 853 10 is_stmt 0 discriminator 1 view .LVU340
 1449 0026 0020     		movs	r0, #0
 1450              	.LVL93:
 1451              	.L84:
 854:Middlewares/Third_Party/FreeRTOS/Source/CMSIS_RTOS/cmsis_os.c **** }
 1452              		.loc 1 854 1 view .LVU341
 1453 0028 03B0     		add	sp, sp, #12
 1454              		@ sp needed
 1455 002a 00BD     		pop	{pc}
 1456              	.LVL94:
 1457              	.L86:
 849:Middlewares/Third_Party/FreeRTOS/Source/CMSIS_RTOS/cmsis_os.c ****     return osErrorOS;
 1458              		.loc 1 849 8 is_stmt 1 view .LVU342
 849:Middlewares/Third_Party/FreeRTOS/Source/CMSIS_RTOS/cmsis_os.c ****     return osErrorOS;
 1459              		.loc 1 849 12 is_stmt 0 view .LVU343
 1460 002c 0A00     		movs	r2, r1
 1461 002e 0023     		movs	r3, #0
 1462 0030 0021     		movs	r1, #0
 1463              	.LVL95:
 849:Middlewares/Third_Party/FreeRTOS/Source/CMSIS_RTOS/cmsis_os.c ****     return osErrorOS;
 1464              		.loc 1 849 12 view .LVU344
 1465 0032 FFF7FEFF 		bl	xQueueGenericReceive
 1466              	.LVL96:
 849:Middlewares/Third_Party/FreeRTOS/Source/CMSIS_RTOS/cmsis_os.c ****     return osErrorOS;
 1467              		.loc 1 849 11 view .LVU345
 1468 0036 0128     		cmp	r0, #1
 1469 0038 F5D0     		beq	.L94
 1470              	.L87:
 850:Middlewares/Third_Party/FreeRTOS/Source/CMSIS_RTOS/cmsis_os.c ****   }
 1471              		.loc 1 850 5 is_stmt 1 view .LVU346
 850:Middlewares/Third_Party/FreeRTOS/Source/CMSIS_RTOS/cmsis_os.c ****   }
 1472              		.loc 1 850 12 is_stmt 0 view .LVU347
 1473 003a FF20     		movs	r0, #255
 1474 003c F4E7     		b	.L84
 1475              	.L88:
 847:Middlewares/Third_Party/FreeRTOS/Source/CMSIS_RTOS/cmsis_os.c ****   }  
 1476              		.loc 1 847 2 is_stmt 1 discriminator 1 view .LVU348
 1477 003e 8022     		movs	r2, #128
 1478 0040 024B     		ldr	r3, .L95
 1479 0042 5205     		lsls	r2, r2, #21
 1480 0044 1A60     		str	r2, [r3]
 1481 0046 EEE7     		b	.L94
 1482              	.LVL97:
 1483              	.L90:
 829:Middlewares/Third_Party/FreeRTOS/Source/CMSIS_RTOS/cmsis_os.c ****   }
 1484              		.loc 1 829 12 is_stmt 0 view .LVU349
 1485 0048 8020     		movs	r0, #128
 1486              	.LVL98:
 829:Middlewares/Third_Party/FreeRTOS/Source/CMSIS_RTOS/cmsis_os.c ****   }
 1487              		.loc 1 829 12 view .LVU350
 1488 004a EDE7     		b	.L84
 1489              	.L96:
 1490              		.align	2
 1491              	.L95:
 1492 004c 04ED00E0 		.word	-536810236
 1493              		.cfi_endproc
ARM GAS  /tmp/ccSFdtfu.s 			page 46


 1494              	.LFE61:
 1496              		.section	.text.osSemaphoreRelease,"ax",%progbits
 1497              		.align	1
 1498              		.p2align 2,,3
 1499              		.global	osSemaphoreRelease
 1500              		.syntax unified
 1501              		.code	16
 1502              		.thumb_func
 1503              		.fpu softvfp
 1505              	osSemaphoreRelease:
 1506              	.LFB96:
 1507              		.cfi_startproc
 1508              		@ args = 0, pretend = 0, frame = 8
 1509              		@ frame_needed = 0, uses_anonymous_args = 0
 1510 0000 0023     		movs	r3, #0
 1511 0002 00B5     		push	{lr}
 1512              	.LCFI24:
 1513              		.cfi_def_cfa_offset 4
 1514              		.cfi_offset 14, -4
 1515 0004 83B0     		sub	sp, sp, #12
 1516              	.LCFI25:
 1517              		.cfi_def_cfa_offset 16
 1518 0006 0193     		str	r3, [sp, #4]
 1519              		.syntax divided
 1520              	@ 109 "Drivers/CMSIS/Include/cmsis_gcc.h" 1
 1521 0008 EFF30583 		MRS r3, ipsr
 1522              	@ 0 "" 2
 1523              		.thumb
 1524              		.syntax unified
 1525 000c 002B     		cmp	r3, #0
 1526 000e 0DD0     		beq	.L98
 1527 0010 01A9     		add	r1, sp, #4
 1528 0012 FFF7FEFF 		bl	xQueueGiveFromISR
 1529 0016 0128     		cmp	r0, #1
 1530 0018 0FD1     		bne	.L99
 1531 001a 019B     		ldr	r3, [sp, #4]
 1532 001c 002B     		cmp	r3, #0
 1533 001e 03D0     		beq	.L106
 1534 0020 8022     		movs	r2, #128
 1535 0022 074B     		ldr	r3, .L107
 1536 0024 5205     		lsls	r2, r2, #21
 1537 0026 1A60     		str	r2, [r3]
 1538              	.L106:
 1539 0028 0020     		movs	r0, #0
 1540 002a 07E0     		b	.L97
 1541              	.L98:
 1542 002c 0023     		movs	r3, #0
 1543 002e 0022     		movs	r2, #0
 1544 0030 0021     		movs	r1, #0
 1545 0032 FFF7FEFF 		bl	xQueueGenericSend
 1546 0036 0128     		cmp	r0, #1
 1547 0038 F6D0     		beq	.L106
 1548              	.L99:
 1549 003a FF20     		movs	r0, #255
 1550              	.L97:
 1551 003c 03B0     		add	sp, sp, #12
 1552              		@ sp needed
ARM GAS  /tmp/ccSFdtfu.s 			page 47


 1553 003e 00BD     		pop	{pc}
 1554              	.L108:
 1555              		.align	2
 1556              	.L107:
 1557 0040 04ED00E0 		.word	-536810236
 1558              		.cfi_endproc
 1559              	.LFE96:
 1561              		.section	.text.osSemaphoreDelete,"ax",%progbits
 1562              		.align	1
 1563              		.p2align 2,,3
 1564              		.global	osSemaphoreDelete
 1565              		.syntax unified
 1566              		.code	16
 1567              		.thumb_func
 1568              		.fpu softvfp
 1570              	osSemaphoreDelete:
 1571              	.LFB98:
 1572              		.cfi_startproc
 1573              		@ args = 0, pretend = 0, frame = 0
 1574              		@ frame_needed = 0, uses_anonymous_args = 0
 1575 0000 10B5     		push	{r4, lr}
 1576              	.LCFI26:
 1577              		.cfi_def_cfa_offset 8
 1578              		.cfi_offset 4, -8
 1579              		.cfi_offset 14, -4
 1580              		.syntax divided
 1581              	@ 109 "Drivers/CMSIS/Include/cmsis_gcc.h" 1
 1582 0002 EFF30583 		MRS r3, ipsr
 1583              	@ 0 "" 2
 1584              		.thumb
 1585              		.syntax unified
 1586 0006 002B     		cmp	r3, #0
 1587 0008 03D1     		bne	.L111
 1588 000a FFF7FEFF 		bl	vQueueDelete
 1589 000e 0020     		movs	r0, #0
 1590              	.L109:
 1591              		@ sp needed
 1592 0010 10BD     		pop	{r4, pc}
 1593              	.L111:
 1594 0012 8220     		movs	r0, #130
 1595 0014 FCE7     		b	.L109
 1596              		.cfi_endproc
 1597              	.LFE98:
 1599 0016 C046     		.section	.text.osPoolCreate,"ax",%progbits
 1600              		.align	1
 1601              		.p2align 2,,3
 1602              		.global	osPoolCreate
 1603              		.syntax unified
 1604              		.code	16
 1605              		.thumb_func
 1606              		.fpu softvfp
 1608              	osPoolCreate:
 1609              	.LVL99:
 1610              	.LFB64:
 855:Middlewares/Third_Party/FreeRTOS/Source/CMSIS_RTOS/cmsis_os.c **** 
 856:Middlewares/Third_Party/FreeRTOS/Source/CMSIS_RTOS/cmsis_os.c **** /**
 857:Middlewares/Third_Party/FreeRTOS/Source/CMSIS_RTOS/cmsis_os.c **** * @brief Release a Semaphore token
ARM GAS  /tmp/ccSFdtfu.s 			page 48


 858:Middlewares/Third_Party/FreeRTOS/Source/CMSIS_RTOS/cmsis_os.c **** * @param  semaphore_id  semaphore object referenced with \ref osSemaphore.
 859:Middlewares/Third_Party/FreeRTOS/Source/CMSIS_RTOS/cmsis_os.c **** * @retval  status code that indicates the execution status of the function.
 860:Middlewares/Third_Party/FreeRTOS/Source/CMSIS_RTOS/cmsis_os.c **** * @note   MUST REMAIN UNCHANGED: \b osSemaphoreRelease shall be consistent in every CMSIS-RTOS.
 861:Middlewares/Third_Party/FreeRTOS/Source/CMSIS_RTOS/cmsis_os.c **** */
 862:Middlewares/Third_Party/FreeRTOS/Source/CMSIS_RTOS/cmsis_os.c **** osStatus osSemaphoreRelease (osSemaphoreId semaphore_id)
 863:Middlewares/Third_Party/FreeRTOS/Source/CMSIS_RTOS/cmsis_os.c **** {
 864:Middlewares/Third_Party/FreeRTOS/Source/CMSIS_RTOS/cmsis_os.c ****   osStatus result = osOK;
 865:Middlewares/Third_Party/FreeRTOS/Source/CMSIS_RTOS/cmsis_os.c ****   portBASE_TYPE taskWoken = pdFALSE;
 866:Middlewares/Third_Party/FreeRTOS/Source/CMSIS_RTOS/cmsis_os.c ****   
 867:Middlewares/Third_Party/FreeRTOS/Source/CMSIS_RTOS/cmsis_os.c ****   
 868:Middlewares/Third_Party/FreeRTOS/Source/CMSIS_RTOS/cmsis_os.c ****   if (inHandlerMode()) {
 869:Middlewares/Third_Party/FreeRTOS/Source/CMSIS_RTOS/cmsis_os.c ****     if (xSemaphoreGiveFromISR(semaphore_id, &taskWoken) != pdTRUE) {
 870:Middlewares/Third_Party/FreeRTOS/Source/CMSIS_RTOS/cmsis_os.c ****       return osErrorOS;
 871:Middlewares/Third_Party/FreeRTOS/Source/CMSIS_RTOS/cmsis_os.c ****     }
 872:Middlewares/Third_Party/FreeRTOS/Source/CMSIS_RTOS/cmsis_os.c ****     portEND_SWITCHING_ISR(taskWoken);
 873:Middlewares/Third_Party/FreeRTOS/Source/CMSIS_RTOS/cmsis_os.c ****   }
 874:Middlewares/Third_Party/FreeRTOS/Source/CMSIS_RTOS/cmsis_os.c ****   else {
 875:Middlewares/Third_Party/FreeRTOS/Source/CMSIS_RTOS/cmsis_os.c ****     if (xSemaphoreGive(semaphore_id) != pdTRUE) {
 876:Middlewares/Third_Party/FreeRTOS/Source/CMSIS_RTOS/cmsis_os.c ****       result = osErrorOS;
 877:Middlewares/Third_Party/FreeRTOS/Source/CMSIS_RTOS/cmsis_os.c ****     }
 878:Middlewares/Third_Party/FreeRTOS/Source/CMSIS_RTOS/cmsis_os.c ****   }
 879:Middlewares/Third_Party/FreeRTOS/Source/CMSIS_RTOS/cmsis_os.c ****   
 880:Middlewares/Third_Party/FreeRTOS/Source/CMSIS_RTOS/cmsis_os.c ****   return result;
 881:Middlewares/Third_Party/FreeRTOS/Source/CMSIS_RTOS/cmsis_os.c **** }
 882:Middlewares/Third_Party/FreeRTOS/Source/CMSIS_RTOS/cmsis_os.c **** 
 883:Middlewares/Third_Party/FreeRTOS/Source/CMSIS_RTOS/cmsis_os.c **** /**
 884:Middlewares/Third_Party/FreeRTOS/Source/CMSIS_RTOS/cmsis_os.c **** * @brief Delete a Semaphore
 885:Middlewares/Third_Party/FreeRTOS/Source/CMSIS_RTOS/cmsis_os.c **** * @param  semaphore_id  semaphore object referenced with \ref osSemaphore.
 886:Middlewares/Third_Party/FreeRTOS/Source/CMSIS_RTOS/cmsis_os.c **** * @retval  status code that indicates the execution status of the function.
 887:Middlewares/Third_Party/FreeRTOS/Source/CMSIS_RTOS/cmsis_os.c **** * @note   MUST REMAIN UNCHANGED: \b osSemaphoreDelete shall be consistent in every CMSIS-RTOS.
 888:Middlewares/Third_Party/FreeRTOS/Source/CMSIS_RTOS/cmsis_os.c **** */
 889:Middlewares/Third_Party/FreeRTOS/Source/CMSIS_RTOS/cmsis_os.c **** osStatus osSemaphoreDelete (osSemaphoreId semaphore_id)
 890:Middlewares/Third_Party/FreeRTOS/Source/CMSIS_RTOS/cmsis_os.c **** {
 891:Middlewares/Third_Party/FreeRTOS/Source/CMSIS_RTOS/cmsis_os.c ****   if (inHandlerMode()) {
 892:Middlewares/Third_Party/FreeRTOS/Source/CMSIS_RTOS/cmsis_os.c ****     return osErrorISR;
 893:Middlewares/Third_Party/FreeRTOS/Source/CMSIS_RTOS/cmsis_os.c ****   }
 894:Middlewares/Third_Party/FreeRTOS/Source/CMSIS_RTOS/cmsis_os.c **** 
 895:Middlewares/Third_Party/FreeRTOS/Source/CMSIS_RTOS/cmsis_os.c ****   vSemaphoreDelete(semaphore_id);
 896:Middlewares/Third_Party/FreeRTOS/Source/CMSIS_RTOS/cmsis_os.c **** 
 897:Middlewares/Third_Party/FreeRTOS/Source/CMSIS_RTOS/cmsis_os.c ****   return osOK; 
 898:Middlewares/Third_Party/FreeRTOS/Source/CMSIS_RTOS/cmsis_os.c **** }
 899:Middlewares/Third_Party/FreeRTOS/Source/CMSIS_RTOS/cmsis_os.c **** 
 900:Middlewares/Third_Party/FreeRTOS/Source/CMSIS_RTOS/cmsis_os.c **** #endif    /* Use Semaphores */
 901:Middlewares/Third_Party/FreeRTOS/Source/CMSIS_RTOS/cmsis_os.c **** 
 902:Middlewares/Third_Party/FreeRTOS/Source/CMSIS_RTOS/cmsis_os.c **** /*******************   Memory Pool Management Functions  ***********************/
 903:Middlewares/Third_Party/FreeRTOS/Source/CMSIS_RTOS/cmsis_os.c **** 
 904:Middlewares/Third_Party/FreeRTOS/Source/CMSIS_RTOS/cmsis_os.c **** #if (defined (osFeature_Pool)  &&  (osFeature_Pool != 0)) 
 905:Middlewares/Third_Party/FreeRTOS/Source/CMSIS_RTOS/cmsis_os.c **** 
 906:Middlewares/Third_Party/FreeRTOS/Source/CMSIS_RTOS/cmsis_os.c **** //TODO
 907:Middlewares/Third_Party/FreeRTOS/Source/CMSIS_RTOS/cmsis_os.c **** //This is a primitive and inefficient wrapper around the existing FreeRTOS memory management.
 908:Middlewares/Third_Party/FreeRTOS/Source/CMSIS_RTOS/cmsis_os.c **** //A better implementation will have to modify heap_x.c!
 909:Middlewares/Third_Party/FreeRTOS/Source/CMSIS_RTOS/cmsis_os.c **** 
 910:Middlewares/Third_Party/FreeRTOS/Source/CMSIS_RTOS/cmsis_os.c **** 
 911:Middlewares/Third_Party/FreeRTOS/Source/CMSIS_RTOS/cmsis_os.c **** typedef struct os_pool_cb {
 912:Middlewares/Third_Party/FreeRTOS/Source/CMSIS_RTOS/cmsis_os.c ****   void *pool;
 913:Middlewares/Third_Party/FreeRTOS/Source/CMSIS_RTOS/cmsis_os.c ****   uint8_t *markers;
 914:Middlewares/Third_Party/FreeRTOS/Source/CMSIS_RTOS/cmsis_os.c ****   uint32_t pool_sz;
ARM GAS  /tmp/ccSFdtfu.s 			page 49


 915:Middlewares/Third_Party/FreeRTOS/Source/CMSIS_RTOS/cmsis_os.c ****   uint32_t item_sz;
 916:Middlewares/Third_Party/FreeRTOS/Source/CMSIS_RTOS/cmsis_os.c ****   uint32_t currentIndex;
 917:Middlewares/Third_Party/FreeRTOS/Source/CMSIS_RTOS/cmsis_os.c **** } os_pool_cb_t;
 918:Middlewares/Third_Party/FreeRTOS/Source/CMSIS_RTOS/cmsis_os.c **** 
 919:Middlewares/Third_Party/FreeRTOS/Source/CMSIS_RTOS/cmsis_os.c **** 
 920:Middlewares/Third_Party/FreeRTOS/Source/CMSIS_RTOS/cmsis_os.c **** /**
 921:Middlewares/Third_Party/FreeRTOS/Source/CMSIS_RTOS/cmsis_os.c **** * @brief Create and Initialize a memory pool
 922:Middlewares/Third_Party/FreeRTOS/Source/CMSIS_RTOS/cmsis_os.c **** * @param  pool_def      memory pool definition referenced with \ref osPool.
 923:Middlewares/Third_Party/FreeRTOS/Source/CMSIS_RTOS/cmsis_os.c **** * @retval  memory pool ID for reference by other functions or NULL in case of error.
 924:Middlewares/Third_Party/FreeRTOS/Source/CMSIS_RTOS/cmsis_os.c **** * @note   MUST REMAIN UNCHANGED: \b osPoolCreate shall be consistent in every CMSIS-RTOS.
 925:Middlewares/Third_Party/FreeRTOS/Source/CMSIS_RTOS/cmsis_os.c **** */
 926:Middlewares/Third_Party/FreeRTOS/Source/CMSIS_RTOS/cmsis_os.c **** osPoolId osPoolCreate (const osPoolDef_t *pool_def)
 927:Middlewares/Third_Party/FreeRTOS/Source/CMSIS_RTOS/cmsis_os.c **** {
 1611              		.loc 1 927 1 is_stmt 1 view -0
 1612              		.cfi_startproc
 1613              		@ args = 0, pretend = 0, frame = 0
 1614              		@ frame_needed = 0, uses_anonymous_args = 0
 928:Middlewares/Third_Party/FreeRTOS/Source/CMSIS_RTOS/cmsis_os.c **** #if (configSUPPORT_DYNAMIC_ALLOCATION == 1)
 929:Middlewares/Third_Party/FreeRTOS/Source/CMSIS_RTOS/cmsis_os.c ****   osPoolId thePool;
 1615              		.loc 1 929 3 view .LVU352
 930:Middlewares/Third_Party/FreeRTOS/Source/CMSIS_RTOS/cmsis_os.c ****   int itemSize = 4 * ((pool_def->item_sz + 3) / 4);
 1616              		.loc 1 930 3 view .LVU353
 927:Middlewares/Third_Party/FreeRTOS/Source/CMSIS_RTOS/cmsis_os.c **** #if (configSUPPORT_DYNAMIC_ALLOCATION == 1)
 1617              		.loc 1 927 1 is_stmt 0 view .LVU354
 1618 0000 70B5     		push	{r4, r5, r6, lr}
 1619              	.LCFI27:
 1620              		.cfi_def_cfa_offset 16
 1621              		.cfi_offset 4, -16
 1622              		.cfi_offset 5, -12
 1623              		.cfi_offset 6, -8
 1624              		.cfi_offset 14, -4
 1625              		.loc 1 930 32 view .LVU355
 1626 0002 4668     		ldr	r6, [r0, #4]
 1627              	.LVL100:
 931:Middlewares/Third_Party/FreeRTOS/Source/CMSIS_RTOS/cmsis_os.c ****   uint32_t i;
 1628              		.loc 1 931 3 is_stmt 1 view .LVU356
 932:Middlewares/Third_Party/FreeRTOS/Source/CMSIS_RTOS/cmsis_os.c ****   
 933:Middlewares/Third_Party/FreeRTOS/Source/CMSIS_RTOS/cmsis_os.c ****   /* First have to allocate memory for the pool control block. */
 934:Middlewares/Third_Party/FreeRTOS/Source/CMSIS_RTOS/cmsis_os.c ****  thePool = pvPortMalloc(sizeof(os_pool_cb_t));
 1629              		.loc 1 934 2 view .LVU357
 927:Middlewares/Third_Party/FreeRTOS/Source/CMSIS_RTOS/cmsis_os.c **** #if (configSUPPORT_DYNAMIC_ALLOCATION == 1)
 1630              		.loc 1 927 1 is_stmt 0 view .LVU358
 1631 0004 0500     		movs	r5, r0
 1632              		.loc 1 934 12 view .LVU359
 1633 0006 1420     		movs	r0, #20
 1634              	.LVL101:
 1635              		.loc 1 934 12 view .LVU360
 1636 0008 FFF7FEFF 		bl	pvPortMalloc
 1637              	.LVL102:
 1638 000c 041E     		subs	r4, r0, #0
 1639              	.LVL103:
 935:Middlewares/Third_Party/FreeRTOS/Source/CMSIS_RTOS/cmsis_os.c **** 
 936:Middlewares/Third_Party/FreeRTOS/Source/CMSIS_RTOS/cmsis_os.c ****   
 937:Middlewares/Third_Party/FreeRTOS/Source/CMSIS_RTOS/cmsis_os.c ****   if (thePool) {
 1640              		.loc 1 937 3 is_stmt 1 view .LVU361
 1641              		.loc 1 937 6 is_stmt 0 view .LVU362
 1642 000e 1ED0     		beq	.L112
ARM GAS  /tmp/ccSFdtfu.s 			page 50


 938:Middlewares/Third_Party/FreeRTOS/Source/CMSIS_RTOS/cmsis_os.c ****     thePool->pool_sz = pool_def->pool_sz;
 1643              		.loc 1 938 5 is_stmt 1 view .LVU363
 930:Middlewares/Third_Party/FreeRTOS/Source/CMSIS_RTOS/cmsis_os.c ****   uint32_t i;
 1644              		.loc 1 930 7 is_stmt 0 view .LVU364
 1645 0010 0323     		movs	r3, #3
 930:Middlewares/Third_Party/FreeRTOS/Source/CMSIS_RTOS/cmsis_os.c ****   uint32_t i;
 1646              		.loc 1 930 42 view .LVU365
 1647 0012 0336     		adds	r6, r6, #3
 1648              	.LVL104:
 930:Middlewares/Third_Party/FreeRTOS/Source/CMSIS_RTOS/cmsis_os.c ****   uint32_t i;
 1649              		.loc 1 930 7 view .LVU366
 1650 0014 9E43     		bics	r6, r3
 1651              	.LVL105:
 939:Middlewares/Third_Party/FreeRTOS/Source/CMSIS_RTOS/cmsis_os.c ****     thePool->item_sz = itemSize;
 940:Middlewares/Third_Party/FreeRTOS/Source/CMSIS_RTOS/cmsis_os.c ****     thePool->currentIndex = 0;
 1652              		.loc 1 940 27 view .LVU367
 1653 0016 0023     		movs	r3, #0
 938:Middlewares/Third_Party/FreeRTOS/Source/CMSIS_RTOS/cmsis_os.c ****     thePool->item_sz = itemSize;
 1654              		.loc 1 938 32 view .LVU368
 1655 0018 2868     		ldr	r0, [r5]
 1656              	.LVL106:
 939:Middlewares/Third_Party/FreeRTOS/Source/CMSIS_RTOS/cmsis_os.c ****     thePool->item_sz = itemSize;
 1657              		.loc 1 939 22 view .LVU369
 1658 001a E660     		str	r6, [r4, #12]
 938:Middlewares/Third_Party/FreeRTOS/Source/CMSIS_RTOS/cmsis_os.c ****     thePool->item_sz = itemSize;
 1659              		.loc 1 938 22 view .LVU370
 1660 001c A060     		str	r0, [r4, #8]
 939:Middlewares/Third_Party/FreeRTOS/Source/CMSIS_RTOS/cmsis_os.c ****     thePool->item_sz = itemSize;
 1661              		.loc 1 939 5 is_stmt 1 view .LVU371
 1662              		.loc 1 940 5 view .LVU372
 1663              		.loc 1 940 27 is_stmt 0 view .LVU373
 1664 001e 2361     		str	r3, [r4, #16]
 941:Middlewares/Third_Party/FreeRTOS/Source/CMSIS_RTOS/cmsis_os.c ****     
 942:Middlewares/Third_Party/FreeRTOS/Source/CMSIS_RTOS/cmsis_os.c ****     /* Memory for markers */
 943:Middlewares/Third_Party/FreeRTOS/Source/CMSIS_RTOS/cmsis_os.c ****     thePool->markers = pvPortMalloc(pool_def->pool_sz);
 1665              		.loc 1 943 5 is_stmt 1 view .LVU374
 1666              		.loc 1 943 24 is_stmt 0 view .LVU375
 1667 0020 FFF7FEFF 		bl	pvPortMalloc
 1668              	.LVL107:
 1669              		.loc 1 943 22 view .LVU376
 1670 0024 6060     		str	r0, [r4, #4]
 944:Middlewares/Third_Party/FreeRTOS/Source/CMSIS_RTOS/cmsis_os.c ****    
 945:Middlewares/Third_Party/FreeRTOS/Source/CMSIS_RTOS/cmsis_os.c ****     if (thePool->markers) {
 1671              		.loc 1 945 5 is_stmt 1 view .LVU377
 1672              		.loc 1 945 8 is_stmt 0 view .LVU378
 1673 0026 0028     		cmp	r0, #0
 1674 0028 13D0     		beq	.L114
 946:Middlewares/Third_Party/FreeRTOS/Source/CMSIS_RTOS/cmsis_os.c ****       /* Now allocate the pool itself. */
 947:Middlewares/Third_Party/FreeRTOS/Source/CMSIS_RTOS/cmsis_os.c ****      thePool->pool = pvPortMalloc(pool_def->pool_sz * itemSize);
 1675              		.loc 1 947 6 is_stmt 1 view .LVU379
 1676              		.loc 1 947 53 is_stmt 0 view .LVU380
 1677 002a 2868     		ldr	r0, [r5]
 1678 002c 7043     		muls	r0, r6
 1679              		.loc 1 947 22 view .LVU381
 1680 002e FFF7FEFF 		bl	pvPortMalloc
 1681              	.LVL108:
 1682              		.loc 1 947 20 view .LVU382
ARM GAS  /tmp/ccSFdtfu.s 			page 51


 1683 0032 2060     		str	r0, [r4]
 948:Middlewares/Third_Party/FreeRTOS/Source/CMSIS_RTOS/cmsis_os.c ****       
 949:Middlewares/Third_Party/FreeRTOS/Source/CMSIS_RTOS/cmsis_os.c ****       if (thePool->pool) {
 1684              		.loc 1 949 7 is_stmt 1 view .LVU383
 1685              		.loc 1 949 10 is_stmt 0 view .LVU384
 1686 0034 0028     		cmp	r0, #0
 1687 0036 11D0     		beq	.L115
 1688              	.LVL109:
 950:Middlewares/Third_Party/FreeRTOS/Source/CMSIS_RTOS/cmsis_os.c ****         for (i = 0; i < pool_def->pool_sz; i++) {
 1689              		.loc 1 950 9 view .LVU385
 1690 0038 2B68     		ldr	r3, [r5]
 1691 003a 002B     		cmp	r3, #0
 1692 003c 07D0     		beq	.L112
 1693              		.loc 1 950 16 view .LVU386
 1694 003e 0023     		movs	r3, #0
 951:Middlewares/Third_Party/FreeRTOS/Source/CMSIS_RTOS/cmsis_os.c ****           thePool->markers[i] = 0;
 1695              		.loc 1 951 31 view .LVU387
 1696 0040 0022     		movs	r2, #0
 1697              	.LVL110:
 1698              	.L116:
 1699              		.loc 1 951 11 is_stmt 1 discriminator 3 view .LVU388
 1700              		.loc 1 951 31 is_stmt 0 discriminator 3 view .LVU389
 1701 0042 6168     		ldr	r1, [r4, #4]
 1702 0044 CA54     		strb	r2, [r1, r3]
 950:Middlewares/Third_Party/FreeRTOS/Source/CMSIS_RTOS/cmsis_os.c ****         for (i = 0; i < pool_def->pool_sz; i++) {
 1703              		.loc 1 950 9 discriminator 3 view .LVU390
 1704 0046 2968     		ldr	r1, [r5]
 950:Middlewares/Third_Party/FreeRTOS/Source/CMSIS_RTOS/cmsis_os.c ****         for (i = 0; i < pool_def->pool_sz; i++) {
 1705              		.loc 1 950 45 discriminator 3 view .LVU391
 1706 0048 0133     		adds	r3, r3, #1
 1707              	.LVL111:
 950:Middlewares/Third_Party/FreeRTOS/Source/CMSIS_RTOS/cmsis_os.c ****         for (i = 0; i < pool_def->pool_sz; i++) {
 1708              		.loc 1 950 9 discriminator 3 view .LVU392
 1709 004a 9942     		cmp	r1, r3
 1710 004c F9D8     		bhi	.L116
 1711              	.LVL112:
 1712              	.L112:
 952:Middlewares/Third_Party/FreeRTOS/Source/CMSIS_RTOS/cmsis_os.c ****         }
 953:Middlewares/Third_Party/FreeRTOS/Source/CMSIS_RTOS/cmsis_os.c ****       }
 954:Middlewares/Third_Party/FreeRTOS/Source/CMSIS_RTOS/cmsis_os.c ****       else {
 955:Middlewares/Third_Party/FreeRTOS/Source/CMSIS_RTOS/cmsis_os.c ****         vPortFree(thePool->markers);
 956:Middlewares/Third_Party/FreeRTOS/Source/CMSIS_RTOS/cmsis_os.c ****         vPortFree(thePool);
 957:Middlewares/Third_Party/FreeRTOS/Source/CMSIS_RTOS/cmsis_os.c ****         thePool = NULL;
 958:Middlewares/Third_Party/FreeRTOS/Source/CMSIS_RTOS/cmsis_os.c ****       }
 959:Middlewares/Third_Party/FreeRTOS/Source/CMSIS_RTOS/cmsis_os.c ****     }
 960:Middlewares/Third_Party/FreeRTOS/Source/CMSIS_RTOS/cmsis_os.c ****     else {
 961:Middlewares/Third_Party/FreeRTOS/Source/CMSIS_RTOS/cmsis_os.c ****       vPortFree(thePool);
 962:Middlewares/Third_Party/FreeRTOS/Source/CMSIS_RTOS/cmsis_os.c ****       thePool = NULL;
 963:Middlewares/Third_Party/FreeRTOS/Source/CMSIS_RTOS/cmsis_os.c ****     }
 964:Middlewares/Third_Party/FreeRTOS/Source/CMSIS_RTOS/cmsis_os.c ****   }
 965:Middlewares/Third_Party/FreeRTOS/Source/CMSIS_RTOS/cmsis_os.c **** 
 966:Middlewares/Third_Party/FreeRTOS/Source/CMSIS_RTOS/cmsis_os.c ****   return thePool;
 967:Middlewares/Third_Party/FreeRTOS/Source/CMSIS_RTOS/cmsis_os.c ****  
 968:Middlewares/Third_Party/FreeRTOS/Source/CMSIS_RTOS/cmsis_os.c **** #else
 969:Middlewares/Third_Party/FreeRTOS/Source/CMSIS_RTOS/cmsis_os.c ****   return NULL;
 970:Middlewares/Third_Party/FreeRTOS/Source/CMSIS_RTOS/cmsis_os.c **** #endif
 971:Middlewares/Third_Party/FreeRTOS/Source/CMSIS_RTOS/cmsis_os.c **** }
ARM GAS  /tmp/ccSFdtfu.s 			page 52


 1713              		.loc 1 971 1 view .LVU393
 1714 004e 2000     		movs	r0, r4
 1715              		@ sp needed
 1716              	.LVL113:
 1717              		.loc 1 971 1 view .LVU394
 1718 0050 70BD     		pop	{r4, r5, r6, pc}
 1719              	.LVL114:
 1720              	.L114:
 961:Middlewares/Third_Party/FreeRTOS/Source/CMSIS_RTOS/cmsis_os.c ****       thePool = NULL;
 1721              		.loc 1 961 7 is_stmt 1 view .LVU395
 1722 0052 2000     		movs	r0, r4
 1723 0054 FFF7FEFF 		bl	vPortFree
 1724              	.LVL115:
 962:Middlewares/Third_Party/FreeRTOS/Source/CMSIS_RTOS/cmsis_os.c ****     }
 1725              		.loc 1 962 7 view .LVU396
 962:Middlewares/Third_Party/FreeRTOS/Source/CMSIS_RTOS/cmsis_os.c ****     }
 1726              		.loc 1 962 15 is_stmt 0 view .LVU397
 1727 0058 0024     		movs	r4, #0
 966:Middlewares/Third_Party/FreeRTOS/Source/CMSIS_RTOS/cmsis_os.c ****  
 1728              		.loc 1 966 3 is_stmt 1 view .LVU398
 966:Middlewares/Third_Party/FreeRTOS/Source/CMSIS_RTOS/cmsis_os.c ****  
 1729              		.loc 1 966 10 is_stmt 0 view .LVU399
 1730 005a F8E7     		b	.L112
 1731              	.LVL116:
 1732              	.L115:
 955:Middlewares/Third_Party/FreeRTOS/Source/CMSIS_RTOS/cmsis_os.c ****         vPortFree(thePool);
 1733              		.loc 1 955 9 is_stmt 1 view .LVU400
 1734 005c 6068     		ldr	r0, [r4, #4]
 1735 005e FFF7FEFF 		bl	vPortFree
 1736              	.LVL117:
 956:Middlewares/Third_Party/FreeRTOS/Source/CMSIS_RTOS/cmsis_os.c ****         thePool = NULL;
 1737              		.loc 1 956 9 view .LVU401
 1738 0062 2000     		movs	r0, r4
 1739 0064 FFF7FEFF 		bl	vPortFree
 1740              	.LVL118:
 957:Middlewares/Third_Party/FreeRTOS/Source/CMSIS_RTOS/cmsis_os.c ****       }
 1741              		.loc 1 957 9 view .LVU402
 957:Middlewares/Third_Party/FreeRTOS/Source/CMSIS_RTOS/cmsis_os.c ****       }
 1742              		.loc 1 957 17 is_stmt 0 view .LVU403
 1743 0068 0024     		movs	r4, #0
 1744 006a F0E7     		b	.L112
 1745              		.cfi_endproc
 1746              	.LFE64:
 1748              		.section	.text.osPoolAlloc,"ax",%progbits
 1749              		.align	1
 1750              		.p2align 2,,3
 1751              		.global	osPoolAlloc
 1752              		.syntax unified
 1753              		.code	16
 1754              		.thumb_func
 1755              		.fpu softvfp
 1757              	osPoolAlloc:
 1758              	.LVL119:
 1759              	.LFB65:
 972:Middlewares/Third_Party/FreeRTOS/Source/CMSIS_RTOS/cmsis_os.c **** 
 973:Middlewares/Third_Party/FreeRTOS/Source/CMSIS_RTOS/cmsis_os.c **** /**
 974:Middlewares/Third_Party/FreeRTOS/Source/CMSIS_RTOS/cmsis_os.c **** * @brief Allocate a memory block from a memory pool
ARM GAS  /tmp/ccSFdtfu.s 			page 53


 975:Middlewares/Third_Party/FreeRTOS/Source/CMSIS_RTOS/cmsis_os.c **** * @param pool_id       memory pool ID obtain referenced with \ref osPoolCreate.
 976:Middlewares/Third_Party/FreeRTOS/Source/CMSIS_RTOS/cmsis_os.c **** * @retval  address of the allocated memory block or NULL in case of no memory available.
 977:Middlewares/Third_Party/FreeRTOS/Source/CMSIS_RTOS/cmsis_os.c **** * @note   MUST REMAIN UNCHANGED: \b osPoolAlloc shall be consistent in every CMSIS-RTOS.
 978:Middlewares/Third_Party/FreeRTOS/Source/CMSIS_RTOS/cmsis_os.c **** */
 979:Middlewares/Third_Party/FreeRTOS/Source/CMSIS_RTOS/cmsis_os.c **** void *osPoolAlloc (osPoolId pool_id)
 980:Middlewares/Third_Party/FreeRTOS/Source/CMSIS_RTOS/cmsis_os.c **** {
 1760              		.loc 1 980 1 is_stmt 1 view -0
 1761              		.cfi_startproc
 1762              		@ args = 0, pretend = 0, frame = 0
 1763              		@ frame_needed = 0, uses_anonymous_args = 0
 981:Middlewares/Third_Party/FreeRTOS/Source/CMSIS_RTOS/cmsis_os.c ****   int dummy = 0;
 1764              		.loc 1 981 3 view .LVU405
 982:Middlewares/Third_Party/FreeRTOS/Source/CMSIS_RTOS/cmsis_os.c ****   void *p = NULL;
 1765              		.loc 1 982 3 view .LVU406
 983:Middlewares/Third_Party/FreeRTOS/Source/CMSIS_RTOS/cmsis_os.c ****   uint32_t i;
 1766              		.loc 1 983 3 view .LVU407
 984:Middlewares/Third_Party/FreeRTOS/Source/CMSIS_RTOS/cmsis_os.c ****   uint32_t index;
 1767              		.loc 1 984 3 view .LVU408
 985:Middlewares/Third_Party/FreeRTOS/Source/CMSIS_RTOS/cmsis_os.c ****   
 986:Middlewares/Third_Party/FreeRTOS/Source/CMSIS_RTOS/cmsis_os.c ****   if (inHandlerMode()) {
 1768              		.loc 1 986 3 view .LVU409
 1769              	.LBB167:
 1770              	.LBI167:
 173:Middlewares/Third_Party/FreeRTOS/Source/CMSIS_RTOS/cmsis_os.c **** {
 1771              		.loc 1 173 12 view .LVU410
 1772              	.LBE167:
 175:Middlewares/Third_Party/FreeRTOS/Source/CMSIS_RTOS/cmsis_os.c **** }
 1773              		.loc 1 175 3 view .LVU411
 1774              	.LBB172:
 1775              	.LBB168:
 1776              	.LBI168:
 105:Drivers/CMSIS/Include/cmsis_gcc.h **** {
 1777              		.loc 2 105 61 view .LVU412
 1778              	.LBB169:
 107:Drivers/CMSIS/Include/cmsis_gcc.h **** 
 1779              		.loc 2 107 3 view .LVU413
 109:Drivers/CMSIS/Include/cmsis_gcc.h ****   return(result);
 1780              		.loc 2 109 3 view .LVU414
 1781              	.LBE169:
 1782              	.LBE168:
 1783              	.LBE172:
 980:Middlewares/Third_Party/FreeRTOS/Source/CMSIS_RTOS/cmsis_os.c ****   int dummy = 0;
 1784              		.loc 1 980 1 is_stmt 0 view .LVU415
 1785 0000 F0B5     		push	{r4, r5, r6, r7, lr}
 1786              	.LCFI28:
 1787              		.cfi_def_cfa_offset 20
 1788              		.cfi_offset 4, -20
 1789              		.cfi_offset 5, -16
 1790              		.cfi_offset 6, -12
 1791              		.cfi_offset 7, -8
 1792              		.cfi_offset 14, -4
 1793 0002 C646     		mov	lr, r8
 1794 0004 0600     		movs	r6, r0
 1795 0006 00B5     		push	{lr}
 1796              	.LCFI29:
 1797              		.cfi_def_cfa_offset 24
 1798              		.cfi_offset 8, -24
ARM GAS  /tmp/ccSFdtfu.s 			page 54


 1799              	.LBB173:
 1800              	.LBB171:
 1801              	.LBB170:
 109:Drivers/CMSIS/Include/cmsis_gcc.h ****   return(result);
 1802              		.loc 2 109 3 view .LVU416
 1803              		.syntax divided
 1804              	@ 109 "Drivers/CMSIS/Include/cmsis_gcc.h" 1
 1805 0008 EFF30588 		MRS r8, ipsr
 1806              	@ 0 "" 2
 1807              	.LVL120:
 1808              		.loc 2 110 3 is_stmt 1 view .LVU417
 1809              		.loc 2 110 3 is_stmt 0 view .LVU418
 1810              		.thumb
 1811              		.syntax unified
 1812              	.LBE170:
 1813              	.LBE171:
 1814              	.LBE173:
 1815              		.loc 1 986 6 view .LVU419
 1816 000c 4346     		mov	r3, r8
 1817 000e 002B     		cmp	r3, #0
 1818 0010 33D0     		beq	.L125
 987:Middlewares/Third_Party/FreeRTOS/Source/CMSIS_RTOS/cmsis_os.c ****     dummy = portSET_INTERRUPT_MASK_FROM_ISR();
 1819              		.loc 1 987 5 is_stmt 1 view .LVU420
 1820              		.loc 1 987 13 is_stmt 0 view .LVU421
 1821 0012 FFF7FEFF 		bl	ulSetInterruptMaskFromISR
 1822              	.LVL121:
 1823              		.loc 1 987 13 view .LVU422
 1824 0016 8046     		mov	r8, r0
 1825              	.LVL122:
 1826              	.L126:
 988:Middlewares/Third_Party/FreeRTOS/Source/CMSIS_RTOS/cmsis_os.c ****   }
 989:Middlewares/Third_Party/FreeRTOS/Source/CMSIS_RTOS/cmsis_os.c ****   else {
 990:Middlewares/Third_Party/FreeRTOS/Source/CMSIS_RTOS/cmsis_os.c ****     vPortEnterCritical();
 991:Middlewares/Third_Party/FreeRTOS/Source/CMSIS_RTOS/cmsis_os.c ****   }
 992:Middlewares/Third_Party/FreeRTOS/Source/CMSIS_RTOS/cmsis_os.c ****   
 993:Middlewares/Third_Party/FreeRTOS/Source/CMSIS_RTOS/cmsis_os.c ****   for (i = 0; i < pool_id->pool_sz; i++) {
 1827              		.loc 1 993 3 is_stmt 1 view .LVU423
 1828              		.loc 1 993 26 is_stmt 0 view .LVU424
 1829 0018 B068     		ldr	r0, [r6, #8]
 1830              		.loc 1 993 3 view .LVU425
 1831 001a 0028     		cmp	r0, #0
 1832 001c 21D0     		beq	.L133
 994:Middlewares/Third_Party/FreeRTOS/Source/CMSIS_RTOS/cmsis_os.c ****     index = pool_id->currentIndex + i;
 1833              		.loc 1 994 20 view .LVU426
 1834 001e 3369     		ldr	r3, [r6, #16]
 995:Middlewares/Third_Party/FreeRTOS/Source/CMSIS_RTOS/cmsis_os.c ****     if (index >= pool_id->pool_sz) {
 996:Middlewares/Third_Party/FreeRTOS/Source/CMSIS_RTOS/cmsis_os.c ****       index = 0;
 997:Middlewares/Third_Party/FreeRTOS/Source/CMSIS_RTOS/cmsis_os.c ****     }
 998:Middlewares/Third_Party/FreeRTOS/Source/CMSIS_RTOS/cmsis_os.c ****     
 999:Middlewares/Third_Party/FreeRTOS/Source/CMSIS_RTOS/cmsis_os.c ****     if (pool_id->markers[index] == 0) {
 1835              		.loc 1 999 16 view .LVU427
 1836 0020 7568     		ldr	r5, [r6, #4]
 1837 0022 C718     		adds	r7, r0, r3
 1838 0024 07E0     		b	.L130
 1839              	.LVL123:
 1840              	.L137:
 1841              		.loc 1 999 16 view .LVU428
ARM GAS  /tmp/ccSFdtfu.s 			page 55


 1842 0026 EA18     		adds	r2, r5, r3
 1843              		.loc 1 999 8 view .LVU429
 1844 0028 1178     		ldrb	r1, [r2]
 995:Middlewares/Third_Party/FreeRTOS/Source/CMSIS_RTOS/cmsis_os.c ****     if (index >= pool_id->pool_sz) {
 1845              		.loc 1 995 8 view .LVU430
 1846 002a 1C00     		movs	r4, r3
 1847              	.LVL124:
 1848              		.loc 1 999 5 is_stmt 1 view .LVU431
 1849              		.loc 1 999 8 is_stmt 0 view .LVU432
 1850 002c 0029     		cmp	r1, #0
 1851 002e 09D0     		beq	.L136
 1852              	.L129:
 1853              	.LVL125:
 1854              		.loc 1 999 8 view .LVU433
 1855 0030 0133     		adds	r3, r3, #1
 993:Middlewares/Third_Party/FreeRTOS/Source/CMSIS_RTOS/cmsis_os.c ****     index = pool_id->currentIndex + i;
 1856              		.loc 1 993 3 discriminator 2 view .LVU434
 1857 0032 BB42     		cmp	r3, r7
 1858 0034 15D0     		beq	.L133
 1859              	.LVL126:
 1860              	.L130:
 994:Middlewares/Third_Party/FreeRTOS/Source/CMSIS_RTOS/cmsis_os.c ****     index = pool_id->currentIndex + i;
 1861              		.loc 1 994 5 is_stmt 1 view .LVU435
 995:Middlewares/Third_Party/FreeRTOS/Source/CMSIS_RTOS/cmsis_os.c ****     if (index >= pool_id->pool_sz) {
 1862              		.loc 1 995 5 view .LVU436
 995:Middlewares/Third_Party/FreeRTOS/Source/CMSIS_RTOS/cmsis_os.c ****     if (index >= pool_id->pool_sz) {
 1863              		.loc 1 995 8 is_stmt 0 view .LVU437
 1864 0036 9842     		cmp	r0, r3
 1865 0038 F5D8     		bhi	.L137
 1866 003a 2A00     		movs	r2, r5
 1867              		.loc 1 999 8 view .LVU438
 1868 003c 1178     		ldrb	r1, [r2]
 996:Middlewares/Third_Party/FreeRTOS/Source/CMSIS_RTOS/cmsis_os.c ****     }
 1869              		.loc 1 996 13 view .LVU439
 1870 003e 0024     		movs	r4, #0
 1871              	.LVL127:
 1872              		.loc 1 999 5 is_stmt 1 view .LVU440
 1873              		.loc 1 999 8 is_stmt 0 view .LVU441
 1874 0040 0029     		cmp	r1, #0
 1875 0042 F5D1     		bne	.L129
 1876              	.L136:
1000:Middlewares/Third_Party/FreeRTOS/Source/CMSIS_RTOS/cmsis_os.c ****       pool_id->markers[index] = 1;
 1877              		.loc 1 1000 7 is_stmt 1 view .LVU442
 1878              		.loc 1 1000 31 is_stmt 0 view .LVU443
 1879 0044 0123     		movs	r3, #1
 1880 0046 1370     		strb	r3, [r2]
1001:Middlewares/Third_Party/FreeRTOS/Source/CMSIS_RTOS/cmsis_os.c ****       p = (void *)((uint32_t)(pool_id->pool) + (index * pool_id->item_sz));
 1881              		.loc 1 1001 7 is_stmt 1 view .LVU444
 1882              		.loc 1 1001 46 is_stmt 0 view .LVU445
 1883 0048 3368     		ldr	r3, [r6]
 1884              		.loc 1 1001 55 view .LVU446
 1885 004a F568     		ldr	r5, [r6, #12]
 1886              		.loc 1 1001 46 view .LVU447
 1887 004c 9C46     		mov	ip, r3
 1888              		.loc 1 1001 55 view .LVU448
 1889 004e 6543     		muls	r5, r4
1002:Middlewares/Third_Party/FreeRTOS/Source/CMSIS_RTOS/cmsis_os.c ****       pool_id->currentIndex = index;
ARM GAS  /tmp/ccSFdtfu.s 			page 56


 1890              		.loc 1 1002 29 view .LVU449
 1891 0050 3461     		str	r4, [r6, #16]
1001:Middlewares/Third_Party/FreeRTOS/Source/CMSIS_RTOS/cmsis_os.c ****       p = (void *)((uint32_t)(pool_id->pool) + (index * pool_id->item_sz));
 1892              		.loc 1 1001 46 view .LVU450
 1893 0052 6544     		add	r5, r5, ip
 1894              	.LVL128:
 1895              		.loc 1 1002 7 is_stmt 1 view .LVU451
1003:Middlewares/Third_Party/FreeRTOS/Source/CMSIS_RTOS/cmsis_os.c ****       break;
 1896              		.loc 1 1003 7 view .LVU452
1004:Middlewares/Third_Party/FreeRTOS/Source/CMSIS_RTOS/cmsis_os.c ****     }
1005:Middlewares/Third_Party/FreeRTOS/Source/CMSIS_RTOS/cmsis_os.c ****   }
1006:Middlewares/Third_Party/FreeRTOS/Source/CMSIS_RTOS/cmsis_os.c ****   
1007:Middlewares/Third_Party/FreeRTOS/Source/CMSIS_RTOS/cmsis_os.c ****   if (inHandlerMode()) {
 1897              		.loc 1 1007 3 view .LVU453
 1898              	.LBB174:
 1899              	.LBI174:
 173:Middlewares/Third_Party/FreeRTOS/Source/CMSIS_RTOS/cmsis_os.c **** {
 1900              		.loc 1 173 12 view .LVU454
 1901              	.LBE174:
 175:Middlewares/Third_Party/FreeRTOS/Source/CMSIS_RTOS/cmsis_os.c **** }
 1902              		.loc 1 175 3 view .LVU455
 1903              	.LBB179:
 1904              	.LBB175:
 1905              	.LBI175:
 105:Drivers/CMSIS/Include/cmsis_gcc.h **** {
 1906              		.loc 2 105 61 view .LVU456
 1907              	.LBB176:
 107:Drivers/CMSIS/Include/cmsis_gcc.h **** 
 1908              		.loc 2 107 3 view .LVU457
 109:Drivers/CMSIS/Include/cmsis_gcc.h ****   return(result);
 1909              		.loc 2 109 3 view .LVU458
 1910              		.syntax divided
 1911              	@ 109 "Drivers/CMSIS/Include/cmsis_gcc.h" 1
 1912 0054 EFF30583 		MRS r3, ipsr
 1913              	@ 0 "" 2
 1914              	.LVL129:
 1915              		.loc 2 110 3 view .LVU459
 1916              		.loc 2 110 3 is_stmt 0 view .LVU460
 1917              		.thumb
 1918              		.syntax unified
 1919              	.LBE176:
 1920              	.LBE175:
 1921              	.LBE179:
 1922              		.loc 1 1007 6 view .LVU461
 1923 0058 002B     		cmp	r3, #0
 1924 005a 07D1     		bne	.L138
 1925              	.LVL130:
 1926              	.L131:
1008:Middlewares/Third_Party/FreeRTOS/Source/CMSIS_RTOS/cmsis_os.c ****     portCLEAR_INTERRUPT_MASK_FROM_ISR(dummy);
1009:Middlewares/Third_Party/FreeRTOS/Source/CMSIS_RTOS/cmsis_os.c ****   }
1010:Middlewares/Third_Party/FreeRTOS/Source/CMSIS_RTOS/cmsis_os.c ****   else {
1011:Middlewares/Third_Party/FreeRTOS/Source/CMSIS_RTOS/cmsis_os.c ****     vPortExitCritical();
 1927              		.loc 1 1011 5 is_stmt 1 view .LVU462
 1928 005c FFF7FEFF 		bl	vPortExitCritical
 1929              	.LVL131:
1012:Middlewares/Third_Party/FreeRTOS/Source/CMSIS_RTOS/cmsis_os.c ****   }
1013:Middlewares/Third_Party/FreeRTOS/Source/CMSIS_RTOS/cmsis_os.c ****   
ARM GAS  /tmp/ccSFdtfu.s 			page 57


1014:Middlewares/Third_Party/FreeRTOS/Source/CMSIS_RTOS/cmsis_os.c ****   return p;
 1930              		.loc 1 1014 3 view .LVU463
 1931              		.loc 1 1014 10 is_stmt 0 view .LVU464
 1932 0060 07E0     		b	.L124
 1933              	.LVL132:
 1934              	.L133:
 982:Middlewares/Third_Party/FreeRTOS/Source/CMSIS_RTOS/cmsis_os.c ****   uint32_t i;
 1935              		.loc 1 982 9 view .LVU465
 1936 0062 0025     		movs	r5, #0
 1937              	.LVL133:
1007:Middlewares/Third_Party/FreeRTOS/Source/CMSIS_RTOS/cmsis_os.c ****     portCLEAR_INTERRUPT_MASK_FROM_ISR(dummy);
 1938              		.loc 1 1007 3 is_stmt 1 view .LVU466
 1939              	.LBB180:
 173:Middlewares/Third_Party/FreeRTOS/Source/CMSIS_RTOS/cmsis_os.c **** {
 1940              		.loc 1 173 12 view .LVU467
 1941              	.LBE180:
 175:Middlewares/Third_Party/FreeRTOS/Source/CMSIS_RTOS/cmsis_os.c **** }
 1942              		.loc 1 175 3 view .LVU468
 1943              	.LBB181:
 1944              	.LBB178:
 105:Drivers/CMSIS/Include/cmsis_gcc.h **** {
 1945              		.loc 2 105 61 view .LVU469
 1946              	.LBB177:
 107:Drivers/CMSIS/Include/cmsis_gcc.h **** 
 1947              		.loc 2 107 3 view .LVU470
 109:Drivers/CMSIS/Include/cmsis_gcc.h ****   return(result);
 1948              		.loc 2 109 3 view .LVU471
 1949              		.syntax divided
 1950              	@ 109 "Drivers/CMSIS/Include/cmsis_gcc.h" 1
 1951 0064 EFF30583 		MRS r3, ipsr
 1952              	@ 0 "" 2
 1953              	.LVL134:
 1954              		.loc 2 110 3 view .LVU472
 1955              		.loc 2 110 3 is_stmt 0 view .LVU473
 1956              		.thumb
 1957              		.syntax unified
 1958              	.LBE177:
 1959              	.LBE178:
 1960              	.LBE181:
1007:Middlewares/Third_Party/FreeRTOS/Source/CMSIS_RTOS/cmsis_os.c ****     portCLEAR_INTERRUPT_MASK_FROM_ISR(dummy);
 1961              		.loc 1 1007 6 view .LVU474
 1962 0068 002B     		cmp	r3, #0
 1963 006a F7D0     		beq	.L131
 1964              	.L138:
1008:Middlewares/Third_Party/FreeRTOS/Source/CMSIS_RTOS/cmsis_os.c ****   }
 1965              		.loc 1 1008 5 is_stmt 1 view .LVU475
 1966 006c 4046     		mov	r0, r8
 1967 006e FFF7FEFF 		bl	vClearInterruptMaskFromISR
 1968              	.LVL135:
 1969              	.L124:
1015:Middlewares/Third_Party/FreeRTOS/Source/CMSIS_RTOS/cmsis_os.c **** }
 1970              		.loc 1 1015 1 is_stmt 0 view .LVU476
 1971 0072 2800     		movs	r0, r5
 1972              		@ sp needed
 1973              	.LVL136:
 1974              	.LVL137:
 1975              		.loc 1 1015 1 view .LVU477
ARM GAS  /tmp/ccSFdtfu.s 			page 58


 1976 0074 04BC     		pop	{r2}
 1977 0076 9046     		mov	r8, r2
 1978 0078 F0BD     		pop	{r4, r5, r6, r7, pc}
 1979              	.LVL138:
 1980              	.L125:
 990:Middlewares/Third_Party/FreeRTOS/Source/CMSIS_RTOS/cmsis_os.c ****   }
 1981              		.loc 1 990 5 is_stmt 1 view .LVU478
 1982 007a FFF7FEFF 		bl	vPortEnterCritical
 1983              	.LVL139:
 990:Middlewares/Third_Party/FreeRTOS/Source/CMSIS_RTOS/cmsis_os.c ****   }
 1984              		.loc 1 990 5 is_stmt 0 view .LVU479
 1985 007e CBE7     		b	.L126
 1986              		.cfi_endproc
 1987              	.LFE65:
 1989              		.section	.text.osPoolCAlloc,"ax",%progbits
 1990              		.align	1
 1991              		.p2align 2,,3
 1992              		.global	osPoolCAlloc
 1993              		.syntax unified
 1994              		.code	16
 1995              		.thumb_func
 1996              		.fpu softvfp
 1998              	osPoolCAlloc:
 1999              	.LVL140:
 2000              	.LFB66:
1016:Middlewares/Third_Party/FreeRTOS/Source/CMSIS_RTOS/cmsis_os.c **** 
1017:Middlewares/Third_Party/FreeRTOS/Source/CMSIS_RTOS/cmsis_os.c **** /**
1018:Middlewares/Third_Party/FreeRTOS/Source/CMSIS_RTOS/cmsis_os.c **** * @brief Allocate a memory block from a memory pool and set memory block to zero
1019:Middlewares/Third_Party/FreeRTOS/Source/CMSIS_RTOS/cmsis_os.c **** * @param  pool_id       memory pool ID obtain referenced with \ref osPoolCreate.
1020:Middlewares/Third_Party/FreeRTOS/Source/CMSIS_RTOS/cmsis_os.c **** * @retval  address of the allocated memory block or NULL in case of no memory available.
1021:Middlewares/Third_Party/FreeRTOS/Source/CMSIS_RTOS/cmsis_os.c **** * @note   MUST REMAIN UNCHANGED: \b osPoolCAlloc shall be consistent in every CMSIS-RTOS.
1022:Middlewares/Third_Party/FreeRTOS/Source/CMSIS_RTOS/cmsis_os.c **** */
1023:Middlewares/Third_Party/FreeRTOS/Source/CMSIS_RTOS/cmsis_os.c **** void *osPoolCAlloc (osPoolId pool_id)
1024:Middlewares/Third_Party/FreeRTOS/Source/CMSIS_RTOS/cmsis_os.c **** {
 2001              		.loc 1 1024 1 is_stmt 1 view -0
 2002              		.cfi_startproc
 2003              		@ args = 0, pretend = 0, frame = 0
 2004              		@ frame_needed = 0, uses_anonymous_args = 0
1025:Middlewares/Third_Party/FreeRTOS/Source/CMSIS_RTOS/cmsis_os.c ****   void *p = osPoolAlloc(pool_id);
 2005              		.loc 1 1025 3 view .LVU481
1024:Middlewares/Third_Party/FreeRTOS/Source/CMSIS_RTOS/cmsis_os.c ****   void *p = osPoolAlloc(pool_id);
 2006              		.loc 1 1024 1 is_stmt 0 view .LVU482
 2007 0000 F8B5     		push	{r3, r4, r5, r6, r7, lr}
 2008              	.LCFI30:
 2009              		.cfi_def_cfa_offset 24
 2010              		.cfi_offset 3, -24
 2011              		.cfi_offset 4, -20
 2012              		.cfi_offset 5, -16
 2013              		.cfi_offset 6, -12
 2014              		.cfi_offset 7, -8
 2015              		.cfi_offset 14, -4
1024:Middlewares/Third_Party/FreeRTOS/Source/CMSIS_RTOS/cmsis_os.c ****   void *p = osPoolAlloc(pool_id);
 2016              		.loc 1 1024 1 view .LVU483
 2017 0002 0400     		movs	r4, r0
 2018              	.LVL141:
 2019              	.LBB190:
 2020              	.LBI190:
ARM GAS  /tmp/ccSFdtfu.s 			page 59


 979:Middlewares/Third_Party/FreeRTOS/Source/CMSIS_RTOS/cmsis_os.c **** {
 2021              		.loc 1 979 7 is_stmt 1 view .LVU484
 2022              	.LBB191:
 981:Middlewares/Third_Party/FreeRTOS/Source/CMSIS_RTOS/cmsis_os.c ****   void *p = NULL;
 2023              		.loc 1 981 3 view .LVU485
 982:Middlewares/Third_Party/FreeRTOS/Source/CMSIS_RTOS/cmsis_os.c ****   uint32_t i;
 2024              		.loc 1 982 3 view .LVU486
 983:Middlewares/Third_Party/FreeRTOS/Source/CMSIS_RTOS/cmsis_os.c ****   uint32_t index;
 2025              		.loc 1 983 3 view .LVU487
 984:Middlewares/Third_Party/FreeRTOS/Source/CMSIS_RTOS/cmsis_os.c ****   
 2026              		.loc 1 984 3 view .LVU488
 986:Middlewares/Third_Party/FreeRTOS/Source/CMSIS_RTOS/cmsis_os.c ****     dummy = portSET_INTERRUPT_MASK_FROM_ISR();
 2027              		.loc 1 986 3 view .LVU489
 2028              	.LBB192:
 2029              	.LBI192:
 173:Middlewares/Third_Party/FreeRTOS/Source/CMSIS_RTOS/cmsis_os.c **** {
 2030              		.loc 1 173 12 view .LVU490
 2031              	.LBE192:
 2032              	.LBE191:
 2033              	.LBE190:
 175:Middlewares/Third_Party/FreeRTOS/Source/CMSIS_RTOS/cmsis_os.c **** }
 2034              		.loc 1 175 3 view .LVU491
 2035              	.LBB208:
 2036              	.LBB204:
 2037              	.LBB195:
 2038              	.LBB193:
 2039              	.LBI193:
 105:Drivers/CMSIS/Include/cmsis_gcc.h **** {
 2040              		.loc 2 105 61 view .LVU492
 2041              	.LBB194:
 107:Drivers/CMSIS/Include/cmsis_gcc.h **** 
 2042              		.loc 2 107 3 view .LVU493
 109:Drivers/CMSIS/Include/cmsis_gcc.h ****   return(result);
 2043              		.loc 2 109 3 view .LVU494
 2044              		.syntax divided
 2045              	@ 109 "Drivers/CMSIS/Include/cmsis_gcc.h" 1
 2046 0004 EFF30586 		MRS r6, ipsr
 2047              	@ 0 "" 2
 2048              	.LVL142:
 2049              		.loc 2 110 3 view .LVU495
 2050              		.loc 2 110 3 is_stmt 0 view .LVU496
 2051              		.thumb
 2052              		.syntax unified
 2053              	.LBE194:
 2054              	.LBE193:
 2055              	.LBE195:
 986:Middlewares/Third_Party/FreeRTOS/Source/CMSIS_RTOS/cmsis_os.c ****     dummy = portSET_INTERRUPT_MASK_FROM_ISR();
 2056              		.loc 1 986 6 view .LVU497
 2057 0008 002E     		cmp	r6, #0
 2058 000a 39D0     		beq	.L140
 987:Middlewares/Third_Party/FreeRTOS/Source/CMSIS_RTOS/cmsis_os.c ****   }
 2059              		.loc 1 987 5 is_stmt 1 view .LVU498
 987:Middlewares/Third_Party/FreeRTOS/Source/CMSIS_RTOS/cmsis_os.c ****   }
 2060              		.loc 1 987 13 is_stmt 0 view .LVU499
 2061 000c FFF7FEFF 		bl	ulSetInterruptMaskFromISR
 2062              	.LVL143:
 987:Middlewares/Third_Party/FreeRTOS/Source/CMSIS_RTOS/cmsis_os.c ****   }
ARM GAS  /tmp/ccSFdtfu.s 			page 60


 2063              		.loc 1 987 13 view .LVU500
 2064 0010 0600     		movs	r6, r0
 2065              	.LVL144:
 2066              	.L141:
 993:Middlewares/Third_Party/FreeRTOS/Source/CMSIS_RTOS/cmsis_os.c ****     index = pool_id->currentIndex + i;
 2067              		.loc 1 993 3 is_stmt 1 view .LVU501
 993:Middlewares/Third_Party/FreeRTOS/Source/CMSIS_RTOS/cmsis_os.c ****     index = pool_id->currentIndex + i;
 2068              		.loc 1 993 26 is_stmt 0 view .LVU502
 2069 0012 A268     		ldr	r2, [r4, #8]
 993:Middlewares/Third_Party/FreeRTOS/Source/CMSIS_RTOS/cmsis_os.c ****     index = pool_id->currentIndex + i;
 2070              		.loc 1 993 3 view .LVU503
 2071 0014 002A     		cmp	r2, #0
 2072 0016 22D0     		beq	.L149
 994:Middlewares/Third_Party/FreeRTOS/Source/CMSIS_RTOS/cmsis_os.c ****     if (index >= pool_id->pool_sz) {
 2073              		.loc 1 994 20 view .LVU504
 2074 0018 2369     		ldr	r3, [r4, #16]
 999:Middlewares/Third_Party/FreeRTOS/Source/CMSIS_RTOS/cmsis_os.c ****       pool_id->markers[index] = 1;
 2075              		.loc 1 999 16 view .LVU505
 2076 001a 6568     		ldr	r5, [r4, #4]
 2077 001c 9918     		adds	r1, r3, r2
 2078 001e 8C46     		mov	ip, r1
 2079 0020 07E0     		b	.L145
 2080              	.LVL145:
 2081              	.L156:
 999:Middlewares/Third_Party/FreeRTOS/Source/CMSIS_RTOS/cmsis_os.c ****       pool_id->markers[index] = 1;
 2082              		.loc 1 999 16 view .LVU506
 2083 0022 E918     		adds	r1, r5, r3
 999:Middlewares/Third_Party/FreeRTOS/Source/CMSIS_RTOS/cmsis_os.c ****       pool_id->markers[index] = 1;
 2084              		.loc 1 999 8 view .LVU507
 2085 0024 0F78     		ldrb	r7, [r1]
 995:Middlewares/Third_Party/FreeRTOS/Source/CMSIS_RTOS/cmsis_os.c ****       index = 0;
 2086              		.loc 1 995 8 view .LVU508
 2087 0026 1800     		movs	r0, r3
 2088              	.LVL146:
 999:Middlewares/Third_Party/FreeRTOS/Source/CMSIS_RTOS/cmsis_os.c ****       pool_id->markers[index] = 1;
 2089              		.loc 1 999 5 is_stmt 1 view .LVU509
 999:Middlewares/Third_Party/FreeRTOS/Source/CMSIS_RTOS/cmsis_os.c ****       pool_id->markers[index] = 1;
 2090              		.loc 1 999 8 is_stmt 0 view .LVU510
 2091 0028 002F     		cmp	r7, #0
 2092 002a 09D0     		beq	.L155
 2093              	.L144:
 2094              	.LVL147:
 999:Middlewares/Third_Party/FreeRTOS/Source/CMSIS_RTOS/cmsis_os.c ****       pool_id->markers[index] = 1;
 2095              		.loc 1 999 8 view .LVU511
 2096 002c 0133     		adds	r3, r3, #1
 993:Middlewares/Third_Party/FreeRTOS/Source/CMSIS_RTOS/cmsis_os.c ****     index = pool_id->currentIndex + i;
 2097              		.loc 1 993 3 view .LVU512
 2098 002e 9C45     		cmp	ip, r3
 2099 0030 15D0     		beq	.L149
 2100              	.LVL148:
 2101              	.L145:
 994:Middlewares/Third_Party/FreeRTOS/Source/CMSIS_RTOS/cmsis_os.c ****     if (index >= pool_id->pool_sz) {
 2102              		.loc 1 994 5 is_stmt 1 view .LVU513
 995:Middlewares/Third_Party/FreeRTOS/Source/CMSIS_RTOS/cmsis_os.c ****       index = 0;
 2103              		.loc 1 995 5 view .LVU514
 995:Middlewares/Third_Party/FreeRTOS/Source/CMSIS_RTOS/cmsis_os.c ****       index = 0;
 2104              		.loc 1 995 8 is_stmt 0 view .LVU515
ARM GAS  /tmp/ccSFdtfu.s 			page 61


 2105 0032 9342     		cmp	r3, r2
 2106 0034 F5D3     		bcc	.L156
 2107 0036 2900     		movs	r1, r5
 999:Middlewares/Third_Party/FreeRTOS/Source/CMSIS_RTOS/cmsis_os.c ****       pool_id->markers[index] = 1;
 2108              		.loc 1 999 8 view .LVU516
 2109 0038 0F78     		ldrb	r7, [r1]
 996:Middlewares/Third_Party/FreeRTOS/Source/CMSIS_RTOS/cmsis_os.c ****     }
 2110              		.loc 1 996 13 view .LVU517
 2111 003a 0020     		movs	r0, #0
 2112              	.LVL149:
 999:Middlewares/Third_Party/FreeRTOS/Source/CMSIS_RTOS/cmsis_os.c ****       pool_id->markers[index] = 1;
 2113              		.loc 1 999 5 is_stmt 1 view .LVU518
 999:Middlewares/Third_Party/FreeRTOS/Source/CMSIS_RTOS/cmsis_os.c ****       pool_id->markers[index] = 1;
 2114              		.loc 1 999 8 is_stmt 0 view .LVU519
 2115 003c 002F     		cmp	r7, #0
 2116 003e F5D1     		bne	.L144
 2117              	.L155:
1000:Middlewares/Third_Party/FreeRTOS/Source/CMSIS_RTOS/cmsis_os.c ****       p = (void *)((uint32_t)(pool_id->pool) + (index * pool_id->item_sz));
 2118              		.loc 1 1000 7 is_stmt 1 view .LVU520
1000:Middlewares/Third_Party/FreeRTOS/Source/CMSIS_RTOS/cmsis_os.c ****       p = (void *)((uint32_t)(pool_id->pool) + (index * pool_id->item_sz));
 2119              		.loc 1 1000 31 is_stmt 0 view .LVU521
 2120 0040 0123     		movs	r3, #1
 2121 0042 0B70     		strb	r3, [r1]
1001:Middlewares/Third_Party/FreeRTOS/Source/CMSIS_RTOS/cmsis_os.c ****       pool_id->currentIndex = index;
 2122              		.loc 1 1001 7 is_stmt 1 view .LVU522
1001:Middlewares/Third_Party/FreeRTOS/Source/CMSIS_RTOS/cmsis_os.c ****       pool_id->currentIndex = index;
 2123              		.loc 1 1001 46 is_stmt 0 view .LVU523
 2124 0044 2368     		ldr	r3, [r4]
1001:Middlewares/Third_Party/FreeRTOS/Source/CMSIS_RTOS/cmsis_os.c ****       pool_id->currentIndex = index;
 2125              		.loc 1 1001 55 view .LVU524
 2126 0046 E568     		ldr	r5, [r4, #12]
1001:Middlewares/Third_Party/FreeRTOS/Source/CMSIS_RTOS/cmsis_os.c ****       pool_id->currentIndex = index;
 2127              		.loc 1 1001 46 view .LVU525
 2128 0048 9C46     		mov	ip, r3
1001:Middlewares/Third_Party/FreeRTOS/Source/CMSIS_RTOS/cmsis_os.c ****       pool_id->currentIndex = index;
 2129              		.loc 1 1001 55 view .LVU526
 2130 004a 4543     		muls	r5, r0
1002:Middlewares/Third_Party/FreeRTOS/Source/CMSIS_RTOS/cmsis_os.c ****       break;
 2131              		.loc 1 1002 29 view .LVU527
 2132 004c 2061     		str	r0, [r4, #16]
1001:Middlewares/Third_Party/FreeRTOS/Source/CMSIS_RTOS/cmsis_os.c ****       pool_id->currentIndex = index;
 2133              		.loc 1 1001 46 view .LVU528
 2134 004e 6544     		add	r5, r5, ip
 2135              	.LVL150:
1002:Middlewares/Third_Party/FreeRTOS/Source/CMSIS_RTOS/cmsis_os.c ****       break;
 2136              		.loc 1 1002 7 is_stmt 1 view .LVU529
1003:Middlewares/Third_Party/FreeRTOS/Source/CMSIS_RTOS/cmsis_os.c ****     }
 2137              		.loc 1 1003 7 view .LVU530
1007:Middlewares/Third_Party/FreeRTOS/Source/CMSIS_RTOS/cmsis_os.c ****     portCLEAR_INTERRUPT_MASK_FROM_ISR(dummy);
 2138              		.loc 1 1007 3 view .LVU531
 2139              	.LBB196:
 2140              	.LBI196:
 173:Middlewares/Third_Party/FreeRTOS/Source/CMSIS_RTOS/cmsis_os.c **** {
 2141              		.loc 1 173 12 view .LVU532
 2142              	.LBE196:
 2143              	.LBE204:
 2144              	.LBE208:
ARM GAS  /tmp/ccSFdtfu.s 			page 62


 175:Middlewares/Third_Party/FreeRTOS/Source/CMSIS_RTOS/cmsis_os.c **** }
 2145              		.loc 1 175 3 view .LVU533
 2146              	.LBB209:
 2147              	.LBB205:
 2148              	.LBB201:
 2149              	.LBB197:
 2150              	.LBI197:
 105:Drivers/CMSIS/Include/cmsis_gcc.h **** {
 2151              		.loc 2 105 61 view .LVU534
 2152              	.LBB198:
 107:Drivers/CMSIS/Include/cmsis_gcc.h **** 
 2153              		.loc 2 107 3 view .LVU535
 109:Drivers/CMSIS/Include/cmsis_gcc.h ****   return(result);
 2154              		.loc 2 109 3 view .LVU536
 2155              		.syntax divided
 2156              	@ 109 "Drivers/CMSIS/Include/cmsis_gcc.h" 1
 2157 0050 EFF30583 		MRS r3, ipsr
 2158              	@ 0 "" 2
 2159              	.LVL151:
 2160              		.loc 2 110 3 view .LVU537
 2161              		.loc 2 110 3 is_stmt 0 view .LVU538
 2162              		.thumb
 2163              		.syntax unified
 2164              	.LBE198:
 2165              	.LBE197:
 2166              	.LBE201:
1007:Middlewares/Third_Party/FreeRTOS/Source/CMSIS_RTOS/cmsis_os.c ****     portCLEAR_INTERRUPT_MASK_FROM_ISR(dummy);
 2167              		.loc 1 1007 6 view .LVU539
 2168 0054 002B     		cmp	r3, #0
 2169 0056 07D1     		bne	.L157
 2170              	.LVL152:
 2171              	.L146:
1011:Middlewares/Third_Party/FreeRTOS/Source/CMSIS_RTOS/cmsis_os.c ****   }
 2172              		.loc 1 1011 5 is_stmt 1 view .LVU540
 2173 0058 FFF7FEFF 		bl	vPortExitCritical
 2174              	.LVL153:
 2175 005c 07E0     		b	.L147
 2176              	.LVL154:
 2177              	.L149:
 982:Middlewares/Third_Party/FreeRTOS/Source/CMSIS_RTOS/cmsis_os.c ****   uint32_t i;
 2178              		.loc 1 982 9 is_stmt 0 view .LVU541
 2179 005e 0025     		movs	r5, #0
 2180              	.LVL155:
1007:Middlewares/Third_Party/FreeRTOS/Source/CMSIS_RTOS/cmsis_os.c ****     portCLEAR_INTERRUPT_MASK_FROM_ISR(dummy);
 2181              		.loc 1 1007 3 is_stmt 1 view .LVU542
 2182              	.LBB202:
 173:Middlewares/Third_Party/FreeRTOS/Source/CMSIS_RTOS/cmsis_os.c **** {
 2183              		.loc 1 173 12 view .LVU543
 2184              	.LBE202:
 2185              	.LBE205:
 2186              	.LBE209:
 175:Middlewares/Third_Party/FreeRTOS/Source/CMSIS_RTOS/cmsis_os.c **** }
 2187              		.loc 1 175 3 view .LVU544
 2188              	.LBB210:
 2189              	.LBB206:
 2190              	.LBB203:
 2191              	.LBB200:
ARM GAS  /tmp/ccSFdtfu.s 			page 63


 105:Drivers/CMSIS/Include/cmsis_gcc.h **** {
 2192              		.loc 2 105 61 view .LVU545
 2193              	.LBB199:
 107:Drivers/CMSIS/Include/cmsis_gcc.h **** 
 2194              		.loc 2 107 3 view .LVU546
 109:Drivers/CMSIS/Include/cmsis_gcc.h ****   return(result);
 2195              		.loc 2 109 3 view .LVU547
 2196              		.syntax divided
 2197              	@ 109 "Drivers/CMSIS/Include/cmsis_gcc.h" 1
 2198 0060 EFF30583 		MRS r3, ipsr
 2199              	@ 0 "" 2
 2200              	.LVL156:
 2201              		.loc 2 110 3 view .LVU548
 2202              		.loc 2 110 3 is_stmt 0 view .LVU549
 2203              		.thumb
 2204              		.syntax unified
 2205              	.LBE199:
 2206              	.LBE200:
 2207              	.LBE203:
1007:Middlewares/Third_Party/FreeRTOS/Source/CMSIS_RTOS/cmsis_os.c ****     portCLEAR_INTERRUPT_MASK_FROM_ISR(dummy);
 2208              		.loc 1 1007 6 view .LVU550
 2209 0064 002B     		cmp	r3, #0
 2210 0066 F7D0     		beq	.L146
 2211              	.L157:
1008:Middlewares/Third_Party/FreeRTOS/Source/CMSIS_RTOS/cmsis_os.c ****   }
 2212              		.loc 1 1008 5 is_stmt 1 view .LVU551
 2213 0068 3000     		movs	r0, r6
 2214 006a FFF7FEFF 		bl	vClearInterruptMaskFromISR
 2215              	.LVL157:
 2216              	.L147:
1014:Middlewares/Third_Party/FreeRTOS/Source/CMSIS_RTOS/cmsis_os.c **** }
 2217              		.loc 1 1014 3 view .LVU552
1014:Middlewares/Third_Party/FreeRTOS/Source/CMSIS_RTOS/cmsis_os.c **** }
 2218              		.loc 1 1014 3 is_stmt 0 view .LVU553
 2219              	.LBE206:
 2220              	.LBE210:
1026:Middlewares/Third_Party/FreeRTOS/Source/CMSIS_RTOS/cmsis_os.c ****   
1027:Middlewares/Third_Party/FreeRTOS/Source/CMSIS_RTOS/cmsis_os.c ****   if (p != NULL)
 2221              		.loc 1 1027 3 is_stmt 1 view .LVU554
 2222              		.loc 1 1027 6 is_stmt 0 view .LVU555
 2223 006e 002D     		cmp	r5, #0
 2224 0070 04D0     		beq	.L139
1028:Middlewares/Third_Party/FreeRTOS/Source/CMSIS_RTOS/cmsis_os.c ****   {
1029:Middlewares/Third_Party/FreeRTOS/Source/CMSIS_RTOS/cmsis_os.c ****     memset(p, 0, sizeof(pool_id->pool_sz));
 2225              		.loc 1 1029 5 is_stmt 1 view .LVU556
 2226 0072 0422     		movs	r2, #4
 2227 0074 0021     		movs	r1, #0
 2228 0076 2800     		movs	r0, r5
 2229 0078 FFF7FEFF 		bl	memset
 2230              	.LVL158:
1030:Middlewares/Third_Party/FreeRTOS/Source/CMSIS_RTOS/cmsis_os.c ****   }
1031:Middlewares/Third_Party/FreeRTOS/Source/CMSIS_RTOS/cmsis_os.c ****   
1032:Middlewares/Third_Party/FreeRTOS/Source/CMSIS_RTOS/cmsis_os.c ****   return p;
 2231              		.loc 1 1032 3 view .LVU557
 2232              	.L139:
1033:Middlewares/Third_Party/FreeRTOS/Source/CMSIS_RTOS/cmsis_os.c **** }
 2233              		.loc 1 1033 1 is_stmt 0 view .LVU558
ARM GAS  /tmp/ccSFdtfu.s 			page 64


 2234 007c 2800     		movs	r0, r5
 2235              		@ sp needed
 2236              	.LVL159:
 2237              	.LVL160:
 2238              		.loc 1 1033 1 view .LVU559
 2239 007e F8BD     		pop	{r3, r4, r5, r6, r7, pc}
 2240              	.LVL161:
 2241              	.L140:
 2242              	.LBB211:
 2243              	.LBB207:
 990:Middlewares/Third_Party/FreeRTOS/Source/CMSIS_RTOS/cmsis_os.c ****   }
 2244              		.loc 1 990 5 is_stmt 1 view .LVU560
 2245 0080 FFF7FEFF 		bl	vPortEnterCritical
 2246              	.LVL162:
 990:Middlewares/Third_Party/FreeRTOS/Source/CMSIS_RTOS/cmsis_os.c ****   }
 2247              		.loc 1 990 5 is_stmt 0 view .LVU561
 2248 0084 C5E7     		b	.L141
 2249              	.LBE207:
 2250              	.LBE211:
 2251              		.cfi_endproc
 2252              	.LFE66:
 2254              		.global	__aeabi_uidivmod
 2255 0086 C046     		.section	.text.osPoolFree,"ax",%progbits
 2256              		.align	1
 2257              		.p2align 2,,3
 2258              		.global	osPoolFree
 2259              		.syntax unified
 2260              		.code	16
 2261              		.thumb_func
 2262              		.fpu softvfp
 2264              	osPoolFree:
 2265              	.LVL163:
 2266              	.LFB67:
1034:Middlewares/Third_Party/FreeRTOS/Source/CMSIS_RTOS/cmsis_os.c **** 
1035:Middlewares/Third_Party/FreeRTOS/Source/CMSIS_RTOS/cmsis_os.c **** /**
1036:Middlewares/Third_Party/FreeRTOS/Source/CMSIS_RTOS/cmsis_os.c **** * @brief Return an allocated memory block back to a specific memory pool
1037:Middlewares/Third_Party/FreeRTOS/Source/CMSIS_RTOS/cmsis_os.c **** * @param  pool_id       memory pool ID obtain referenced with \ref osPoolCreate.
1038:Middlewares/Third_Party/FreeRTOS/Source/CMSIS_RTOS/cmsis_os.c **** * @param  block         address of the allocated memory block that is returned to the memory pool.
1039:Middlewares/Third_Party/FreeRTOS/Source/CMSIS_RTOS/cmsis_os.c **** * @retval  status code that indicates the execution status of the function.
1040:Middlewares/Third_Party/FreeRTOS/Source/CMSIS_RTOS/cmsis_os.c **** * @note   MUST REMAIN UNCHANGED: \b osPoolFree shall be consistent in every CMSIS-RTOS.
1041:Middlewares/Third_Party/FreeRTOS/Source/CMSIS_RTOS/cmsis_os.c **** */
1042:Middlewares/Third_Party/FreeRTOS/Source/CMSIS_RTOS/cmsis_os.c **** osStatus osPoolFree (osPoolId pool_id, void *block)
1043:Middlewares/Third_Party/FreeRTOS/Source/CMSIS_RTOS/cmsis_os.c **** {
 2267              		.loc 1 1043 1 is_stmt 1 view -0
 2268              		.cfi_startproc
 2269              		@ args = 0, pretend = 0, frame = 0
 2270              		@ frame_needed = 0, uses_anonymous_args = 0
1044:Middlewares/Third_Party/FreeRTOS/Source/CMSIS_RTOS/cmsis_os.c ****   uint32_t index;
 2271              		.loc 1 1044 3 view .LVU563
1045:Middlewares/Third_Party/FreeRTOS/Source/CMSIS_RTOS/cmsis_os.c ****   
1046:Middlewares/Third_Party/FreeRTOS/Source/CMSIS_RTOS/cmsis_os.c ****   if (pool_id == NULL) {
 2272              		.loc 1 1046 3 view .LVU564
1043:Middlewares/Third_Party/FreeRTOS/Source/CMSIS_RTOS/cmsis_os.c ****   uint32_t index;
 2273              		.loc 1 1043 1 is_stmt 0 view .LVU565
 2274 0000 10B5     		push	{r4, lr}
 2275              	.LCFI31:
 2276              		.cfi_def_cfa_offset 8
ARM GAS  /tmp/ccSFdtfu.s 			page 65


 2277              		.cfi_offset 4, -8
 2278              		.cfi_offset 14, -4
1043:Middlewares/Third_Party/FreeRTOS/Source/CMSIS_RTOS/cmsis_os.c ****   uint32_t index;
 2279              		.loc 1 1043 1 view .LVU566
 2280 0002 041E     		subs	r4, r0, #0
 2281              		.loc 1 1046 6 view .LVU567
 2282 0004 11D0     		beq	.L164
1047:Middlewares/Third_Party/FreeRTOS/Source/CMSIS_RTOS/cmsis_os.c ****     return osErrorParameter;
1048:Middlewares/Third_Party/FreeRTOS/Source/CMSIS_RTOS/cmsis_os.c ****   }
1049:Middlewares/Third_Party/FreeRTOS/Source/CMSIS_RTOS/cmsis_os.c ****   
1050:Middlewares/Third_Party/FreeRTOS/Source/CMSIS_RTOS/cmsis_os.c ****   if (block == NULL) {
 2283              		.loc 1 1050 3 is_stmt 1 view .LVU568
 2284              		.loc 1 1050 6 is_stmt 0 view .LVU569
 2285 0006 0029     		cmp	r1, #0
 2286 0008 0FD0     		beq	.L164
1051:Middlewares/Third_Party/FreeRTOS/Source/CMSIS_RTOS/cmsis_os.c ****     return osErrorParameter;
1052:Middlewares/Third_Party/FreeRTOS/Source/CMSIS_RTOS/cmsis_os.c ****   }
1053:Middlewares/Third_Party/FreeRTOS/Source/CMSIS_RTOS/cmsis_os.c ****   
1054:Middlewares/Third_Party/FreeRTOS/Source/CMSIS_RTOS/cmsis_os.c ****   if (block < pool_id->pool) {
 2287              		.loc 1 1054 3 is_stmt 1 view .LVU570
 2288              		.loc 1 1054 22 is_stmt 0 view .LVU571
 2289 000a 0068     		ldr	r0, [r0]
 2290              	.LVL164:
 2291              		.loc 1 1054 6 view .LVU572
 2292 000c 8842     		cmp	r0, r1
 2293 000e 0CD8     		bhi	.L164
1055:Middlewares/Third_Party/FreeRTOS/Source/CMSIS_RTOS/cmsis_os.c ****     return osErrorParameter;
1056:Middlewares/Third_Party/FreeRTOS/Source/CMSIS_RTOS/cmsis_os.c ****   }
1057:Middlewares/Third_Party/FreeRTOS/Source/CMSIS_RTOS/cmsis_os.c ****   
1058:Middlewares/Third_Party/FreeRTOS/Source/CMSIS_RTOS/cmsis_os.c ****   index = (uint32_t)block - (uint32_t)(pool_id->pool);
 2294              		.loc 1 1058 3 is_stmt 1 view .LVU573
 2295              	.LVL165:
1059:Middlewares/Third_Party/FreeRTOS/Source/CMSIS_RTOS/cmsis_os.c ****   if (index % pool_id->item_sz) {
 2296              		.loc 1 1059 3 view .LVU574
1058:Middlewares/Third_Party/FreeRTOS/Source/CMSIS_RTOS/cmsis_os.c ****   if (index % pool_id->item_sz) {
 2297              		.loc 1 1058 9 is_stmt 0 view .LVU575
 2298 0010 081A     		subs	r0, r1, r0
 2299              	.LVL166:
1058:Middlewares/Third_Party/FreeRTOS/Source/CMSIS_RTOS/cmsis_os.c ****   if (index % pool_id->item_sz) {
 2300              		.loc 1 1058 9 view .LVU576
 2301 0012 E168     		ldr	r1, [r4, #12]
 2302              	.LVL167:
1058:Middlewares/Third_Party/FreeRTOS/Source/CMSIS_RTOS/cmsis_os.c ****   if (index % pool_id->item_sz) {
 2303              		.loc 1 1058 9 view .LVU577
 2304 0014 FFF7FEFF 		bl	__aeabi_uidivmod
 2305              	.LVL168:
 2306              		.loc 1 1059 6 view .LVU578
 2307 0018 0029     		cmp	r1, #0
 2308 001a 06D1     		bne	.L164
1060:Middlewares/Third_Party/FreeRTOS/Source/CMSIS_RTOS/cmsis_os.c ****     return osErrorParameter;
1061:Middlewares/Third_Party/FreeRTOS/Source/CMSIS_RTOS/cmsis_os.c ****   }
1062:Middlewares/Third_Party/FreeRTOS/Source/CMSIS_RTOS/cmsis_os.c ****   index = index / pool_id->item_sz;
 2309              		.loc 1 1062 3 is_stmt 1 view .LVU579
 2310              	.LVL169:
1063:Middlewares/Third_Party/FreeRTOS/Source/CMSIS_RTOS/cmsis_os.c ****   if (index >= pool_id->pool_sz) {
 2311              		.loc 1 1063 3 view .LVU580
 2312              		.loc 1 1063 6 is_stmt 0 view .LVU581
ARM GAS  /tmp/ccSFdtfu.s 			page 66


 2313 001c A368     		ldr	r3, [r4, #8]
 2314 001e 8342     		cmp	r3, r0
 2315 0020 03D9     		bls	.L164
1064:Middlewares/Third_Party/FreeRTOS/Source/CMSIS_RTOS/cmsis_os.c ****     return osErrorParameter;
1065:Middlewares/Third_Party/FreeRTOS/Source/CMSIS_RTOS/cmsis_os.c ****   }
1066:Middlewares/Third_Party/FreeRTOS/Source/CMSIS_RTOS/cmsis_os.c ****   
1067:Middlewares/Third_Party/FreeRTOS/Source/CMSIS_RTOS/cmsis_os.c ****   pool_id->markers[index] = 0;
 2316              		.loc 1 1067 3 is_stmt 1 view .LVU582
 2317              		.loc 1 1067 27 is_stmt 0 view .LVU583
 2318 0022 6368     		ldr	r3, [r4, #4]
 2319 0024 1954     		strb	r1, [r3, r0]
1068:Middlewares/Third_Party/FreeRTOS/Source/CMSIS_RTOS/cmsis_os.c ****   
1069:Middlewares/Third_Party/FreeRTOS/Source/CMSIS_RTOS/cmsis_os.c ****   return osOK;
 2320              		.loc 1 1069 3 is_stmt 1 view .LVU584
 2321              		.loc 1 1069 10 is_stmt 0 view .LVU585
 2322 0026 0020     		movs	r0, #0
 2323              	.LVL170:
 2324              		.loc 1 1069 10 view .LVU586
 2325 0028 00E0     		b	.L158
 2326              	.L164:
1047:Middlewares/Third_Party/FreeRTOS/Source/CMSIS_RTOS/cmsis_os.c ****   }
 2327              		.loc 1 1047 12 view .LVU587
 2328 002a 8020     		movs	r0, #128
 2329              	.L158:
1070:Middlewares/Third_Party/FreeRTOS/Source/CMSIS_RTOS/cmsis_os.c **** }
 2330              		.loc 1 1070 1 view .LVU588
 2331              		@ sp needed
 2332              	.LVL171:
 2333              		.loc 1 1070 1 view .LVU589
 2334 002c 10BD     		pop	{r4, pc}
 2335              		.cfi_endproc
 2336              	.LFE67:
 2338 002e C046     		.section	.text.osMessageCreate,"ax",%progbits
 2339              		.align	1
 2340              		.p2align 2,,3
 2341              		.global	osMessageCreate
 2342              		.syntax unified
 2343              		.code	16
 2344              		.thumb_func
 2345              		.fpu softvfp
 2347              	osMessageCreate:
 2348              	.LVL172:
 2349              	.LFB68:
1071:Middlewares/Third_Party/FreeRTOS/Source/CMSIS_RTOS/cmsis_os.c **** 
1072:Middlewares/Third_Party/FreeRTOS/Source/CMSIS_RTOS/cmsis_os.c **** 
1073:Middlewares/Third_Party/FreeRTOS/Source/CMSIS_RTOS/cmsis_os.c **** #endif   /* Use Memory Pool Management */
1074:Middlewares/Third_Party/FreeRTOS/Source/CMSIS_RTOS/cmsis_os.c **** 
1075:Middlewares/Third_Party/FreeRTOS/Source/CMSIS_RTOS/cmsis_os.c **** /*******************   Message Queue Management Functions  *********************/
1076:Middlewares/Third_Party/FreeRTOS/Source/CMSIS_RTOS/cmsis_os.c **** 
1077:Middlewares/Third_Party/FreeRTOS/Source/CMSIS_RTOS/cmsis_os.c **** #if (defined (osFeature_MessageQ)  &&  (osFeature_MessageQ != 0)) /* Use Message Queues */
1078:Middlewares/Third_Party/FreeRTOS/Source/CMSIS_RTOS/cmsis_os.c **** 
1079:Middlewares/Third_Party/FreeRTOS/Source/CMSIS_RTOS/cmsis_os.c **** /**
1080:Middlewares/Third_Party/FreeRTOS/Source/CMSIS_RTOS/cmsis_os.c **** * @brief Create and Initialize a Message Queue
1081:Middlewares/Third_Party/FreeRTOS/Source/CMSIS_RTOS/cmsis_os.c **** * @param queue_def     queue definition referenced with \ref osMessageQ.
1082:Middlewares/Third_Party/FreeRTOS/Source/CMSIS_RTOS/cmsis_os.c **** * @param  thread_id     thread ID (obtained by \ref osThreadCreate or \ref osThreadGetId) or NULL.
1083:Middlewares/Third_Party/FreeRTOS/Source/CMSIS_RTOS/cmsis_os.c **** * @retval  message queue ID for reference by other functions or NULL in case of error.
1084:Middlewares/Third_Party/FreeRTOS/Source/CMSIS_RTOS/cmsis_os.c **** * @note   MUST REMAIN UNCHANGED: \b osMessageCreate shall be consistent in every CMSIS-RTOS.
ARM GAS  /tmp/ccSFdtfu.s 			page 67


1085:Middlewares/Third_Party/FreeRTOS/Source/CMSIS_RTOS/cmsis_os.c **** */
1086:Middlewares/Third_Party/FreeRTOS/Source/CMSIS_RTOS/cmsis_os.c **** osMessageQId osMessageCreate (const osMessageQDef_t *queue_def, osThreadId thread_id)
1087:Middlewares/Third_Party/FreeRTOS/Source/CMSIS_RTOS/cmsis_os.c **** {
 2350              		.loc 1 1087 1 is_stmt 1 view -0
 2351              		.cfi_startproc
 2352              		@ args = 0, pretend = 0, frame = 0
 2353              		@ frame_needed = 0, uses_anonymous_args = 0
1088:Middlewares/Third_Party/FreeRTOS/Source/CMSIS_RTOS/cmsis_os.c ****   (void) thread_id;
 2354              		.loc 1 1088 3 view .LVU591
1089:Middlewares/Third_Party/FreeRTOS/Source/CMSIS_RTOS/cmsis_os.c ****   
1090:Middlewares/Third_Party/FreeRTOS/Source/CMSIS_RTOS/cmsis_os.c **** #if( configSUPPORT_STATIC_ALLOCATION == 1 ) && ( configSUPPORT_DYNAMIC_ALLOCATION == 1 )
1091:Middlewares/Third_Party/FreeRTOS/Source/CMSIS_RTOS/cmsis_os.c **** 
1092:Middlewares/Third_Party/FreeRTOS/Source/CMSIS_RTOS/cmsis_os.c ****   if ((queue_def->buffer != NULL) && (queue_def->controlblock != NULL)) {
1093:Middlewares/Third_Party/FreeRTOS/Source/CMSIS_RTOS/cmsis_os.c ****     return xQueueCreateStatic(queue_def->queue_sz, queue_def->item_sz, queue_def->buffer, queue_def
1094:Middlewares/Third_Party/FreeRTOS/Source/CMSIS_RTOS/cmsis_os.c ****   }
1095:Middlewares/Third_Party/FreeRTOS/Source/CMSIS_RTOS/cmsis_os.c ****   else {
1096:Middlewares/Third_Party/FreeRTOS/Source/CMSIS_RTOS/cmsis_os.c ****     return xQueueCreate(queue_def->queue_sz, queue_def->item_sz);
1097:Middlewares/Third_Party/FreeRTOS/Source/CMSIS_RTOS/cmsis_os.c ****   }
1098:Middlewares/Third_Party/FreeRTOS/Source/CMSIS_RTOS/cmsis_os.c **** #elif ( configSUPPORT_STATIC_ALLOCATION == 1 )
1099:Middlewares/Third_Party/FreeRTOS/Source/CMSIS_RTOS/cmsis_os.c ****   return xQueueCreateStatic(queue_def->queue_sz, queue_def->item_sz, queue_def->buffer, queue_def->
1100:Middlewares/Third_Party/FreeRTOS/Source/CMSIS_RTOS/cmsis_os.c **** #else  
1101:Middlewares/Third_Party/FreeRTOS/Source/CMSIS_RTOS/cmsis_os.c ****   return xQueueCreate(queue_def->queue_sz, queue_def->item_sz);
 2355              		.loc 1 1101 3 view .LVU592
1087:Middlewares/Third_Party/FreeRTOS/Source/CMSIS_RTOS/cmsis_os.c ****   (void) thread_id;
 2356              		.loc 1 1087 1 is_stmt 0 view .LVU593
 2357 0000 10B5     		push	{r4, lr}
 2358              	.LCFI32:
 2359              		.cfi_def_cfa_offset 8
 2360              		.cfi_offset 4, -8
 2361              		.cfi_offset 14, -4
 2362              		.loc 1 1101 10 view .LVU594
 2363 0002 4168     		ldr	r1, [r0, #4]
 2364              	.LVL173:
 2365              		.loc 1 1101 10 view .LVU595
 2366 0004 0022     		movs	r2, #0
 2367 0006 0068     		ldr	r0, [r0]
 2368              	.LVL174:
 2369              		.loc 1 1101 10 view .LVU596
 2370 0008 FFF7FEFF 		bl	xQueueGenericCreate
 2371              	.LVL175:
1102:Middlewares/Third_Party/FreeRTOS/Source/CMSIS_RTOS/cmsis_os.c **** #endif
1103:Middlewares/Third_Party/FreeRTOS/Source/CMSIS_RTOS/cmsis_os.c **** }
 2372              		.loc 1 1103 1 view .LVU597
 2373              		@ sp needed
 2374 000c 10BD     		pop	{r4, pc}
 2375              		.cfi_endproc
 2376              	.LFE68:
 2378 000e C046     		.section	.text.osMessagePut,"ax",%progbits
 2379              		.align	1
 2380              		.p2align 2,,3
 2381              		.global	osMessagePut
 2382              		.syntax unified
 2383              		.code	16
 2384              		.thumb_func
 2385              		.fpu softvfp
 2387              	osMessagePut:
 2388              	.LVL176:
ARM GAS  /tmp/ccSFdtfu.s 			page 68


 2389              	.LFB69:
1104:Middlewares/Third_Party/FreeRTOS/Source/CMSIS_RTOS/cmsis_os.c **** 
1105:Middlewares/Third_Party/FreeRTOS/Source/CMSIS_RTOS/cmsis_os.c **** /**
1106:Middlewares/Third_Party/FreeRTOS/Source/CMSIS_RTOS/cmsis_os.c **** * @brief Put a Message to a Queue.
1107:Middlewares/Third_Party/FreeRTOS/Source/CMSIS_RTOS/cmsis_os.c **** * @param  queue_id  message queue ID obtained with \ref osMessageCreate.
1108:Middlewares/Third_Party/FreeRTOS/Source/CMSIS_RTOS/cmsis_os.c **** * @param  info      message information.
1109:Middlewares/Third_Party/FreeRTOS/Source/CMSIS_RTOS/cmsis_os.c **** * @param  millisec  timeout value or 0 in case of no time-out.
1110:Middlewares/Third_Party/FreeRTOS/Source/CMSIS_RTOS/cmsis_os.c **** * @retval status code that indicates the execution status of the function.
1111:Middlewares/Third_Party/FreeRTOS/Source/CMSIS_RTOS/cmsis_os.c **** * @note   MUST REMAIN UNCHANGED: \b osMessagePut shall be consistent in every CMSIS-RTOS.
1112:Middlewares/Third_Party/FreeRTOS/Source/CMSIS_RTOS/cmsis_os.c **** */
1113:Middlewares/Third_Party/FreeRTOS/Source/CMSIS_RTOS/cmsis_os.c **** osStatus osMessagePut (osMessageQId queue_id, uint32_t info, uint32_t millisec)
1114:Middlewares/Third_Party/FreeRTOS/Source/CMSIS_RTOS/cmsis_os.c **** {
 2390              		.loc 1 1114 1 is_stmt 1 view -0
 2391              		.cfi_startproc
 2392              		@ args = 0, pretend = 0, frame = 16
 2393              		@ frame_needed = 0, uses_anonymous_args = 0
1115:Middlewares/Third_Party/FreeRTOS/Source/CMSIS_RTOS/cmsis_os.c ****   portBASE_TYPE taskWoken = pdFALSE;
 2394              		.loc 1 1115 3 view .LVU599
 2395              		.loc 1 1115 17 is_stmt 0 view .LVU600
 2396 0000 0023     		movs	r3, #0
1114:Middlewares/Third_Party/FreeRTOS/Source/CMSIS_RTOS/cmsis_os.c ****   portBASE_TYPE taskWoken = pdFALSE;
 2397              		.loc 1 1114 1 view .LVU601
 2398 0002 00B5     		push	{lr}
 2399              	.LCFI33:
 2400              		.cfi_def_cfa_offset 4
 2401              		.cfi_offset 14, -4
 2402 0004 85B0     		sub	sp, sp, #20
 2403              	.LCFI34:
 2404              		.cfi_def_cfa_offset 24
1114:Middlewares/Third_Party/FreeRTOS/Source/CMSIS_RTOS/cmsis_os.c ****   portBASE_TYPE taskWoken = pdFALSE;
 2405              		.loc 1 1114 1 view .LVU602
 2406 0006 0191     		str	r1, [sp, #4]
 2407              		.loc 1 1115 17 view .LVU603
 2408 0008 0393     		str	r3, [sp, #12]
1116:Middlewares/Third_Party/FreeRTOS/Source/CMSIS_RTOS/cmsis_os.c ****   TickType_t ticks;
 2409              		.loc 1 1116 3 is_stmt 1 view .LVU604
1117:Middlewares/Third_Party/FreeRTOS/Source/CMSIS_RTOS/cmsis_os.c ****   
1118:Middlewares/Third_Party/FreeRTOS/Source/CMSIS_RTOS/cmsis_os.c ****   ticks = millisec / portTICK_PERIOD_MS;
 2410              		.loc 1 1118 3 view .LVU605
 2411              	.LVL177:
1119:Middlewares/Third_Party/FreeRTOS/Source/CMSIS_RTOS/cmsis_os.c ****   if (ticks == 0) {
 2412              		.loc 1 1119 3 view .LVU606
 2413              		.loc 1 1119 6 is_stmt 0 view .LVU607
 2414 000a 002A     		cmp	r2, #0
 2415 000c 00D1     		bne	.L167
1120:Middlewares/Third_Party/FreeRTOS/Source/CMSIS_RTOS/cmsis_os.c ****     ticks = 1;
 2416              		.loc 1 1120 11 view .LVU608
 2417 000e 0132     		adds	r2, r2, #1
 2418              	.LVL178:
 2419              	.L167:
1121:Middlewares/Third_Party/FreeRTOS/Source/CMSIS_RTOS/cmsis_os.c ****   }
1122:Middlewares/Third_Party/FreeRTOS/Source/CMSIS_RTOS/cmsis_os.c ****   
1123:Middlewares/Third_Party/FreeRTOS/Source/CMSIS_RTOS/cmsis_os.c ****   if (inHandlerMode()) {
 2420              		.loc 1 1123 3 is_stmt 1 view .LVU609
 2421              	.LBB212:
 2422              	.LBI212:
 173:Middlewares/Third_Party/FreeRTOS/Source/CMSIS_RTOS/cmsis_os.c **** {
ARM GAS  /tmp/ccSFdtfu.s 			page 69


 2423              		.loc 1 173 12 view .LVU610
 2424              	.LBE212:
 175:Middlewares/Third_Party/FreeRTOS/Source/CMSIS_RTOS/cmsis_os.c **** }
 2425              		.loc 1 175 3 view .LVU611
 2426              	.LBB215:
 2427              	.LBB213:
 2428              	.LBI213:
 105:Drivers/CMSIS/Include/cmsis_gcc.h **** {
 2429              		.loc 2 105 61 view .LVU612
 2430              	.LBB214:
 107:Drivers/CMSIS/Include/cmsis_gcc.h **** 
 2431              		.loc 2 107 3 view .LVU613
 109:Drivers/CMSIS/Include/cmsis_gcc.h ****   return(result);
 2432              		.loc 2 109 3 view .LVU614
 2433              		.syntax divided
 2434              	@ 109 "Drivers/CMSIS/Include/cmsis_gcc.h" 1
 2435 0010 EFF30583 		MRS r3, ipsr
 2436              	@ 0 "" 2
 2437              	.LVL179:
 2438              		.loc 2 110 3 view .LVU615
 2439              		.loc 2 110 3 is_stmt 0 view .LVU616
 2440              		.thumb
 2441              		.syntax unified
 2442              	.LBE214:
 2443              	.LBE213:
 2444              	.LBE215:
 2445              		.loc 1 1123 6 view .LVU617
 2446 0014 002B     		cmp	r3, #0
 2447 0016 0FD0     		beq	.L168
1124:Middlewares/Third_Party/FreeRTOS/Source/CMSIS_RTOS/cmsis_os.c ****     if (xQueueSendFromISR(queue_id, &info, &taskWoken) != pdTRUE) {
 2448              		.loc 1 1124 5 is_stmt 1 view .LVU618
 2449              		.loc 1 1124 9 is_stmt 0 view .LVU619
 2450 0018 0023     		movs	r3, #0
 2451 001a 03AA     		add	r2, sp, #12
 2452              	.LVL180:
 2453              		.loc 1 1124 9 view .LVU620
 2454 001c 01A9     		add	r1, sp, #4
 2455              	.LVL181:
 2456              		.loc 1 1124 9 view .LVU621
 2457 001e FFF7FEFF 		bl	xQueueGenericSendFromISR
 2458              	.LVL182:
 2459              		.loc 1 1124 8 view .LVU622
 2460 0022 0128     		cmp	r0, #1
 2461 0024 0ED1     		bne	.L169
1125:Middlewares/Third_Party/FreeRTOS/Source/CMSIS_RTOS/cmsis_os.c ****       return osErrorOS;
1126:Middlewares/Third_Party/FreeRTOS/Source/CMSIS_RTOS/cmsis_os.c ****     }
1127:Middlewares/Third_Party/FreeRTOS/Source/CMSIS_RTOS/cmsis_os.c ****     portEND_SWITCHING_ISR(taskWoken);
 2462              		.loc 1 1127 5 is_stmt 1 view .LVU623
 2463 0026 039B     		ldr	r3, [sp, #12]
 2464 0028 002B     		cmp	r3, #0
 2465 002a 03D0     		beq	.L176
 2466              		.loc 1 1127 5 discriminator 1 view .LVU624
 2467 002c 8022     		movs	r2, #128
 2468 002e 074B     		ldr	r3, .L177
 2469 0030 5205     		lsls	r2, r2, #21
 2470 0032 1A60     		str	r2, [r3]
 2471              	.L176:
ARM GAS  /tmp/ccSFdtfu.s 			page 70


1128:Middlewares/Third_Party/FreeRTOS/Source/CMSIS_RTOS/cmsis_os.c ****   }
1129:Middlewares/Third_Party/FreeRTOS/Source/CMSIS_RTOS/cmsis_os.c ****   else {
1130:Middlewares/Third_Party/FreeRTOS/Source/CMSIS_RTOS/cmsis_os.c ****     if (xQueueSend(queue_id, &info, ticks) != pdTRUE) {
1131:Middlewares/Third_Party/FreeRTOS/Source/CMSIS_RTOS/cmsis_os.c ****       return osErrorOS;
1132:Middlewares/Third_Party/FreeRTOS/Source/CMSIS_RTOS/cmsis_os.c ****     }
1133:Middlewares/Third_Party/FreeRTOS/Source/CMSIS_RTOS/cmsis_os.c ****   }
1134:Middlewares/Third_Party/FreeRTOS/Source/CMSIS_RTOS/cmsis_os.c ****   
1135:Middlewares/Third_Party/FreeRTOS/Source/CMSIS_RTOS/cmsis_os.c ****   return osOK;
 2472              		.loc 1 1135 10 is_stmt 0 discriminator 1 view .LVU625
 2473 0034 0020     		movs	r0, #0
 2474 0036 06E0     		b	.L166
 2475              	.LVL183:
 2476              	.L168:
1130:Middlewares/Third_Party/FreeRTOS/Source/CMSIS_RTOS/cmsis_os.c ****       return osErrorOS;
 2477              		.loc 1 1130 5 is_stmt 1 view .LVU626
1130:Middlewares/Third_Party/FreeRTOS/Source/CMSIS_RTOS/cmsis_os.c ****       return osErrorOS;
 2478              		.loc 1 1130 9 is_stmt 0 view .LVU627
 2479 0038 0023     		movs	r3, #0
 2480 003a 01A9     		add	r1, sp, #4
 2481              	.LVL184:
1130:Middlewares/Third_Party/FreeRTOS/Source/CMSIS_RTOS/cmsis_os.c ****       return osErrorOS;
 2482              		.loc 1 1130 9 view .LVU628
 2483 003c FFF7FEFF 		bl	xQueueGenericSend
 2484              	.LVL185:
1130:Middlewares/Third_Party/FreeRTOS/Source/CMSIS_RTOS/cmsis_os.c ****       return osErrorOS;
 2485              		.loc 1 1130 8 view .LVU629
 2486 0040 0128     		cmp	r0, #1
 2487 0042 F7D0     		beq	.L176
 2488              	.L169:
1131:Middlewares/Third_Party/FreeRTOS/Source/CMSIS_RTOS/cmsis_os.c ****     }
 2489              		.loc 1 1131 7 is_stmt 1 view .LVU630
1131:Middlewares/Third_Party/FreeRTOS/Source/CMSIS_RTOS/cmsis_os.c ****     }
 2490              		.loc 1 1131 14 is_stmt 0 view .LVU631
 2491 0044 FF20     		movs	r0, #255
 2492              	.L166:
1136:Middlewares/Third_Party/FreeRTOS/Source/CMSIS_RTOS/cmsis_os.c **** }
 2493              		.loc 1 1136 1 view .LVU632
 2494 0046 05B0     		add	sp, sp, #20
 2495              		@ sp needed
 2496 0048 00BD     		pop	{pc}
 2497              	.L178:
 2498 004a C046     		.align	2
 2499              	.L177:
 2500 004c 04ED00E0 		.word	-536810236
 2501              		.cfi_endproc
 2502              	.LFE69:
 2504              		.section	.text.osMessageGet,"ax",%progbits
 2505              		.align	1
 2506              		.p2align 2,,3
 2507              		.global	osMessageGet
 2508              		.syntax unified
 2509              		.code	16
 2510              		.thumb_func
 2511              		.fpu softvfp
 2513              	osMessageGet:
 2514              	.LVL186:
 2515              	.LFB70:
ARM GAS  /tmp/ccSFdtfu.s 			page 71


1137:Middlewares/Third_Party/FreeRTOS/Source/CMSIS_RTOS/cmsis_os.c **** 
1138:Middlewares/Third_Party/FreeRTOS/Source/CMSIS_RTOS/cmsis_os.c **** /**
1139:Middlewares/Third_Party/FreeRTOS/Source/CMSIS_RTOS/cmsis_os.c **** * @brief Get a Message or Wait for a Message from a Queue.
1140:Middlewares/Third_Party/FreeRTOS/Source/CMSIS_RTOS/cmsis_os.c **** * @param  queue_id  message queue ID obtained with \ref osMessageCreate.
1141:Middlewares/Third_Party/FreeRTOS/Source/CMSIS_RTOS/cmsis_os.c **** * @param  millisec  timeout value or 0 in case of no time-out.
1142:Middlewares/Third_Party/FreeRTOS/Source/CMSIS_RTOS/cmsis_os.c **** * @retval event information that includes status code.
1143:Middlewares/Third_Party/FreeRTOS/Source/CMSIS_RTOS/cmsis_os.c **** * @note   MUST REMAIN UNCHANGED: \b osMessageGet shall be consistent in every CMSIS-RTOS.
1144:Middlewares/Third_Party/FreeRTOS/Source/CMSIS_RTOS/cmsis_os.c **** */
1145:Middlewares/Third_Party/FreeRTOS/Source/CMSIS_RTOS/cmsis_os.c **** osEvent osMessageGet (osMessageQId queue_id, uint32_t millisec)
1146:Middlewares/Third_Party/FreeRTOS/Source/CMSIS_RTOS/cmsis_os.c **** {
 2516              		.loc 1 1146 1 is_stmt 1 view -0
 2517              		.cfi_startproc
 2518              		@ args = 0, pretend = 0, frame = 16
 2519              		@ frame_needed = 0, uses_anonymous_args = 0
1147:Middlewares/Third_Party/FreeRTOS/Source/CMSIS_RTOS/cmsis_os.c ****   portBASE_TYPE taskWoken;
 2520              		.loc 1 1147 3 view .LVU634
1148:Middlewares/Third_Party/FreeRTOS/Source/CMSIS_RTOS/cmsis_os.c ****   TickType_t ticks;
 2521              		.loc 1 1148 3 view .LVU635
1149:Middlewares/Third_Party/FreeRTOS/Source/CMSIS_RTOS/cmsis_os.c ****   osEvent event;
 2522              		.loc 1 1149 3 view .LVU636
1150:Middlewares/Third_Party/FreeRTOS/Source/CMSIS_RTOS/cmsis_os.c ****   
1151:Middlewares/Third_Party/FreeRTOS/Source/CMSIS_RTOS/cmsis_os.c ****   event.def.message_id = queue_id;
 2523              		.loc 1 1151 3 view .LVU637
1152:Middlewares/Third_Party/FreeRTOS/Source/CMSIS_RTOS/cmsis_os.c ****   event.value.v = 0;
 2524              		.loc 1 1152 17 is_stmt 0 view .LVU638
 2525 0000 0023     		movs	r3, #0
1146:Middlewares/Third_Party/FreeRTOS/Source/CMSIS_RTOS/cmsis_os.c ****   portBASE_TYPE taskWoken;
 2526              		.loc 1 1146 1 view .LVU639
 2527 0002 70B5     		push	{r4, r5, r6, lr}
 2528              	.LCFI35:
 2529              		.cfi_def_cfa_offset 16
 2530              		.cfi_offset 4, -16
 2531              		.cfi_offset 5, -12
 2532              		.cfi_offset 6, -8
 2533              		.cfi_offset 14, -4
 2534 0004 84B0     		sub	sp, sp, #16
 2535              	.LCFI36:
 2536              		.cfi_def_cfa_offset 32
1151:Middlewares/Third_Party/FreeRTOS/Source/CMSIS_RTOS/cmsis_os.c ****   event.value.v = 0;
 2537              		.loc 1 1151 24 view .LVU640
 2538 0006 01AC     		add	r4, sp, #4
1146:Middlewares/Third_Party/FreeRTOS/Source/CMSIS_RTOS/cmsis_os.c ****   portBASE_TYPE taskWoken;
 2539              		.loc 1 1146 1 view .LVU641
 2540 0008 0500     		movs	r5, r0
 2541 000a 1600     		movs	r6, r2
 2542 000c 081E     		subs	r0, r1, #0
 2543              	.LVL187:
1151:Middlewares/Third_Party/FreeRTOS/Source/CMSIS_RTOS/cmsis_os.c ****   event.value.v = 0;
 2544              		.loc 1 1151 24 view .LVU642
 2545 000e A160     		str	r1, [r4, #8]
 2546              		.loc 1 1152 3 is_stmt 1 view .LVU643
 2547              		.loc 1 1152 17 is_stmt 0 view .LVU644
 2548 0010 6360     		str	r3, [r4, #4]
1153:Middlewares/Third_Party/FreeRTOS/Source/CMSIS_RTOS/cmsis_os.c ****   
1154:Middlewares/Third_Party/FreeRTOS/Source/CMSIS_RTOS/cmsis_os.c ****   if (queue_id == NULL) {
 2549              		.loc 1 1154 3 is_stmt 1 view .LVU645
 2550              		.loc 1 1154 6 is_stmt 0 view .LVU646
ARM GAS  /tmp/ccSFdtfu.s 			page 72


 2551 0012 25D0     		beq	.L192
1155:Middlewares/Third_Party/FreeRTOS/Source/CMSIS_RTOS/cmsis_os.c ****     event.status = osErrorParameter;
1156:Middlewares/Third_Party/FreeRTOS/Source/CMSIS_RTOS/cmsis_os.c ****     return event;
1157:Middlewares/Third_Party/FreeRTOS/Source/CMSIS_RTOS/cmsis_os.c ****   }
1158:Middlewares/Third_Party/FreeRTOS/Source/CMSIS_RTOS/cmsis_os.c ****   
1159:Middlewares/Third_Party/FreeRTOS/Source/CMSIS_RTOS/cmsis_os.c ****   taskWoken = pdFALSE;
 2552              		.loc 1 1159 3 is_stmt 1 view .LVU647
 2553              		.loc 1 1159 13 is_stmt 0 view .LVU648
 2554 0014 0093     		str	r3, [sp]
1160:Middlewares/Third_Party/FreeRTOS/Source/CMSIS_RTOS/cmsis_os.c ****   
1161:Middlewares/Third_Party/FreeRTOS/Source/CMSIS_RTOS/cmsis_os.c ****   ticks = 0;
 2555              		.loc 1 1161 3 is_stmt 1 view .LVU649
 2556              	.LVL188:
1162:Middlewares/Third_Party/FreeRTOS/Source/CMSIS_RTOS/cmsis_os.c ****   if (millisec == osWaitForever) {
 2557              		.loc 1 1162 3 view .LVU650
1163:Middlewares/Third_Party/FreeRTOS/Source/CMSIS_RTOS/cmsis_os.c ****     ticks = portMAX_DELAY;
1164:Middlewares/Third_Party/FreeRTOS/Source/CMSIS_RTOS/cmsis_os.c ****   }
1165:Middlewares/Third_Party/FreeRTOS/Source/CMSIS_RTOS/cmsis_os.c ****   else if (millisec != 0) {
1166:Middlewares/Third_Party/FreeRTOS/Source/CMSIS_RTOS/cmsis_os.c ****     ticks = millisec / portTICK_PERIOD_MS;
1167:Middlewares/Third_Party/FreeRTOS/Source/CMSIS_RTOS/cmsis_os.c ****     if (ticks == 0) {
1168:Middlewares/Third_Party/FreeRTOS/Source/CMSIS_RTOS/cmsis_os.c ****       ticks = 1;
1169:Middlewares/Third_Party/FreeRTOS/Source/CMSIS_RTOS/cmsis_os.c ****     }
1170:Middlewares/Third_Party/FreeRTOS/Source/CMSIS_RTOS/cmsis_os.c ****   }
1171:Middlewares/Third_Party/FreeRTOS/Source/CMSIS_RTOS/cmsis_os.c ****   
1172:Middlewares/Third_Party/FreeRTOS/Source/CMSIS_RTOS/cmsis_os.c ****   if (inHandlerMode()) {
 2558              		.loc 1 1172 3 view .LVU651
 2559              	.LBB216:
 2560              	.LBI216:
 173:Middlewares/Third_Party/FreeRTOS/Source/CMSIS_RTOS/cmsis_os.c **** {
 2561              		.loc 1 173 12 view .LVU652
 2562              	.LBE216:
 175:Middlewares/Third_Party/FreeRTOS/Source/CMSIS_RTOS/cmsis_os.c **** }
 2563              		.loc 1 175 3 view .LVU653
 2564              	.LBB219:
 2565              	.LBB217:
 2566              	.LBI217:
 105:Drivers/CMSIS/Include/cmsis_gcc.h **** {
 2567              		.loc 2 105 61 view .LVU654
 2568              	.LBB218:
 107:Drivers/CMSIS/Include/cmsis_gcc.h **** 
 2569              		.loc 2 107 3 view .LVU655
 109:Drivers/CMSIS/Include/cmsis_gcc.h ****   return(result);
 2570              		.loc 2 109 3 view .LVU656
 2571              		.syntax divided
 2572              	@ 109 "Drivers/CMSIS/Include/cmsis_gcc.h" 1
 2573 0016 EFF30583 		MRS r3, ipsr
 2574              	@ 0 "" 2
 2575              	.LVL189:
 2576              		.loc 2 110 3 view .LVU657
 2577              		.loc 2 110 3 is_stmt 0 view .LVU658
 2578              		.thumb
 2579              		.syntax unified
 2580              	.LBE218:
 2581              	.LBE217:
 2582              	.LBE219:
 2583              		.loc 1 1172 6 view .LVU659
 2584 001a 002B     		cmp	r3, #0
ARM GAS  /tmp/ccSFdtfu.s 			page 73


 2585 001c 0FD1     		bne	.L193
1173:Middlewares/Third_Party/FreeRTOS/Source/CMSIS_RTOS/cmsis_os.c ****     if (xQueueReceiveFromISR(queue_id, &event.value.v, &taskWoken) == pdTRUE) {
1174:Middlewares/Third_Party/FreeRTOS/Source/CMSIS_RTOS/cmsis_os.c ****       /* We have mail */
1175:Middlewares/Third_Party/FreeRTOS/Source/CMSIS_RTOS/cmsis_os.c ****       event.status = osEventMessage;
1176:Middlewares/Third_Party/FreeRTOS/Source/CMSIS_RTOS/cmsis_os.c ****     }
1177:Middlewares/Third_Party/FreeRTOS/Source/CMSIS_RTOS/cmsis_os.c ****     else {
1178:Middlewares/Third_Party/FreeRTOS/Source/CMSIS_RTOS/cmsis_os.c ****       event.status = osOK;
1179:Middlewares/Third_Party/FreeRTOS/Source/CMSIS_RTOS/cmsis_os.c ****     }
1180:Middlewares/Third_Party/FreeRTOS/Source/CMSIS_RTOS/cmsis_os.c ****     portEND_SWITCHING_ISR(taskWoken);
1181:Middlewares/Third_Party/FreeRTOS/Source/CMSIS_RTOS/cmsis_os.c ****   }
1182:Middlewares/Third_Party/FreeRTOS/Source/CMSIS_RTOS/cmsis_os.c ****   else {
1183:Middlewares/Third_Party/FreeRTOS/Source/CMSIS_RTOS/cmsis_os.c ****     if (xQueueReceive(queue_id, &event.value.v, ticks) == pdTRUE) {
 2586              		.loc 1 1183 5 is_stmt 1 view .LVU660
 2587              		.loc 1 1183 9 is_stmt 0 view .LVU661
 2588 001e 0023     		movs	r3, #0
 2589 0020 02A9     		add	r1, sp, #8
 2590              	.LVL190:
 2591              		.loc 1 1183 9 view .LVU662
 2592 0022 FFF7FEFF 		bl	xQueueGenericReceive
 2593              	.LVL191:
 2594              		.loc 1 1183 8 view .LVU663
 2595 0026 0128     		cmp	r0, #1
 2596 0028 20D0     		beq	.L194
1184:Middlewares/Third_Party/FreeRTOS/Source/CMSIS_RTOS/cmsis_os.c ****       /* We have mail */
1185:Middlewares/Third_Party/FreeRTOS/Source/CMSIS_RTOS/cmsis_os.c ****       event.status = osEventMessage;
1186:Middlewares/Third_Party/FreeRTOS/Source/CMSIS_RTOS/cmsis_os.c ****     }
1187:Middlewares/Third_Party/FreeRTOS/Source/CMSIS_RTOS/cmsis_os.c ****     else {
1188:Middlewares/Third_Party/FreeRTOS/Source/CMSIS_RTOS/cmsis_os.c ****       event.status = (ticks == 0) ? osOK : osEventTimeout;
 2597              		.loc 1 1188 7 is_stmt 1 view .LVU664
 2598              		.loc 1 1188 42 is_stmt 0 view .LVU665
 2599 002a 731E     		subs	r3, r6, #1
 2600 002c 9E41     		sbcs	r6, r6, r3
 2601              	.LVL192:
 2602              		.loc 1 1188 42 view .LVU666
 2603 002e B601     		lsls	r6, r6, #6
 2604              		.loc 1 1188 20 view .LVU667
 2605 0030 0196     		str	r6, [sp, #4]
 2606              	.L184:
1189:Middlewares/Third_Party/FreeRTOS/Source/CMSIS_RTOS/cmsis_os.c ****     }
1190:Middlewares/Third_Party/FreeRTOS/Source/CMSIS_RTOS/cmsis_os.c ****   }
1191:Middlewares/Third_Party/FreeRTOS/Source/CMSIS_RTOS/cmsis_os.c ****   
1192:Middlewares/Third_Party/FreeRTOS/Source/CMSIS_RTOS/cmsis_os.c ****   return event;
 2607              		.loc 1 1192 3 is_stmt 1 view .LVU668
 2608              		.loc 1 1192 10 is_stmt 0 view .LVU669
 2609 0032 2B00     		movs	r3, r5
 2610 0034 07CC     		ldmia	r4!, {r0, r1, r2}
 2611 0036 07C3     		stmia	r3!, {r0, r1, r2}
 2612              	.LVL193:
 2613              	.L179:
1193:Middlewares/Third_Party/FreeRTOS/Source/CMSIS_RTOS/cmsis_os.c **** }
 2614              		.loc 1 1193 1 view .LVU670
 2615 0038 2800     		movs	r0, r5
 2616 003a 04B0     		add	sp, sp, #16
 2617              		@ sp needed
 2618              	.LVL194:
 2619              		.loc 1 1193 1 view .LVU671
 2620 003c 70BD     		pop	{r4, r5, r6, pc}
ARM GAS  /tmp/ccSFdtfu.s 			page 74


 2621              	.LVL195:
 2622              	.L193:
1173:Middlewares/Third_Party/FreeRTOS/Source/CMSIS_RTOS/cmsis_os.c ****       /* We have mail */
 2623              		.loc 1 1173 5 is_stmt 1 view .LVU672
1173:Middlewares/Third_Party/FreeRTOS/Source/CMSIS_RTOS/cmsis_os.c ****       /* We have mail */
 2624              		.loc 1 1173 9 is_stmt 0 view .LVU673
 2625 003e 6A46     		mov	r2, sp
 2626              	.LVL196:
1173:Middlewares/Third_Party/FreeRTOS/Source/CMSIS_RTOS/cmsis_os.c ****       /* We have mail */
 2627              		.loc 1 1173 9 view .LVU674
 2628 0040 02A9     		add	r1, sp, #8
 2629 0042 FFF7FEFF 		bl	xQueueReceiveFromISR
 2630              	.LVL197:
1178:Middlewares/Third_Party/FreeRTOS/Source/CMSIS_RTOS/cmsis_os.c ****     }
 2631              		.loc 1 1178 20 view .LVU675
 2632 0046 0138     		subs	r0, r0, #1
 2633 0048 4342     		rsbs	r3, r0, #0
 2634 004a 5841     		adcs	r0, r0, r3
1180:Middlewares/Third_Party/FreeRTOS/Source/CMSIS_RTOS/cmsis_os.c ****   }
 2635              		.loc 1 1180 5 view .LVU676
 2636 004c 009B     		ldr	r3, [sp]
1178:Middlewares/Third_Party/FreeRTOS/Source/CMSIS_RTOS/cmsis_os.c ****     }
 2637              		.loc 1 1178 20 view .LVU677
 2638 004e 0001     		lsls	r0, r0, #4
 2639 0050 0190     		str	r0, [sp, #4]
1180:Middlewares/Third_Party/FreeRTOS/Source/CMSIS_RTOS/cmsis_os.c ****   }
 2640              		.loc 1 1180 5 is_stmt 1 view .LVU678
 2641 0052 002B     		cmp	r3, #0
 2642 0054 EDD0     		beq	.L184
1180:Middlewares/Third_Party/FreeRTOS/Source/CMSIS_RTOS/cmsis_os.c ****   }
 2643              		.loc 1 1180 5 discriminator 1 view .LVU679
 2644 0056 8022     		movs	r2, #128
 2645 0058 064B     		ldr	r3, .L195
 2646 005a 5205     		lsls	r2, r2, #21
 2647 005c 1A60     		str	r2, [r3]
 2648 005e E8E7     		b	.L184
 2649              	.LVL198:
 2650              	.L192:
1155:Middlewares/Third_Party/FreeRTOS/Source/CMSIS_RTOS/cmsis_os.c ****     return event;
 2651              		.loc 1 1155 5 view .LVU680
1155:Middlewares/Third_Party/FreeRTOS/Source/CMSIS_RTOS/cmsis_os.c ****     return event;
 2652              		.loc 1 1155 18 is_stmt 0 view .LVU681
 2653 0060 8033     		adds	r3, r3, #128
 2654 0062 0193     		str	r3, [sp, #4]
1156:Middlewares/Third_Party/FreeRTOS/Source/CMSIS_RTOS/cmsis_os.c ****   }
 2655              		.loc 1 1156 5 is_stmt 1 view .LVU682
1156:Middlewares/Third_Party/FreeRTOS/Source/CMSIS_RTOS/cmsis_os.c ****   }
 2656              		.loc 1 1156 12 is_stmt 0 view .LVU683
 2657 0064 2B00     		movs	r3, r5
 2658 0066 07CC     		ldmia	r4!, {r0, r1, r2}
 2659 0068 07C3     		stmia	r3!, {r0, r1, r2}
 2660              	.LVL199:
1156:Middlewares/Third_Party/FreeRTOS/Source/CMSIS_RTOS/cmsis_os.c ****   }
 2661              		.loc 1 1156 12 view .LVU684
 2662 006a E5E7     		b	.L179
 2663              	.LVL200:
 2664              	.L194:
ARM GAS  /tmp/ccSFdtfu.s 			page 75


1185:Middlewares/Third_Party/FreeRTOS/Source/CMSIS_RTOS/cmsis_os.c ****     }
 2665              		.loc 1 1185 7 is_stmt 1 view .LVU685
1185:Middlewares/Third_Party/FreeRTOS/Source/CMSIS_RTOS/cmsis_os.c ****     }
 2666              		.loc 1 1185 20 is_stmt 0 view .LVU686
 2667 006c 1023     		movs	r3, #16
 2668 006e 2360     		str	r3, [r4]
 2669 0070 DFE7     		b	.L184
 2670              	.L196:
 2671 0072 C046     		.align	2
 2672              	.L195:
 2673 0074 04ED00E0 		.word	-536810236
 2674              		.cfi_endproc
 2675              	.LFE70:
 2677              		.section	.text.osMailCreate,"ax",%progbits
 2678              		.align	1
 2679              		.p2align 2,,3
 2680              		.global	osMailCreate
 2681              		.syntax unified
 2682              		.code	16
 2683              		.thumb_func
 2684              		.fpu softvfp
 2686              	osMailCreate:
 2687              	.LVL201:
 2688              	.LFB71:
1194:Middlewares/Third_Party/FreeRTOS/Source/CMSIS_RTOS/cmsis_os.c **** 
1195:Middlewares/Third_Party/FreeRTOS/Source/CMSIS_RTOS/cmsis_os.c **** #endif     /* Use Message Queues */
1196:Middlewares/Third_Party/FreeRTOS/Source/CMSIS_RTOS/cmsis_os.c **** 
1197:Middlewares/Third_Party/FreeRTOS/Source/CMSIS_RTOS/cmsis_os.c **** /********************   Mail Queue Management Functions  ***********************/
1198:Middlewares/Third_Party/FreeRTOS/Source/CMSIS_RTOS/cmsis_os.c **** #if (defined (osFeature_MailQ)  &&  (osFeature_MailQ != 0))  /* Use Mail Queues */
1199:Middlewares/Third_Party/FreeRTOS/Source/CMSIS_RTOS/cmsis_os.c **** 
1200:Middlewares/Third_Party/FreeRTOS/Source/CMSIS_RTOS/cmsis_os.c **** 
1201:Middlewares/Third_Party/FreeRTOS/Source/CMSIS_RTOS/cmsis_os.c **** typedef struct os_mailQ_cb {
1202:Middlewares/Third_Party/FreeRTOS/Source/CMSIS_RTOS/cmsis_os.c ****   const osMailQDef_t *queue_def;
1203:Middlewares/Third_Party/FreeRTOS/Source/CMSIS_RTOS/cmsis_os.c ****   QueueHandle_t handle;
1204:Middlewares/Third_Party/FreeRTOS/Source/CMSIS_RTOS/cmsis_os.c ****   osPoolId pool;
1205:Middlewares/Third_Party/FreeRTOS/Source/CMSIS_RTOS/cmsis_os.c **** } os_mailQ_cb_t;
1206:Middlewares/Third_Party/FreeRTOS/Source/CMSIS_RTOS/cmsis_os.c **** 
1207:Middlewares/Third_Party/FreeRTOS/Source/CMSIS_RTOS/cmsis_os.c **** /**
1208:Middlewares/Third_Party/FreeRTOS/Source/CMSIS_RTOS/cmsis_os.c **** * @brief Create and Initialize mail queue
1209:Middlewares/Third_Party/FreeRTOS/Source/CMSIS_RTOS/cmsis_os.c **** * @param  queue_def     reference to the mail queue definition obtain with \ref osMailQ
1210:Middlewares/Third_Party/FreeRTOS/Source/CMSIS_RTOS/cmsis_os.c **** * @param   thread_id     thread ID (obtained by \ref osThreadCreate or \ref osThreadGetId) or NULL.
1211:Middlewares/Third_Party/FreeRTOS/Source/CMSIS_RTOS/cmsis_os.c **** * @retval mail queue ID for reference by other functions or NULL in case of error.
1212:Middlewares/Third_Party/FreeRTOS/Source/CMSIS_RTOS/cmsis_os.c **** * @note   MUST REMAIN UNCHANGED: \b osMailCreate shall be consistent in every CMSIS-RTOS.
1213:Middlewares/Third_Party/FreeRTOS/Source/CMSIS_RTOS/cmsis_os.c **** */
1214:Middlewares/Third_Party/FreeRTOS/Source/CMSIS_RTOS/cmsis_os.c **** osMailQId osMailCreate (const osMailQDef_t *queue_def, osThreadId thread_id)
1215:Middlewares/Third_Party/FreeRTOS/Source/CMSIS_RTOS/cmsis_os.c **** {
 2689              		.loc 1 1215 1 is_stmt 1 view -0
 2690              		.cfi_startproc
 2691              		@ args = 0, pretend = 0, frame = 16
 2692              		@ frame_needed = 0, uses_anonymous_args = 0
1216:Middlewares/Third_Party/FreeRTOS/Source/CMSIS_RTOS/cmsis_os.c **** #if (configSUPPORT_DYNAMIC_ALLOCATION == 1)
1217:Middlewares/Third_Party/FreeRTOS/Source/CMSIS_RTOS/cmsis_os.c ****   (void) thread_id;
 2693              		.loc 1 1217 3 view .LVU688
1218:Middlewares/Third_Party/FreeRTOS/Source/CMSIS_RTOS/cmsis_os.c ****   
1219:Middlewares/Third_Party/FreeRTOS/Source/CMSIS_RTOS/cmsis_os.c ****   osPoolDef_t pool_def = {queue_def->queue_sz, queue_def->item_sz, NULL};
 2694              		.loc 1 1219 3 view .LVU689
1215:Middlewares/Third_Party/FreeRTOS/Source/CMSIS_RTOS/cmsis_os.c **** #if (configSUPPORT_DYNAMIC_ALLOCATION == 1)
ARM GAS  /tmp/ccSFdtfu.s 			page 76


 2695              		.loc 1 1215 1 is_stmt 0 view .LVU690
 2696 0000 30B5     		push	{r4, r5, lr}
 2697              	.LCFI37:
 2698              		.cfi_def_cfa_offset 12
 2699              		.cfi_offset 4, -12
 2700              		.cfi_offset 5, -8
 2701              		.cfi_offset 14, -4
 2702              		.loc 1 1219 15 view .LVU691
 2703 0002 0368     		ldr	r3, [r0]
1215:Middlewares/Third_Party/FreeRTOS/Source/CMSIS_RTOS/cmsis_os.c **** #if (configSUPPORT_DYNAMIC_ALLOCATION == 1)
 2704              		.loc 1 1215 1 view .LVU692
 2705 0004 85B0     		sub	sp, sp, #20
 2706              	.LCFI38:
 2707              		.cfi_def_cfa_offset 32
 2708              		.loc 1 1219 15 view .LVU693
 2709 0006 0193     		str	r3, [sp, #4]
 2710 0008 4368     		ldr	r3, [r0, #4]
1220:Middlewares/Third_Party/FreeRTOS/Source/CMSIS_RTOS/cmsis_os.c ****   
1221:Middlewares/Third_Party/FreeRTOS/Source/CMSIS_RTOS/cmsis_os.c ****   /* Create a mail queue control block */
1222:Middlewares/Third_Party/FreeRTOS/Source/CMSIS_RTOS/cmsis_os.c **** 
1223:Middlewares/Third_Party/FreeRTOS/Source/CMSIS_RTOS/cmsis_os.c ****   *(queue_def->cb) = pvPortMalloc(sizeof(struct os_mailQ_cb));
 2711              		.loc 1 1223 14 view .LVU694
 2712 000a 8568     		ldr	r5, [r0, #8]
1219:Middlewares/Third_Party/FreeRTOS/Source/CMSIS_RTOS/cmsis_os.c ****   
 2713              		.loc 1 1219 15 view .LVU695
 2714 000c 0293     		str	r3, [sp, #8]
 2715 000e 0023     		movs	r3, #0
1215:Middlewares/Third_Party/FreeRTOS/Source/CMSIS_RTOS/cmsis_os.c **** #if (configSUPPORT_DYNAMIC_ALLOCATION == 1)
 2716              		.loc 1 1215 1 view .LVU696
 2717 0010 0400     		movs	r4, r0
 2718              		.loc 1 1223 22 view .LVU697
 2719 0012 0C20     		movs	r0, #12
 2720              	.LVL202:
1219:Middlewares/Third_Party/FreeRTOS/Source/CMSIS_RTOS/cmsis_os.c ****   
 2721              		.loc 1 1219 15 view .LVU698
 2722 0014 0393     		str	r3, [sp, #12]
 2723              		.loc 1 1223 3 is_stmt 1 view .LVU699
 2724              		.loc 1 1223 22 is_stmt 0 view .LVU700
 2725 0016 FFF7FEFF 		bl	pvPortMalloc
 2726              	.LVL203:
1224:Middlewares/Third_Party/FreeRTOS/Source/CMSIS_RTOS/cmsis_os.c **** 
1225:Middlewares/Third_Party/FreeRTOS/Source/CMSIS_RTOS/cmsis_os.c ****   if (*(queue_def->cb) == NULL) {
 2727              		.loc 1 1225 7 view .LVU701
 2728 001a A368     		ldr	r3, [r4, #8]
1223:Middlewares/Third_Party/FreeRTOS/Source/CMSIS_RTOS/cmsis_os.c **** 
 2729              		.loc 1 1223 20 view .LVU702
 2730 001c 2860     		str	r0, [r5]
 2731              		.loc 1 1225 3 is_stmt 1 view .LVU703
 2732              		.loc 1 1225 7 is_stmt 0 view .LVU704
 2733 001e 1D68     		ldr	r5, [r3]
 2734              		.loc 1 1225 6 view .LVU705
 2735 0020 002D     		cmp	r5, #0
 2736 0022 16D0     		beq	.L200
1226:Middlewares/Third_Party/FreeRTOS/Source/CMSIS_RTOS/cmsis_os.c ****     return NULL;
1227:Middlewares/Third_Party/FreeRTOS/Source/CMSIS_RTOS/cmsis_os.c ****   }
1228:Middlewares/Third_Party/FreeRTOS/Source/CMSIS_RTOS/cmsis_os.c ****   (*(queue_def->cb))->queue_def = queue_def;
 2737              		.loc 1 1228 3 is_stmt 1 view .LVU706
ARM GAS  /tmp/ccSFdtfu.s 			page 77


 2738              		.loc 1 1228 33 is_stmt 0 view .LVU707
 2739 0024 2C60     		str	r4, [r5]
1229:Middlewares/Third_Party/FreeRTOS/Source/CMSIS_RTOS/cmsis_os.c ****   
1230:Middlewares/Third_Party/FreeRTOS/Source/CMSIS_RTOS/cmsis_os.c ****   /* Create a queue in FreeRTOS */
1231:Middlewares/Third_Party/FreeRTOS/Source/CMSIS_RTOS/cmsis_os.c ****   (*(queue_def->cb))->handle = xQueueCreate(queue_def->queue_sz, sizeof(void *));
 2740              		.loc 1 1231 3 is_stmt 1 view .LVU708
 2741              		.loc 1 1231 32 is_stmt 0 view .LVU709
 2742 0026 0022     		movs	r2, #0
 2743 0028 0421     		movs	r1, #4
 2744 002a 2068     		ldr	r0, [r4]
 2745 002c FFF7FEFF 		bl	xQueueGenericCreate
 2746              	.LVL204:
1232:Middlewares/Third_Party/FreeRTOS/Source/CMSIS_RTOS/cmsis_os.c **** 
1233:Middlewares/Third_Party/FreeRTOS/Source/CMSIS_RTOS/cmsis_os.c **** 
1234:Middlewares/Third_Party/FreeRTOS/Source/CMSIS_RTOS/cmsis_os.c ****   if ((*(queue_def->cb))->handle == NULL) {
 2747              		.loc 1 1234 8 view .LVU710
 2748 0030 A368     		ldr	r3, [r4, #8]
1231:Middlewares/Third_Party/FreeRTOS/Source/CMSIS_RTOS/cmsis_os.c **** 
 2749              		.loc 1 1231 30 view .LVU711
 2750 0032 6860     		str	r0, [r5, #4]
 2751              		.loc 1 1234 3 is_stmt 1 view .LVU712
 2752              		.loc 1 1234 8 is_stmt 0 view .LVU713
 2753 0034 1D68     		ldr	r5, [r3]
 2754              		.loc 1 1234 6 view .LVU714
 2755 0036 6B68     		ldr	r3, [r5, #4]
 2756 0038 002B     		cmp	r3, #0
 2757 003a 0CD0     		beq	.L201
1235:Middlewares/Third_Party/FreeRTOS/Source/CMSIS_RTOS/cmsis_os.c ****     vPortFree(*(queue_def->cb));
1236:Middlewares/Third_Party/FreeRTOS/Source/CMSIS_RTOS/cmsis_os.c ****     return NULL;
1237:Middlewares/Third_Party/FreeRTOS/Source/CMSIS_RTOS/cmsis_os.c ****   }
1238:Middlewares/Third_Party/FreeRTOS/Source/CMSIS_RTOS/cmsis_os.c ****   
1239:Middlewares/Third_Party/FreeRTOS/Source/CMSIS_RTOS/cmsis_os.c ****   /* Create a mail pool */
1240:Middlewares/Third_Party/FreeRTOS/Source/CMSIS_RTOS/cmsis_os.c ****   (*(queue_def->cb))->pool = osPoolCreate(&pool_def);
 2758              		.loc 1 1240 3 is_stmt 1 view .LVU715
 2759              		.loc 1 1240 30 is_stmt 0 view .LVU716
 2760 003c 01A8     		add	r0, sp, #4
 2761 003e FFF7FEFF 		bl	osPoolCreate
 2762              	.LVL205:
1241:Middlewares/Third_Party/FreeRTOS/Source/CMSIS_RTOS/cmsis_os.c ****   if ((*(queue_def->cb))->pool == NULL) {
 2763              		.loc 1 1241 8 view .LVU717
 2764 0042 A368     		ldr	r3, [r4, #8]
1240:Middlewares/Third_Party/FreeRTOS/Source/CMSIS_RTOS/cmsis_os.c ****   if ((*(queue_def->cb))->pool == NULL) {
 2765              		.loc 1 1240 28 view .LVU718
 2766 0044 A860     		str	r0, [r5, #8]
 2767              		.loc 1 1241 3 is_stmt 1 view .LVU719
 2768              		.loc 1 1241 8 is_stmt 0 view .LVU720
 2769 0046 1868     		ldr	r0, [r3]
 2770              		.loc 1 1241 6 view .LVU721
 2771 0048 8368     		ldr	r3, [r0, #8]
 2772 004a 002B     		cmp	r3, #0
 2773 004c 08D0     		beq	.L202
 2774              	.L197:
1242:Middlewares/Third_Party/FreeRTOS/Source/CMSIS_RTOS/cmsis_os.c ****     //TODO: Delete queue. How to do it in FreeRTOS?
1243:Middlewares/Third_Party/FreeRTOS/Source/CMSIS_RTOS/cmsis_os.c ****     vPortFree(*(queue_def->cb));
1244:Middlewares/Third_Party/FreeRTOS/Source/CMSIS_RTOS/cmsis_os.c ****     return NULL;
1245:Middlewares/Third_Party/FreeRTOS/Source/CMSIS_RTOS/cmsis_os.c ****   }
1246:Middlewares/Third_Party/FreeRTOS/Source/CMSIS_RTOS/cmsis_os.c ****   
ARM GAS  /tmp/ccSFdtfu.s 			page 78


1247:Middlewares/Third_Party/FreeRTOS/Source/CMSIS_RTOS/cmsis_os.c ****   return *(queue_def->cb);
1248:Middlewares/Third_Party/FreeRTOS/Source/CMSIS_RTOS/cmsis_os.c **** #else
1249:Middlewares/Third_Party/FreeRTOS/Source/CMSIS_RTOS/cmsis_os.c ****   return NULL;
1250:Middlewares/Third_Party/FreeRTOS/Source/CMSIS_RTOS/cmsis_os.c **** #endif
1251:Middlewares/Third_Party/FreeRTOS/Source/CMSIS_RTOS/cmsis_os.c **** }
 2775              		.loc 1 1251 1 view .LVU722
 2776 004e 05B0     		add	sp, sp, #20
 2777              		@ sp needed
 2778              	.LVL206:
 2779              		.loc 1 1251 1 view .LVU723
 2780 0050 30BD     		pop	{r4, r5, pc}
 2781              	.LVL207:
 2782              	.L200:
1226:Middlewares/Third_Party/FreeRTOS/Source/CMSIS_RTOS/cmsis_os.c ****   }
 2783              		.loc 1 1226 12 view .LVU724
 2784 0052 0020     		movs	r0, #0
 2785 0054 FBE7     		b	.L197
 2786              	.L201:
1235:Middlewares/Third_Party/FreeRTOS/Source/CMSIS_RTOS/cmsis_os.c ****     return NULL;
 2787              		.loc 1 1235 5 is_stmt 1 view .LVU725
 2788 0056 2800     		movs	r0, r5
 2789 0058 FFF7FEFF 		bl	vPortFree
 2790              	.LVL208:
1236:Middlewares/Third_Party/FreeRTOS/Source/CMSIS_RTOS/cmsis_os.c ****   }
 2791              		.loc 1 1236 5 view .LVU726
1236:Middlewares/Third_Party/FreeRTOS/Source/CMSIS_RTOS/cmsis_os.c ****   }
 2792              		.loc 1 1236 12 is_stmt 0 view .LVU727
 2793 005c 0020     		movs	r0, #0
 2794 005e F6E7     		b	.L197
 2795              	.L202:
1243:Middlewares/Third_Party/FreeRTOS/Source/CMSIS_RTOS/cmsis_os.c ****     return NULL;
 2796              		.loc 1 1243 5 is_stmt 1 view .LVU728
 2797 0060 FFF7FEFF 		bl	vPortFree
 2798              	.LVL209:
1244:Middlewares/Third_Party/FreeRTOS/Source/CMSIS_RTOS/cmsis_os.c ****   }
 2799              		.loc 1 1244 5 view .LVU729
1244:Middlewares/Third_Party/FreeRTOS/Source/CMSIS_RTOS/cmsis_os.c ****   }
 2800              		.loc 1 1244 12 is_stmt 0 view .LVU730
 2801 0064 0020     		movs	r0, #0
 2802 0066 F2E7     		b	.L197
 2803              		.cfi_endproc
 2804              	.LFE71:
 2806              		.section	.text.osMailAlloc,"ax",%progbits
 2807              		.align	1
 2808              		.p2align 2,,3
 2809              		.global	osMailAlloc
 2810              		.syntax unified
 2811              		.code	16
 2812              		.thumb_func
 2813              		.fpu softvfp
 2815              	osMailAlloc:
 2816              	.LVL210:
 2817              	.LFB72:
1252:Middlewares/Third_Party/FreeRTOS/Source/CMSIS_RTOS/cmsis_os.c **** 
1253:Middlewares/Third_Party/FreeRTOS/Source/CMSIS_RTOS/cmsis_os.c **** /**
1254:Middlewares/Third_Party/FreeRTOS/Source/CMSIS_RTOS/cmsis_os.c **** * @brief Allocate a memory block from a mail
1255:Middlewares/Third_Party/FreeRTOS/Source/CMSIS_RTOS/cmsis_os.c **** * @param  queue_id      mail queue ID obtained with \ref osMailCreate.
ARM GAS  /tmp/ccSFdtfu.s 			page 79


1256:Middlewares/Third_Party/FreeRTOS/Source/CMSIS_RTOS/cmsis_os.c **** * @param  millisec      timeout value or 0 in case of no time-out.
1257:Middlewares/Third_Party/FreeRTOS/Source/CMSIS_RTOS/cmsis_os.c **** * @retval pointer to memory block that can be filled with mail or NULL in case error.
1258:Middlewares/Third_Party/FreeRTOS/Source/CMSIS_RTOS/cmsis_os.c **** * @note   MUST REMAIN UNCHANGED: \b osMailAlloc shall be consistent in every CMSIS-RTOS.
1259:Middlewares/Third_Party/FreeRTOS/Source/CMSIS_RTOS/cmsis_os.c **** */
1260:Middlewares/Third_Party/FreeRTOS/Source/CMSIS_RTOS/cmsis_os.c **** void *osMailAlloc (osMailQId queue_id, uint32_t millisec)
1261:Middlewares/Third_Party/FreeRTOS/Source/CMSIS_RTOS/cmsis_os.c **** {
 2818              		.loc 1 1261 1 is_stmt 1 view -0
 2819              		.cfi_startproc
 2820              		@ args = 0, pretend = 0, frame = 0
 2821              		@ frame_needed = 0, uses_anonymous_args = 0
1262:Middlewares/Third_Party/FreeRTOS/Source/CMSIS_RTOS/cmsis_os.c ****   (void) millisec;
 2822              		.loc 1 1262 3 view .LVU732
1263:Middlewares/Third_Party/FreeRTOS/Source/CMSIS_RTOS/cmsis_os.c ****   void *p;
 2823              		.loc 1 1263 3 view .LVU733
1264:Middlewares/Third_Party/FreeRTOS/Source/CMSIS_RTOS/cmsis_os.c ****   
1265:Middlewares/Third_Party/FreeRTOS/Source/CMSIS_RTOS/cmsis_os.c ****   
1266:Middlewares/Third_Party/FreeRTOS/Source/CMSIS_RTOS/cmsis_os.c ****   if (queue_id == NULL) {
 2824              		.loc 1 1266 3 view .LVU734
1261:Middlewares/Third_Party/FreeRTOS/Source/CMSIS_RTOS/cmsis_os.c ****   (void) millisec;
 2825              		.loc 1 1261 1 is_stmt 0 view .LVU735
 2826 0000 F8B5     		push	{r3, r4, r5, r6, r7, lr}
 2827              	.LCFI39:
 2828              		.cfi_def_cfa_offset 24
 2829              		.cfi_offset 3, -24
 2830              		.cfi_offset 4, -20
 2831              		.cfi_offset 5, -16
 2832              		.cfi_offset 6, -12
 2833              		.cfi_offset 7, -8
 2834              		.cfi_offset 14, -4
 2835              		.loc 1 1266 6 view .LVU736
 2836 0002 0028     		cmp	r0, #0
 2837 0004 3AD0     		beq	.L212
1267:Middlewares/Third_Party/FreeRTOS/Source/CMSIS_RTOS/cmsis_os.c ****     return NULL;
1268:Middlewares/Third_Party/FreeRTOS/Source/CMSIS_RTOS/cmsis_os.c ****   }
1269:Middlewares/Third_Party/FreeRTOS/Source/CMSIS_RTOS/cmsis_os.c ****   
1270:Middlewares/Third_Party/FreeRTOS/Source/CMSIS_RTOS/cmsis_os.c ****   p = osPoolAlloc(queue_id->pool);
 2838              		.loc 1 1270 3 is_stmt 1 view .LVU737
 2839              		.loc 1 1270 7 is_stmt 0 view .LVU738
 2840 0006 8468     		ldr	r4, [r0, #8]
 2841              	.LVL211:
 2842              	.LBB228:
 2843              	.LBI228:
 979:Middlewares/Third_Party/FreeRTOS/Source/CMSIS_RTOS/cmsis_os.c **** {
 2844              		.loc 1 979 7 is_stmt 1 view .LVU739
 2845              	.LBB229:
 981:Middlewares/Third_Party/FreeRTOS/Source/CMSIS_RTOS/cmsis_os.c ****   void *p = NULL;
 2846              		.loc 1 981 3 view .LVU740
 982:Middlewares/Third_Party/FreeRTOS/Source/CMSIS_RTOS/cmsis_os.c ****   uint32_t i;
 2847              		.loc 1 982 3 view .LVU741
 983:Middlewares/Third_Party/FreeRTOS/Source/CMSIS_RTOS/cmsis_os.c ****   uint32_t index;
 2848              		.loc 1 983 3 view .LVU742
 984:Middlewares/Third_Party/FreeRTOS/Source/CMSIS_RTOS/cmsis_os.c ****   
 2849              		.loc 1 984 3 view .LVU743
 986:Middlewares/Third_Party/FreeRTOS/Source/CMSIS_RTOS/cmsis_os.c ****     dummy = portSET_INTERRUPT_MASK_FROM_ISR();
 2850              		.loc 1 986 3 view .LVU744
 2851              	.LBB230:
 2852              	.LBI230:
ARM GAS  /tmp/ccSFdtfu.s 			page 80


 173:Middlewares/Third_Party/FreeRTOS/Source/CMSIS_RTOS/cmsis_os.c **** {
 2853              		.loc 1 173 12 view .LVU745
 2854              	.LBE230:
 2855              	.LBE229:
 2856              	.LBE228:
 175:Middlewares/Third_Party/FreeRTOS/Source/CMSIS_RTOS/cmsis_os.c **** }
 2857              		.loc 1 175 3 view .LVU746
 2858              	.LBB245:
 2859              	.LBB242:
 2860              	.LBB233:
 2861              	.LBB231:
 2862              	.LBI231:
 105:Drivers/CMSIS/Include/cmsis_gcc.h **** {
 2863              		.loc 2 105 61 view .LVU747
 2864              	.LBB232:
 107:Drivers/CMSIS/Include/cmsis_gcc.h **** 
 2865              		.loc 2 107 3 view .LVU748
 109:Drivers/CMSIS/Include/cmsis_gcc.h ****   return(result);
 2866              		.loc 2 109 3 view .LVU749
 2867              		.syntax divided
 2868              	@ 109 "Drivers/CMSIS/Include/cmsis_gcc.h" 1
 2869 0008 EFF30587 		MRS r7, ipsr
 2870              	@ 0 "" 2
 2871              	.LVL212:
 2872              		.loc 2 110 3 view .LVU750
 2873              		.loc 2 110 3 is_stmt 0 view .LVU751
 2874              		.thumb
 2875              		.syntax unified
 2876              	.LBE232:
 2877              	.LBE231:
 2878              	.LBE233:
 986:Middlewares/Third_Party/FreeRTOS/Source/CMSIS_RTOS/cmsis_os.c ****     dummy = portSET_INTERRUPT_MASK_FROM_ISR();
 2879              		.loc 1 986 6 view .LVU752
 2880 000c 002F     		cmp	r7, #0
 2881 000e 27D1     		bne	.L216
 990:Middlewares/Third_Party/FreeRTOS/Source/CMSIS_RTOS/cmsis_os.c ****   }
 2882              		.loc 1 990 5 is_stmt 1 view .LVU753
 2883 0010 FFF7FEFF 		bl	vPortEnterCritical
 2884              	.LVL213:
 2885              	.L206:
 993:Middlewares/Third_Party/FreeRTOS/Source/CMSIS_RTOS/cmsis_os.c ****     index = pool_id->currentIndex + i;
 2886              		.loc 1 993 3 view .LVU754
 993:Middlewares/Third_Party/FreeRTOS/Source/CMSIS_RTOS/cmsis_os.c ****     index = pool_id->currentIndex + i;
 2887              		.loc 1 993 26 is_stmt 0 view .LVU755
 2888 0014 A268     		ldr	r2, [r4, #8]
 993:Middlewares/Third_Party/FreeRTOS/Source/CMSIS_RTOS/cmsis_os.c ****     index = pool_id->currentIndex + i;
 2889              		.loc 1 993 3 view .LVU756
 2890 0016 002A     		cmp	r2, #0
 2891 0018 26D0     		beq	.L213
 994:Middlewares/Third_Party/FreeRTOS/Source/CMSIS_RTOS/cmsis_os.c ****     if (index >= pool_id->pool_sz) {
 2892              		.loc 1 994 20 view .LVU757
 2893 001a 2369     		ldr	r3, [r4, #16]
 999:Middlewares/Third_Party/FreeRTOS/Source/CMSIS_RTOS/cmsis_os.c ****       pool_id->markers[index] = 1;
 2894              		.loc 1 999 16 view .LVU758
 2895 001c 6068     		ldr	r0, [r4, #4]
 2896 001e 9918     		adds	r1, r3, r2
 2897 0020 8C46     		mov	ip, r1
ARM GAS  /tmp/ccSFdtfu.s 			page 81


 2898 0022 07E0     		b	.L210
 2899              	.LVL214:
 2900              	.L218:
 999:Middlewares/Third_Party/FreeRTOS/Source/CMSIS_RTOS/cmsis_os.c ****       pool_id->markers[index] = 1;
 2901              		.loc 1 999 16 view .LVU759
 2902 0024 C118     		adds	r1, r0, r3
 999:Middlewares/Third_Party/FreeRTOS/Source/CMSIS_RTOS/cmsis_os.c ****       pool_id->markers[index] = 1;
 2903              		.loc 1 999 8 view .LVU760
 2904 0026 0E78     		ldrb	r6, [r1]
 995:Middlewares/Third_Party/FreeRTOS/Source/CMSIS_RTOS/cmsis_os.c ****       index = 0;
 2905              		.loc 1 995 8 view .LVU761
 2906 0028 1D00     		movs	r5, r3
 2907              	.LVL215:
 999:Middlewares/Third_Party/FreeRTOS/Source/CMSIS_RTOS/cmsis_os.c ****       pool_id->markers[index] = 1;
 2908              		.loc 1 999 5 is_stmt 1 view .LVU762
 999:Middlewares/Third_Party/FreeRTOS/Source/CMSIS_RTOS/cmsis_os.c ****       pool_id->markers[index] = 1;
 2909              		.loc 1 999 8 is_stmt 0 view .LVU763
 2910 002a 002E     		cmp	r6, #0
 2911 002c 09D0     		beq	.L217
 2912              	.L209:
 2913              	.LVL216:
 999:Middlewares/Third_Party/FreeRTOS/Source/CMSIS_RTOS/cmsis_os.c ****       pool_id->markers[index] = 1;
 2914              		.loc 1 999 8 view .LVU764
 2915 002e 0133     		adds	r3, r3, #1
 993:Middlewares/Third_Party/FreeRTOS/Source/CMSIS_RTOS/cmsis_os.c ****     index = pool_id->currentIndex + i;
 2916              		.loc 1 993 3 view .LVU765
 2917 0030 9C45     		cmp	ip, r3
 2918 0032 19D0     		beq	.L213
 2919              	.LVL217:
 2920              	.L210:
 994:Middlewares/Third_Party/FreeRTOS/Source/CMSIS_RTOS/cmsis_os.c ****     if (index >= pool_id->pool_sz) {
 2921              		.loc 1 994 5 is_stmt 1 view .LVU766
 995:Middlewares/Third_Party/FreeRTOS/Source/CMSIS_RTOS/cmsis_os.c ****       index = 0;
 2922              		.loc 1 995 5 view .LVU767
 995:Middlewares/Third_Party/FreeRTOS/Source/CMSIS_RTOS/cmsis_os.c ****       index = 0;
 2923              		.loc 1 995 8 is_stmt 0 view .LVU768
 2924 0034 9A42     		cmp	r2, r3
 2925 0036 F5D8     		bhi	.L218
 2926 0038 0100     		movs	r1, r0
 999:Middlewares/Third_Party/FreeRTOS/Source/CMSIS_RTOS/cmsis_os.c ****       pool_id->markers[index] = 1;
 2927              		.loc 1 999 8 view .LVU769
 2928 003a 0E78     		ldrb	r6, [r1]
 996:Middlewares/Third_Party/FreeRTOS/Source/CMSIS_RTOS/cmsis_os.c ****     }
 2929              		.loc 1 996 13 view .LVU770
 2930 003c 0025     		movs	r5, #0
 2931              	.LVL218:
 999:Middlewares/Third_Party/FreeRTOS/Source/CMSIS_RTOS/cmsis_os.c ****       pool_id->markers[index] = 1;
 2932              		.loc 1 999 5 is_stmt 1 view .LVU771
 999:Middlewares/Third_Party/FreeRTOS/Source/CMSIS_RTOS/cmsis_os.c ****       pool_id->markers[index] = 1;
 2933              		.loc 1 999 8 is_stmt 0 view .LVU772
 2934 003e 002E     		cmp	r6, #0
 2935 0040 F5D1     		bne	.L209
 2936              	.L217:
1000:Middlewares/Third_Party/FreeRTOS/Source/CMSIS_RTOS/cmsis_os.c ****       p = (void *)((uint32_t)(pool_id->pool) + (index * pool_id->item_sz));
 2937              		.loc 1 1000 7 is_stmt 1 view .LVU773
1000:Middlewares/Third_Party/FreeRTOS/Source/CMSIS_RTOS/cmsis_os.c ****       p = (void *)((uint32_t)(pool_id->pool) + (index * pool_id->item_sz));
 2938              		.loc 1 1000 31 is_stmt 0 view .LVU774
ARM GAS  /tmp/ccSFdtfu.s 			page 82


 2939 0042 0123     		movs	r3, #1
 2940 0044 0B70     		strb	r3, [r1]
1001:Middlewares/Third_Party/FreeRTOS/Source/CMSIS_RTOS/cmsis_os.c ****       pool_id->currentIndex = index;
 2941              		.loc 1 1001 7 is_stmt 1 view .LVU775
1001:Middlewares/Third_Party/FreeRTOS/Source/CMSIS_RTOS/cmsis_os.c ****       pool_id->currentIndex = index;
 2942              		.loc 1 1001 46 is_stmt 0 view .LVU776
 2943 0046 2368     		ldr	r3, [r4]
1001:Middlewares/Third_Party/FreeRTOS/Source/CMSIS_RTOS/cmsis_os.c ****       pool_id->currentIndex = index;
 2944              		.loc 1 1001 55 view .LVU777
 2945 0048 E668     		ldr	r6, [r4, #12]
1001:Middlewares/Third_Party/FreeRTOS/Source/CMSIS_RTOS/cmsis_os.c ****       pool_id->currentIndex = index;
 2946              		.loc 1 1001 46 view .LVU778
 2947 004a 9C46     		mov	ip, r3
1001:Middlewares/Third_Party/FreeRTOS/Source/CMSIS_RTOS/cmsis_os.c ****       pool_id->currentIndex = index;
 2948              		.loc 1 1001 55 view .LVU779
 2949 004c 6E43     		muls	r6, r5
1002:Middlewares/Third_Party/FreeRTOS/Source/CMSIS_RTOS/cmsis_os.c ****       break;
 2950              		.loc 1 1002 29 view .LVU780
 2951 004e 2561     		str	r5, [r4, #16]
1001:Middlewares/Third_Party/FreeRTOS/Source/CMSIS_RTOS/cmsis_os.c ****       pool_id->currentIndex = index;
 2952              		.loc 1 1001 46 view .LVU781
 2953 0050 6644     		add	r6, r6, ip
 2954              	.LVL219:
1002:Middlewares/Third_Party/FreeRTOS/Source/CMSIS_RTOS/cmsis_os.c ****       break;
 2955              		.loc 1 1002 7 is_stmt 1 view .LVU782
1003:Middlewares/Third_Party/FreeRTOS/Source/CMSIS_RTOS/cmsis_os.c ****     }
 2956              		.loc 1 1003 7 view .LVU783
1007:Middlewares/Third_Party/FreeRTOS/Source/CMSIS_RTOS/cmsis_os.c ****     portCLEAR_INTERRUPT_MASK_FROM_ISR(dummy);
 2957              		.loc 1 1007 3 view .LVU784
 2958              	.LBB234:
 2959              	.LBI234:
 173:Middlewares/Third_Party/FreeRTOS/Source/CMSIS_RTOS/cmsis_os.c **** {
 2960              		.loc 1 173 12 view .LVU785
 2961              	.LBE234:
 2962              	.LBE242:
 2963              	.LBE245:
 175:Middlewares/Third_Party/FreeRTOS/Source/CMSIS_RTOS/cmsis_os.c **** }
 2964              		.loc 1 175 3 view .LVU786
 2965              	.LBB246:
 2966              	.LBB243:
 2967              	.LBB239:
 2968              	.LBB235:
 2969              	.LBI235:
 105:Drivers/CMSIS/Include/cmsis_gcc.h **** {
 2970              		.loc 2 105 61 view .LVU787
 2971              	.LBB236:
 107:Drivers/CMSIS/Include/cmsis_gcc.h **** 
 2972              		.loc 2 107 3 view .LVU788
 109:Drivers/CMSIS/Include/cmsis_gcc.h ****   return(result);
 2973              		.loc 2 109 3 view .LVU789
 2974              		.syntax divided
 2975              	@ 109 "Drivers/CMSIS/Include/cmsis_gcc.h" 1
 2976 0052 EFF30583 		MRS r3, ipsr
 2977              	@ 0 "" 2
 2978              	.LVL220:
 2979              		.loc 2 110 3 view .LVU790
 2980              		.loc 2 110 3 is_stmt 0 view .LVU791
ARM GAS  /tmp/ccSFdtfu.s 			page 83


 2981              		.thumb
 2982              		.syntax unified
 2983              	.LBE236:
 2984              	.LBE235:
 2985              	.LBE239:
1007:Middlewares/Third_Party/FreeRTOS/Source/CMSIS_RTOS/cmsis_os.c ****     portCLEAR_INTERRUPT_MASK_FROM_ISR(dummy);
 2986              		.loc 1 1007 6 view .LVU792
 2987 0056 002B     		cmp	r3, #0
 2988 0058 0BD1     		bne	.L219
 2989              	.LVL221:
 2990              	.L211:
1011:Middlewares/Third_Party/FreeRTOS/Source/CMSIS_RTOS/cmsis_os.c ****   }
 2991              		.loc 1 1011 5 is_stmt 1 view .LVU793
 2992 005a FFF7FEFF 		bl	vPortExitCritical
 2993              	.LVL222:
 2994 005e 0BE0     		b	.L203
 2995              	.LVL223:
 2996              	.L216:
 987:Middlewares/Third_Party/FreeRTOS/Source/CMSIS_RTOS/cmsis_os.c ****   }
 2997              		.loc 1 987 5 view .LVU794
 987:Middlewares/Third_Party/FreeRTOS/Source/CMSIS_RTOS/cmsis_os.c ****   }
 2998              		.loc 1 987 13 is_stmt 0 view .LVU795
 2999 0060 FFF7FEFF 		bl	ulSetInterruptMaskFromISR
 3000              	.LVL224:
 987:Middlewares/Third_Party/FreeRTOS/Source/CMSIS_RTOS/cmsis_os.c ****   }
 3001              		.loc 1 987 13 view .LVU796
 3002 0064 0700     		movs	r7, r0
 3003              	.LVL225:
 987:Middlewares/Third_Party/FreeRTOS/Source/CMSIS_RTOS/cmsis_os.c ****   }
 3004              		.loc 1 987 13 view .LVU797
 3005 0066 D5E7     		b	.L206
 3006              	.LVL226:
 3007              	.L213:
 982:Middlewares/Third_Party/FreeRTOS/Source/CMSIS_RTOS/cmsis_os.c ****   uint32_t i;
 3008              		.loc 1 982 9 view .LVU798
 3009 0068 0026     		movs	r6, #0
 3010              	.LVL227:
1007:Middlewares/Third_Party/FreeRTOS/Source/CMSIS_RTOS/cmsis_os.c ****     portCLEAR_INTERRUPT_MASK_FROM_ISR(dummy);
 3011              		.loc 1 1007 3 is_stmt 1 view .LVU799
 3012              	.LBB240:
 173:Middlewares/Third_Party/FreeRTOS/Source/CMSIS_RTOS/cmsis_os.c **** {
 3013              		.loc 1 173 12 view .LVU800
 3014              	.LBE240:
 3015              	.LBE243:
 3016              	.LBE246:
 175:Middlewares/Third_Party/FreeRTOS/Source/CMSIS_RTOS/cmsis_os.c **** }
 3017              		.loc 1 175 3 view .LVU801
 3018              	.LBB247:
 3019              	.LBB244:
 3020              	.LBB241:
 3021              	.LBB238:
 105:Drivers/CMSIS/Include/cmsis_gcc.h **** {
 3022              		.loc 2 105 61 view .LVU802
 3023              	.LBB237:
 107:Drivers/CMSIS/Include/cmsis_gcc.h **** 
 3024              		.loc 2 107 3 view .LVU803
 109:Drivers/CMSIS/Include/cmsis_gcc.h ****   return(result);
ARM GAS  /tmp/ccSFdtfu.s 			page 84


 3025              		.loc 2 109 3 view .LVU804
 3026              		.syntax divided
 3027              	@ 109 "Drivers/CMSIS/Include/cmsis_gcc.h" 1
 3028 006a EFF30583 		MRS r3, ipsr
 3029              	@ 0 "" 2
 3030              	.LVL228:
 3031              		.loc 2 110 3 view .LVU805
 3032              		.loc 2 110 3 is_stmt 0 view .LVU806
 3033              		.thumb
 3034              		.syntax unified
 3035              	.LBE237:
 3036              	.LBE238:
 3037              	.LBE241:
1007:Middlewares/Third_Party/FreeRTOS/Source/CMSIS_RTOS/cmsis_os.c ****     portCLEAR_INTERRUPT_MASK_FROM_ISR(dummy);
 3038              		.loc 1 1007 6 view .LVU807
 3039 006e 002B     		cmp	r3, #0
 3040 0070 F3D0     		beq	.L211
 3041              	.L219:
1008:Middlewares/Third_Party/FreeRTOS/Source/CMSIS_RTOS/cmsis_os.c ****   }
 3042              		.loc 1 1008 5 is_stmt 1 view .LVU808
 3043 0072 3800     		movs	r0, r7
 3044 0074 FFF7FEFF 		bl	vClearInterruptMaskFromISR
 3045              	.LVL229:
 3046              	.L203:
1008:Middlewares/Third_Party/FreeRTOS/Source/CMSIS_RTOS/cmsis_os.c ****   }
 3047              		.loc 1 1008 5 is_stmt 0 view .LVU809
 3048              	.LBE244:
 3049              	.LBE247:
1271:Middlewares/Third_Party/FreeRTOS/Source/CMSIS_RTOS/cmsis_os.c ****   
1272:Middlewares/Third_Party/FreeRTOS/Source/CMSIS_RTOS/cmsis_os.c ****   return p;
1273:Middlewares/Third_Party/FreeRTOS/Source/CMSIS_RTOS/cmsis_os.c **** }
 3050              		.loc 1 1273 1 view .LVU810
 3051 0078 3000     		movs	r0, r6
 3052              		@ sp needed
 3053 007a F8BD     		pop	{r3, r4, r5, r6, r7, pc}
 3054              	.LVL230:
 3055              	.L212:
1267:Middlewares/Third_Party/FreeRTOS/Source/CMSIS_RTOS/cmsis_os.c ****   }
 3056              		.loc 1 1267 12 view .LVU811
 3057 007c 0026     		movs	r6, #0
 3058 007e FBE7     		b	.L203
 3059              		.cfi_endproc
 3060              	.LFE72:
 3062              		.section	.text.osMailCAlloc,"ax",%progbits
 3063              		.align	1
 3064              		.p2align 2,,3
 3065              		.global	osMailCAlloc
 3066              		.syntax unified
 3067              		.code	16
 3068              		.thumb_func
 3069              		.fpu softvfp
 3071              	osMailCAlloc:
 3072              	.LVL231:
 3073              	.LFB73:
1274:Middlewares/Third_Party/FreeRTOS/Source/CMSIS_RTOS/cmsis_os.c **** 
1275:Middlewares/Third_Party/FreeRTOS/Source/CMSIS_RTOS/cmsis_os.c **** /**
1276:Middlewares/Third_Party/FreeRTOS/Source/CMSIS_RTOS/cmsis_os.c **** * @brief Allocate a memory block from a mail and set memory block to zero
ARM GAS  /tmp/ccSFdtfu.s 			page 85


1277:Middlewares/Third_Party/FreeRTOS/Source/CMSIS_RTOS/cmsis_os.c **** * @param  queue_id      mail queue ID obtained with \ref osMailCreate.
1278:Middlewares/Third_Party/FreeRTOS/Source/CMSIS_RTOS/cmsis_os.c **** * @param  millisec      timeout value or 0 in case of no time-out.
1279:Middlewares/Third_Party/FreeRTOS/Source/CMSIS_RTOS/cmsis_os.c **** * @retval pointer to memory block that can be filled with mail or NULL in case error.
1280:Middlewares/Third_Party/FreeRTOS/Source/CMSIS_RTOS/cmsis_os.c **** * @note   MUST REMAIN UNCHANGED: \b osMailCAlloc shall be consistent in every CMSIS-RTOS.
1281:Middlewares/Third_Party/FreeRTOS/Source/CMSIS_RTOS/cmsis_os.c **** */
1282:Middlewares/Third_Party/FreeRTOS/Source/CMSIS_RTOS/cmsis_os.c **** void *osMailCAlloc (osMailQId queue_id, uint32_t millisec)
1283:Middlewares/Third_Party/FreeRTOS/Source/CMSIS_RTOS/cmsis_os.c **** {
 3074              		.loc 1 1283 1 is_stmt 1 view -0
 3075              		.cfi_startproc
 3076              		@ args = 0, pretend = 0, frame = 0
 3077              		@ frame_needed = 0, uses_anonymous_args = 0
1284:Middlewares/Third_Party/FreeRTOS/Source/CMSIS_RTOS/cmsis_os.c ****   uint32_t i;
 3078              		.loc 1 1284 3 view .LVU813
1285:Middlewares/Third_Party/FreeRTOS/Source/CMSIS_RTOS/cmsis_os.c ****   void *p = osMailAlloc(queue_id, millisec);
 3079              		.loc 1 1285 3 view .LVU814
 3080              	.LBB258:
 3081              	.LBI258:
1260:Middlewares/Third_Party/FreeRTOS/Source/CMSIS_RTOS/cmsis_os.c **** {
 3082              		.loc 1 1260 7 view .LVU815
 3083              	.LBB259:
1262:Middlewares/Third_Party/FreeRTOS/Source/CMSIS_RTOS/cmsis_os.c ****   void *p;
 3084              		.loc 1 1262 3 view .LVU816
1263:Middlewares/Third_Party/FreeRTOS/Source/CMSIS_RTOS/cmsis_os.c ****   
 3085              		.loc 1 1263 3 view .LVU817
1266:Middlewares/Third_Party/FreeRTOS/Source/CMSIS_RTOS/cmsis_os.c ****     return NULL;
 3086              		.loc 1 1266 3 view .LVU818
 3087              	.LBE259:
 3088              	.LBE258:
1283:Middlewares/Third_Party/FreeRTOS/Source/CMSIS_RTOS/cmsis_os.c ****   uint32_t i;
 3089              		.loc 1 1283 1 is_stmt 0 view .LVU819
 3090 0000 F8B5     		push	{r3, r4, r5, r6, r7, lr}
 3091              	.LCFI40:
 3092              		.cfi_def_cfa_offset 24
 3093              		.cfi_offset 3, -24
 3094              		.cfi_offset 4, -20
 3095              		.cfi_offset 5, -16
 3096              		.cfi_offset 6, -12
 3097              		.cfi_offset 7, -8
 3098              		.cfi_offset 14, -4
 3099 0002 CE46     		mov	lr, r9
 3100 0004 4746     		mov	r7, r8
 3101 0006 0500     		movs	r5, r0
 3102 0008 80B5     		push	{r7, lr}
 3103              	.LCFI41:
 3104              		.cfi_def_cfa_offset 32
 3105              		.cfi_offset 8, -32
 3106              		.cfi_offset 9, -28
 3107              	.LBB288:
 3108              	.LBB282:
1266:Middlewares/Third_Party/FreeRTOS/Source/CMSIS_RTOS/cmsis_os.c ****     return NULL;
 3109              		.loc 1 1266 6 view .LVU820
 3110 000a 0028     		cmp	r0, #0
 3111 000c 2ED0     		beq	.L231
1270:Middlewares/Third_Party/FreeRTOS/Source/CMSIS_RTOS/cmsis_os.c ****   
 3112              		.loc 1 1270 3 is_stmt 1 view .LVU821
1270:Middlewares/Third_Party/FreeRTOS/Source/CMSIS_RTOS/cmsis_os.c ****   
 3113              		.loc 1 1270 7 is_stmt 0 view .LVU822
ARM GAS  /tmp/ccSFdtfu.s 			page 86


 3114 000e 8668     		ldr	r6, [r0, #8]
 3115              	.LVL232:
 3116              	.LBB260:
 3117              	.LBI260:
 979:Middlewares/Third_Party/FreeRTOS/Source/CMSIS_RTOS/cmsis_os.c **** {
 3118              		.loc 1 979 7 is_stmt 1 view .LVU823
 3119              	.LBB261:
 981:Middlewares/Third_Party/FreeRTOS/Source/CMSIS_RTOS/cmsis_os.c ****   void *p = NULL;
 3120              		.loc 1 981 3 view .LVU824
 982:Middlewares/Third_Party/FreeRTOS/Source/CMSIS_RTOS/cmsis_os.c ****   uint32_t i;
 3121              		.loc 1 982 3 view .LVU825
 983:Middlewares/Third_Party/FreeRTOS/Source/CMSIS_RTOS/cmsis_os.c ****   uint32_t index;
 3122              		.loc 1 983 3 view .LVU826
 984:Middlewares/Third_Party/FreeRTOS/Source/CMSIS_RTOS/cmsis_os.c ****   
 3123              		.loc 1 984 3 view .LVU827
 986:Middlewares/Third_Party/FreeRTOS/Source/CMSIS_RTOS/cmsis_os.c ****     dummy = portSET_INTERRUPT_MASK_FROM_ISR();
 3124              		.loc 1 986 3 view .LVU828
 3125              	.LBB262:
 3126              	.LBI262:
 173:Middlewares/Third_Party/FreeRTOS/Source/CMSIS_RTOS/cmsis_os.c **** {
 3127              		.loc 1 173 12 view .LVU829
 3128              	.LBE262:
 3129              	.LBE261:
 3130              	.LBE260:
 3131              	.LBE282:
 3132              	.LBE288:
 175:Middlewares/Third_Party/FreeRTOS/Source/CMSIS_RTOS/cmsis_os.c **** }
 3133              		.loc 1 175 3 view .LVU830
 3134              	.LBB289:
 3135              	.LBB283:
 3136              	.LBB278:
 3137              	.LBB274:
 3138              	.LBB265:
 3139              	.LBB263:
 3140              	.LBI263:
 105:Drivers/CMSIS/Include/cmsis_gcc.h **** {
 3141              		.loc 2 105 61 view .LVU831
 3142              	.LBB264:
 107:Drivers/CMSIS/Include/cmsis_gcc.h **** 
 3143              		.loc 2 107 3 view .LVU832
 109:Drivers/CMSIS/Include/cmsis_gcc.h ****   return(result);
 3144              		.loc 2 109 3 view .LVU833
 3145              		.syntax divided
 3146              	@ 109 "Drivers/CMSIS/Include/cmsis_gcc.h" 1
 3147 0010 EFF30589 		MRS r9, ipsr
 3148              	@ 0 "" 2
 3149              	.LVL233:
 3150              		.loc 2 110 3 view .LVU834
 3151              		.loc 2 110 3 is_stmt 0 view .LVU835
 3152              		.thumb
 3153              		.syntax unified
 3154              	.LBE264:
 3155              	.LBE263:
 3156              	.LBE265:
 986:Middlewares/Third_Party/FreeRTOS/Source/CMSIS_RTOS/cmsis_os.c ****     dummy = portSET_INTERRUPT_MASK_FROM_ISR();
 3157              		.loc 1 986 6 view .LVU836
 3158 0014 4B46     		mov	r3, r9
ARM GAS  /tmp/ccSFdtfu.s 			page 87


 3159 0016 002B     		cmp	r3, #0
 3160 0018 2ED1     		bne	.L243
 990:Middlewares/Third_Party/FreeRTOS/Source/CMSIS_RTOS/cmsis_os.c ****   }
 3161              		.loc 1 990 5 is_stmt 1 view .LVU837
 3162 001a FFF7FEFF 		bl	vPortEnterCritical
 3163              	.LVL234:
 3164              	.L224:
 993:Middlewares/Third_Party/FreeRTOS/Source/CMSIS_RTOS/cmsis_os.c ****     index = pool_id->currentIndex + i;
 3165              		.loc 1 993 3 view .LVU838
 993:Middlewares/Third_Party/FreeRTOS/Source/CMSIS_RTOS/cmsis_os.c ****     index = pool_id->currentIndex + i;
 3166              		.loc 1 993 26 is_stmt 0 view .LVU839
 3167 001e B768     		ldr	r7, [r6, #8]
 993:Middlewares/Third_Party/FreeRTOS/Source/CMSIS_RTOS/cmsis_os.c ****     index = pool_id->currentIndex + i;
 3168              		.loc 1 993 3 view .LVU840
 3169 0020 002F     		cmp	r7, #0
 3170 0022 2DD0     		beq	.L233
 994:Middlewares/Third_Party/FreeRTOS/Source/CMSIS_RTOS/cmsis_os.c ****     if (index >= pool_id->pool_sz) {
 3171              		.loc 1 994 20 view .LVU841
 3172 0024 3369     		ldr	r3, [r6, #16]
 999:Middlewares/Third_Party/FreeRTOS/Source/CMSIS_RTOS/cmsis_os.c ****       pool_id->markers[index] = 1;
 3173              		.loc 1 999 16 view .LVU842
 3174 0026 7468     		ldr	r4, [r6, #4]
 3175 0028 FA18     		adds	r2, r7, r3
 3176 002a 9046     		mov	r8, r2
 3177 002c 07E0     		b	.L228
 3178              	.LVL235:
 3179              	.L245:
 999:Middlewares/Third_Party/FreeRTOS/Source/CMSIS_RTOS/cmsis_os.c ****       pool_id->markers[index] = 1;
 3180              		.loc 1 999 16 view .LVU843
 3181 002e E218     		adds	r2, r4, r3
 999:Middlewares/Third_Party/FreeRTOS/Source/CMSIS_RTOS/cmsis_os.c ****       pool_id->markers[index] = 1;
 3182              		.loc 1 999 8 view .LVU844
 3183 0030 1178     		ldrb	r1, [r2]
 995:Middlewares/Third_Party/FreeRTOS/Source/CMSIS_RTOS/cmsis_os.c ****       index = 0;
 3184              		.loc 1 995 8 view .LVU845
 3185 0032 1800     		movs	r0, r3
 3186              	.LVL236:
 999:Middlewares/Third_Party/FreeRTOS/Source/CMSIS_RTOS/cmsis_os.c ****       pool_id->markers[index] = 1;
 3187              		.loc 1 999 5 is_stmt 1 view .LVU846
 999:Middlewares/Third_Party/FreeRTOS/Source/CMSIS_RTOS/cmsis_os.c ****       pool_id->markers[index] = 1;
 3188              		.loc 1 999 8 is_stmt 0 view .LVU847
 3189 0034 0029     		cmp	r1, #0
 3190 0036 09D0     		beq	.L244
 3191              	.L227:
 3192              	.LVL237:
 999:Middlewares/Third_Party/FreeRTOS/Source/CMSIS_RTOS/cmsis_os.c ****       pool_id->markers[index] = 1;
 3193              		.loc 1 999 8 view .LVU848
 3194 0038 0133     		adds	r3, r3, #1
 993:Middlewares/Third_Party/FreeRTOS/Source/CMSIS_RTOS/cmsis_os.c ****     index = pool_id->currentIndex + i;
 3195              		.loc 1 993 3 view .LVU849
 3196 003a 9845     		cmp	r8, r3
 3197 003c 20D0     		beq	.L233
 3198              	.LVL238:
 3199              	.L228:
 994:Middlewares/Third_Party/FreeRTOS/Source/CMSIS_RTOS/cmsis_os.c ****     if (index >= pool_id->pool_sz) {
 3200              		.loc 1 994 5 is_stmt 1 view .LVU850
 995:Middlewares/Third_Party/FreeRTOS/Source/CMSIS_RTOS/cmsis_os.c ****       index = 0;
ARM GAS  /tmp/ccSFdtfu.s 			page 88


 3201              		.loc 1 995 5 view .LVU851
 995:Middlewares/Third_Party/FreeRTOS/Source/CMSIS_RTOS/cmsis_os.c ****       index = 0;
 3202              		.loc 1 995 8 is_stmt 0 view .LVU852
 3203 003e 9F42     		cmp	r7, r3
 3204 0040 F5D8     		bhi	.L245
 3205 0042 2200     		movs	r2, r4
 999:Middlewares/Third_Party/FreeRTOS/Source/CMSIS_RTOS/cmsis_os.c ****       pool_id->markers[index] = 1;
 3206              		.loc 1 999 8 view .LVU853
 3207 0044 1178     		ldrb	r1, [r2]
 996:Middlewares/Third_Party/FreeRTOS/Source/CMSIS_RTOS/cmsis_os.c ****     }
 3208              		.loc 1 996 13 view .LVU854
 3209 0046 0020     		movs	r0, #0
 3210              	.LVL239:
 999:Middlewares/Third_Party/FreeRTOS/Source/CMSIS_RTOS/cmsis_os.c ****       pool_id->markers[index] = 1;
 3211              		.loc 1 999 5 is_stmt 1 view .LVU855
 999:Middlewares/Third_Party/FreeRTOS/Source/CMSIS_RTOS/cmsis_os.c ****       pool_id->markers[index] = 1;
 3212              		.loc 1 999 8 is_stmt 0 view .LVU856
 3213 0048 0029     		cmp	r1, #0
 3214 004a F5D1     		bne	.L227
 3215              	.L244:
1000:Middlewares/Third_Party/FreeRTOS/Source/CMSIS_RTOS/cmsis_os.c ****       p = (void *)((uint32_t)(pool_id->pool) + (index * pool_id->item_sz));
 3216              		.loc 1 1000 7 is_stmt 1 view .LVU857
1000:Middlewares/Third_Party/FreeRTOS/Source/CMSIS_RTOS/cmsis_os.c ****       p = (void *)((uint32_t)(pool_id->pool) + (index * pool_id->item_sz));
 3217              		.loc 1 1000 31 is_stmt 0 view .LVU858
 3218 004c 0123     		movs	r3, #1
 3219 004e 1370     		strb	r3, [r2]
1001:Middlewares/Third_Party/FreeRTOS/Source/CMSIS_RTOS/cmsis_os.c ****       pool_id->currentIndex = index;
 3220              		.loc 1 1001 7 is_stmt 1 view .LVU859
1001:Middlewares/Third_Party/FreeRTOS/Source/CMSIS_RTOS/cmsis_os.c ****       pool_id->currentIndex = index;
 3221              		.loc 1 1001 46 is_stmt 0 view .LVU860
 3222 0050 3368     		ldr	r3, [r6]
1001:Middlewares/Third_Party/FreeRTOS/Source/CMSIS_RTOS/cmsis_os.c ****       pool_id->currentIndex = index;
 3223              		.loc 1 1001 55 view .LVU861
 3224 0052 F468     		ldr	r4, [r6, #12]
1001:Middlewares/Third_Party/FreeRTOS/Source/CMSIS_RTOS/cmsis_os.c ****       pool_id->currentIndex = index;
 3225              		.loc 1 1001 46 view .LVU862
 3226 0054 9C46     		mov	ip, r3
1001:Middlewares/Third_Party/FreeRTOS/Source/CMSIS_RTOS/cmsis_os.c ****       pool_id->currentIndex = index;
 3227              		.loc 1 1001 55 view .LVU863
 3228 0056 4443     		muls	r4, r0
1002:Middlewares/Third_Party/FreeRTOS/Source/CMSIS_RTOS/cmsis_os.c ****       break;
 3229              		.loc 1 1002 29 view .LVU864
 3230 0058 3061     		str	r0, [r6, #16]
1001:Middlewares/Third_Party/FreeRTOS/Source/CMSIS_RTOS/cmsis_os.c ****       pool_id->currentIndex = index;
 3231              		.loc 1 1001 46 view .LVU865
 3232 005a 6444     		add	r4, r4, ip
 3233              	.LVL240:
1002:Middlewares/Third_Party/FreeRTOS/Source/CMSIS_RTOS/cmsis_os.c ****       break;
 3234              		.loc 1 1002 7 is_stmt 1 view .LVU866
1003:Middlewares/Third_Party/FreeRTOS/Source/CMSIS_RTOS/cmsis_os.c ****     }
 3235              		.loc 1 1003 7 view .LVU867
1007:Middlewares/Third_Party/FreeRTOS/Source/CMSIS_RTOS/cmsis_os.c ****     portCLEAR_INTERRUPT_MASK_FROM_ISR(dummy);
 3236              		.loc 1 1007 3 view .LVU868
 3237              	.LBB266:
 3238              	.LBI266:
 173:Middlewares/Third_Party/FreeRTOS/Source/CMSIS_RTOS/cmsis_os.c **** {
 3239              		.loc 1 173 12 view .LVU869
ARM GAS  /tmp/ccSFdtfu.s 			page 89


 3240              	.LBE266:
 3241              	.LBE274:
 3242              	.LBE278:
 3243              	.LBE283:
 3244              	.LBE289:
 175:Middlewares/Third_Party/FreeRTOS/Source/CMSIS_RTOS/cmsis_os.c **** }
 3245              		.loc 1 175 3 view .LVU870
 3246              	.LBB290:
 3247              	.LBB284:
 3248              	.LBB279:
 3249              	.LBB275:
 3250              	.LBB271:
 3251              	.LBB267:
 3252              	.LBI267:
 105:Drivers/CMSIS/Include/cmsis_gcc.h **** {
 3253              		.loc 2 105 61 view .LVU871
 3254              	.LBB268:
 107:Drivers/CMSIS/Include/cmsis_gcc.h **** 
 3255              		.loc 2 107 3 view .LVU872
 109:Drivers/CMSIS/Include/cmsis_gcc.h ****   return(result);
 3256              		.loc 2 109 3 view .LVU873
 3257              		.syntax divided
 3258              	@ 109 "Drivers/CMSIS/Include/cmsis_gcc.h" 1
 3259 005c EFF30583 		MRS r3, ipsr
 3260              	@ 0 "" 2
 3261              	.LVL241:
 3262              		.loc 2 110 3 view .LVU874
 3263              		.loc 2 110 3 is_stmt 0 view .LVU875
 3264              		.thumb
 3265              		.syntax unified
 3266              	.LBE268:
 3267              	.LBE267:
 3268              	.LBE271:
1007:Middlewares/Third_Party/FreeRTOS/Source/CMSIS_RTOS/cmsis_os.c ****     portCLEAR_INTERRUPT_MASK_FROM_ISR(dummy);
 3269              		.loc 1 1007 6 view .LVU876
 3270 0060 002B     		cmp	r3, #0
 3271 0062 12D1     		bne	.L246
 3272              	.LVL242:
 3273              	.L229:
1011:Middlewares/Third_Party/FreeRTOS/Source/CMSIS_RTOS/cmsis_os.c ****   }
 3274              		.loc 1 1011 5 is_stmt 1 view .LVU877
 3275 0064 FFF7FEFF 		bl	vPortExitCritical
 3276              	.LVL243:
1014:Middlewares/Third_Party/FreeRTOS/Source/CMSIS_RTOS/cmsis_os.c **** }
 3277              		.loc 1 1014 3 view .LVU878
1014:Middlewares/Third_Party/FreeRTOS/Source/CMSIS_RTOS/cmsis_os.c **** }
 3278              		.loc 1 1014 3 is_stmt 0 view .LVU879
 3279              	.LBE275:
 3280              	.LBE279:
1272:Middlewares/Third_Party/FreeRTOS/Source/CMSIS_RTOS/cmsis_os.c **** }
 3281              		.loc 1 1272 3 is_stmt 1 view .LVU880
1272:Middlewares/Third_Party/FreeRTOS/Source/CMSIS_RTOS/cmsis_os.c **** }
 3282              		.loc 1 1272 3 is_stmt 0 view .LVU881
 3283              	.LBE284:
 3284              	.LBE290:
1286:Middlewares/Third_Party/FreeRTOS/Source/CMSIS_RTOS/cmsis_os.c ****   
1287:Middlewares/Third_Party/FreeRTOS/Source/CMSIS_RTOS/cmsis_os.c ****   if (p) {
ARM GAS  /tmp/ccSFdtfu.s 			page 90


 3285              		.loc 1 1287 3 is_stmt 1 view .LVU882
 3286              		.loc 1 1287 6 is_stmt 0 view .LVU883
 3287 0068 002C     		cmp	r4, #0
 3288 006a 13D1     		bne	.L247
 3289              	.LVL244:
 3290              	.L231:
 3291              	.LBB291:
 3292              	.LBB285:
1267:Middlewares/Third_Party/FreeRTOS/Source/CMSIS_RTOS/cmsis_os.c ****   }
 3293              		.loc 1 1267 12 view .LVU884
 3294 006c 0024     		movs	r4, #0
 3295              	.L220:
 3296              	.LBE285:
 3297              	.LBE291:
1288:Middlewares/Third_Party/FreeRTOS/Source/CMSIS_RTOS/cmsis_os.c ****     for (i = 0; i < queue_id->queue_def->item_sz; i++) {
1289:Middlewares/Third_Party/FreeRTOS/Source/CMSIS_RTOS/cmsis_os.c ****       ((uint8_t *)p)[i] = 0;
1290:Middlewares/Third_Party/FreeRTOS/Source/CMSIS_RTOS/cmsis_os.c ****     }
1291:Middlewares/Third_Party/FreeRTOS/Source/CMSIS_RTOS/cmsis_os.c ****   }
1292:Middlewares/Third_Party/FreeRTOS/Source/CMSIS_RTOS/cmsis_os.c ****   
1293:Middlewares/Third_Party/FreeRTOS/Source/CMSIS_RTOS/cmsis_os.c ****   return p;
1294:Middlewares/Third_Party/FreeRTOS/Source/CMSIS_RTOS/cmsis_os.c **** }
 3298              		.loc 1 1294 1 view .LVU885
 3299 006e 2000     		movs	r0, r4
 3300              		@ sp needed
 3301              	.LVL245:
 3302              		.loc 1 1294 1 view .LVU886
 3303 0070 0CBC     		pop	{r2, r3}
 3304 0072 9046     		mov	r8, r2
 3305 0074 9946     		mov	r9, r3
 3306 0076 F8BD     		pop	{r3, r4, r5, r6, r7, pc}
 3307              	.LVL246:
 3308              	.L243:
 3309              	.LBB292:
 3310              	.LBB286:
 3311              	.LBB280:
 3312              	.LBB276:
 987:Middlewares/Third_Party/FreeRTOS/Source/CMSIS_RTOS/cmsis_os.c ****   }
 3313              		.loc 1 987 5 is_stmt 1 view .LVU887
 987:Middlewares/Third_Party/FreeRTOS/Source/CMSIS_RTOS/cmsis_os.c ****   }
 3314              		.loc 1 987 13 is_stmt 0 view .LVU888
 3315 0078 FFF7FEFF 		bl	ulSetInterruptMaskFromISR
 3316              	.LVL247:
 987:Middlewares/Third_Party/FreeRTOS/Source/CMSIS_RTOS/cmsis_os.c ****   }
 3317              		.loc 1 987 13 view .LVU889
 3318 007c 8146     		mov	r9, r0
 3319              	.LVL248:
 987:Middlewares/Third_Party/FreeRTOS/Source/CMSIS_RTOS/cmsis_os.c ****   }
 3320              		.loc 1 987 13 view .LVU890
 3321 007e CEE7     		b	.L224
 3322              	.LVL249:
 3323              	.L233:
 982:Middlewares/Third_Party/FreeRTOS/Source/CMSIS_RTOS/cmsis_os.c ****   uint32_t i;
 3324              		.loc 1 982 9 view .LVU891
 3325 0080 0024     		movs	r4, #0
 3326              	.LVL250:
1007:Middlewares/Third_Party/FreeRTOS/Source/CMSIS_RTOS/cmsis_os.c ****     portCLEAR_INTERRUPT_MASK_FROM_ISR(dummy);
 3327              		.loc 1 1007 3 is_stmt 1 view .LVU892
ARM GAS  /tmp/ccSFdtfu.s 			page 91


 3328              	.LBB272:
 173:Middlewares/Third_Party/FreeRTOS/Source/CMSIS_RTOS/cmsis_os.c **** {
 3329              		.loc 1 173 12 view .LVU893
 3330              	.LBE272:
 3331              	.LBE276:
 3332              	.LBE280:
 3333              	.LBE286:
 3334              	.LBE292:
 175:Middlewares/Third_Party/FreeRTOS/Source/CMSIS_RTOS/cmsis_os.c **** }
 3335              		.loc 1 175 3 view .LVU894
 3336              	.LBB293:
 3337              	.LBB287:
 3338              	.LBB281:
 3339              	.LBB277:
 3340              	.LBB273:
 3341              	.LBB270:
 105:Drivers/CMSIS/Include/cmsis_gcc.h **** {
 3342              		.loc 2 105 61 view .LVU895
 3343              	.LBB269:
 107:Drivers/CMSIS/Include/cmsis_gcc.h **** 
 3344              		.loc 2 107 3 view .LVU896
 109:Drivers/CMSIS/Include/cmsis_gcc.h ****   return(result);
 3345              		.loc 2 109 3 view .LVU897
 3346              		.syntax divided
 3347              	@ 109 "Drivers/CMSIS/Include/cmsis_gcc.h" 1
 3348 0082 EFF30583 		MRS r3, ipsr
 3349              	@ 0 "" 2
 3350              	.LVL251:
 3351              		.loc 2 110 3 view .LVU898
 3352              		.loc 2 110 3 is_stmt 0 view .LVU899
 3353              		.thumb
 3354              		.syntax unified
 3355              	.LBE269:
 3356              	.LBE270:
 3357              	.LBE273:
1007:Middlewares/Third_Party/FreeRTOS/Source/CMSIS_RTOS/cmsis_os.c ****     portCLEAR_INTERRUPT_MASK_FROM_ISR(dummy);
 3358              		.loc 1 1007 6 view .LVU900
 3359 0086 002B     		cmp	r3, #0
 3360 0088 ECD0     		beq	.L229
 3361              	.L246:
1008:Middlewares/Third_Party/FreeRTOS/Source/CMSIS_RTOS/cmsis_os.c ****   }
 3362              		.loc 1 1008 5 is_stmt 1 view .LVU901
 3363 008a 4846     		mov	r0, r9
 3364 008c FFF7FEFF 		bl	vClearInterruptMaskFromISR
 3365              	.LVL252:
1014:Middlewares/Third_Party/FreeRTOS/Source/CMSIS_RTOS/cmsis_os.c **** }
 3366              		.loc 1 1014 3 view .LVU902
1014:Middlewares/Third_Party/FreeRTOS/Source/CMSIS_RTOS/cmsis_os.c **** }
 3367              		.loc 1 1014 3 is_stmt 0 view .LVU903
 3368              	.LBE277:
 3369              	.LBE281:
1272:Middlewares/Third_Party/FreeRTOS/Source/CMSIS_RTOS/cmsis_os.c **** }
 3370              		.loc 1 1272 3 is_stmt 1 view .LVU904
1272:Middlewares/Third_Party/FreeRTOS/Source/CMSIS_RTOS/cmsis_os.c **** }
 3371              		.loc 1 1272 3 is_stmt 0 view .LVU905
 3372              	.LBE287:
 3373              	.LBE293:
ARM GAS  /tmp/ccSFdtfu.s 			page 92


1287:Middlewares/Third_Party/FreeRTOS/Source/CMSIS_RTOS/cmsis_os.c ****     for (i = 0; i < queue_id->queue_def->item_sz; i++) {
 3374              		.loc 1 1287 3 is_stmt 1 view .LVU906
1287:Middlewares/Third_Party/FreeRTOS/Source/CMSIS_RTOS/cmsis_os.c ****     for (i = 0; i < queue_id->queue_def->item_sz; i++) {
 3375              		.loc 1 1287 6 is_stmt 0 view .LVU907
 3376 0090 002C     		cmp	r4, #0
 3377 0092 EBD0     		beq	.L231
 3378              	.L247:
 3379              	.LVL253:
1288:Middlewares/Third_Party/FreeRTOS/Source/CMSIS_RTOS/cmsis_os.c ****       ((uint8_t *)p)[i] = 0;
 3380              		.loc 1 1288 40 view .LVU908
 3381 0094 2B68     		ldr	r3, [r5]
1288:Middlewares/Third_Party/FreeRTOS/Source/CMSIS_RTOS/cmsis_os.c ****       ((uint8_t *)p)[i] = 0;
 3382              		.loc 1 1288 5 view .LVU909
 3383 0096 5B68     		ldr	r3, [r3, #4]
 3384 0098 002B     		cmp	r3, #0
 3385 009a E8D0     		beq	.L220
1288:Middlewares/Third_Party/FreeRTOS/Source/CMSIS_RTOS/cmsis_os.c ****       ((uint8_t *)p)[i] = 0;
 3386              		.loc 1 1288 12 view .LVU910
 3387 009c 0023     		movs	r3, #0
1289:Middlewares/Third_Party/FreeRTOS/Source/CMSIS_RTOS/cmsis_os.c ****     }
 3388              		.loc 1 1289 25 view .LVU911
 3389 009e 0021     		movs	r1, #0
 3390              	.LVL254:
 3391              	.L232:
1289:Middlewares/Third_Party/FreeRTOS/Source/CMSIS_RTOS/cmsis_os.c ****     }
 3392              		.loc 1 1289 7 is_stmt 1 discriminator 3 view .LVU912
1289:Middlewares/Third_Party/FreeRTOS/Source/CMSIS_RTOS/cmsis_os.c ****     }
 3393              		.loc 1 1289 25 is_stmt 0 discriminator 3 view .LVU913
 3394 00a0 E154     		strb	r1, [r4, r3]
1288:Middlewares/Third_Party/FreeRTOS/Source/CMSIS_RTOS/cmsis_os.c ****       ((uint8_t *)p)[i] = 0;
 3395              		.loc 1 1288 40 discriminator 3 view .LVU914
 3396 00a2 2A68     		ldr	r2, [r5]
1288:Middlewares/Third_Party/FreeRTOS/Source/CMSIS_RTOS/cmsis_os.c ****       ((uint8_t *)p)[i] = 0;
 3397              		.loc 1 1288 52 discriminator 3 view .LVU915
 3398 00a4 0133     		adds	r3, r3, #1
 3399              	.LVL255:
1288:Middlewares/Third_Party/FreeRTOS/Source/CMSIS_RTOS/cmsis_os.c ****       ((uint8_t *)p)[i] = 0;
 3400              		.loc 1 1288 5 discriminator 3 view .LVU916
 3401 00a6 5268     		ldr	r2, [r2, #4]
 3402 00a8 9A42     		cmp	r2, r3
 3403 00aa F9D8     		bhi	.L232
1288:Middlewares/Third_Party/FreeRTOS/Source/CMSIS_RTOS/cmsis_os.c ****       ((uint8_t *)p)[i] = 0;
 3404              		.loc 1 1288 5 discriminator 3 view .LVU917
 3405 00ac DFE7     		b	.L220
 3406              		.cfi_endproc
 3407              	.LFE73:
 3409 00ae C046     		.section	.text.osMailPut,"ax",%progbits
 3410              		.align	1
 3411              		.p2align 2,,3
 3412              		.global	osMailPut
 3413              		.syntax unified
 3414              		.code	16
 3415              		.thumb_func
 3416              		.fpu softvfp
 3418              	osMailPut:
 3419              	.LVL256:
 3420              	.LFB74:
ARM GAS  /tmp/ccSFdtfu.s 			page 93


1295:Middlewares/Third_Party/FreeRTOS/Source/CMSIS_RTOS/cmsis_os.c **** 
1296:Middlewares/Third_Party/FreeRTOS/Source/CMSIS_RTOS/cmsis_os.c **** /**
1297:Middlewares/Third_Party/FreeRTOS/Source/CMSIS_RTOS/cmsis_os.c **** * @brief Put a mail to a queue
1298:Middlewares/Third_Party/FreeRTOS/Source/CMSIS_RTOS/cmsis_os.c **** * @param  queue_id      mail queue ID obtained with \ref osMailCreate.
1299:Middlewares/Third_Party/FreeRTOS/Source/CMSIS_RTOS/cmsis_os.c **** * @param  mail          memory block previously allocated with \ref osMailAlloc or \ref osMailCAllo
1300:Middlewares/Third_Party/FreeRTOS/Source/CMSIS_RTOS/cmsis_os.c **** * @retval status code that indicates the execution status of the function.
1301:Middlewares/Third_Party/FreeRTOS/Source/CMSIS_RTOS/cmsis_os.c **** * @note   MUST REMAIN UNCHANGED: \b osMailPut shall be consistent in every CMSIS-RTOS.
1302:Middlewares/Third_Party/FreeRTOS/Source/CMSIS_RTOS/cmsis_os.c **** */
1303:Middlewares/Third_Party/FreeRTOS/Source/CMSIS_RTOS/cmsis_os.c **** osStatus osMailPut (osMailQId queue_id, void *mail)
1304:Middlewares/Third_Party/FreeRTOS/Source/CMSIS_RTOS/cmsis_os.c **** {
 3421              		.loc 1 1304 1 is_stmt 1 view -0
 3422              		.cfi_startproc
 3423              		@ args = 0, pretend = 0, frame = 16
 3424              		@ frame_needed = 0, uses_anonymous_args = 0
1305:Middlewares/Third_Party/FreeRTOS/Source/CMSIS_RTOS/cmsis_os.c ****   portBASE_TYPE taskWoken;
 3425              		.loc 1 1305 3 view .LVU919
1306:Middlewares/Third_Party/FreeRTOS/Source/CMSIS_RTOS/cmsis_os.c ****   
1307:Middlewares/Third_Party/FreeRTOS/Source/CMSIS_RTOS/cmsis_os.c ****   
1308:Middlewares/Third_Party/FreeRTOS/Source/CMSIS_RTOS/cmsis_os.c ****   if (queue_id == NULL) {
 3426              		.loc 1 1308 3 view .LVU920
1304:Middlewares/Third_Party/FreeRTOS/Source/CMSIS_RTOS/cmsis_os.c ****   portBASE_TYPE taskWoken;
 3427              		.loc 1 1304 1 is_stmt 0 view .LVU921
 3428 0000 00B5     		push	{lr}
 3429              	.LCFI42:
 3430              		.cfi_def_cfa_offset 4
 3431              		.cfi_offset 14, -4
 3432 0002 85B0     		sub	sp, sp, #20
 3433              	.LCFI43:
 3434              		.cfi_def_cfa_offset 24
1304:Middlewares/Third_Party/FreeRTOS/Source/CMSIS_RTOS/cmsis_os.c ****   portBASE_TYPE taskWoken;
 3435              		.loc 1 1304 1 view .LVU922
 3436 0004 0191     		str	r1, [sp, #4]
 3437              		.loc 1 1308 6 view .LVU923
 3438 0006 0028     		cmp	r0, #0
 3439 0008 22D0     		beq	.L254
1309:Middlewares/Third_Party/FreeRTOS/Source/CMSIS_RTOS/cmsis_os.c ****     return osErrorParameter;
1310:Middlewares/Third_Party/FreeRTOS/Source/CMSIS_RTOS/cmsis_os.c ****   }
1311:Middlewares/Third_Party/FreeRTOS/Source/CMSIS_RTOS/cmsis_os.c ****   
1312:Middlewares/Third_Party/FreeRTOS/Source/CMSIS_RTOS/cmsis_os.c ****   taskWoken = pdFALSE;
 3440              		.loc 1 1312 3 is_stmt 1 view .LVU924
 3441              		.loc 1 1312 13 is_stmt 0 view .LVU925
 3442 000a 0023     		movs	r3, #0
 3443 000c 0393     		str	r3, [sp, #12]
1313:Middlewares/Third_Party/FreeRTOS/Source/CMSIS_RTOS/cmsis_os.c ****   
1314:Middlewares/Third_Party/FreeRTOS/Source/CMSIS_RTOS/cmsis_os.c ****   if (inHandlerMode()) {
 3444              		.loc 1 1314 3 is_stmt 1 view .LVU926
 3445              	.LBB294:
 3446              	.LBI294:
 173:Middlewares/Third_Party/FreeRTOS/Source/CMSIS_RTOS/cmsis_os.c **** {
 3447              		.loc 1 173 12 view .LVU927
 3448              	.LBE294:
 175:Middlewares/Third_Party/FreeRTOS/Source/CMSIS_RTOS/cmsis_os.c **** }
 3449              		.loc 1 175 3 view .LVU928
 3450              	.LBB297:
 3451              	.LBB295:
 3452              	.LBI295:
 105:Drivers/CMSIS/Include/cmsis_gcc.h **** {
ARM GAS  /tmp/ccSFdtfu.s 			page 94


 3453              		.loc 2 105 61 view .LVU929
 3454              	.LBB296:
 107:Drivers/CMSIS/Include/cmsis_gcc.h **** 
 3455              		.loc 2 107 3 view .LVU930
 109:Drivers/CMSIS/Include/cmsis_gcc.h ****   return(result);
 3456              		.loc 2 109 3 view .LVU931
 3457              		.syntax divided
 3458              	@ 109 "Drivers/CMSIS/Include/cmsis_gcc.h" 1
 3459 000e EFF30583 		MRS r3, ipsr
 3460              	@ 0 "" 2
 3461              	.LVL257:
 3462              		.loc 2 110 3 view .LVU932
 3463              		.loc 2 110 3 is_stmt 0 view .LVU933
 3464              		.thumb
 3465              		.syntax unified
 3466 0012 4068     		ldr	r0, [r0, #4]
 3467              	.LVL258:
 3468              		.loc 2 110 3 view .LVU934
 3469              	.LBE296:
 3470              	.LBE295:
 3471              	.LBE297:
 3472              		.loc 1 1314 6 view .LVU935
 3473 0014 002B     		cmp	r3, #0
 3474 0016 0CD0     		beq	.L250
1315:Middlewares/Third_Party/FreeRTOS/Source/CMSIS_RTOS/cmsis_os.c ****     if (xQueueSendFromISR(queue_id->handle, &mail, &taskWoken) != pdTRUE) {
 3475              		.loc 1 1315 5 is_stmt 1 view .LVU936
 3476              		.loc 1 1315 9 is_stmt 0 view .LVU937
 3477 0018 0023     		movs	r3, #0
 3478 001a 03AA     		add	r2, sp, #12
 3479 001c 01A9     		add	r1, sp, #4
 3480              	.LVL259:
 3481              		.loc 1 1315 9 view .LVU938
 3482 001e FFF7FEFF 		bl	xQueueGenericSendFromISR
 3483              	.LVL260:
 3484              		.loc 1 1315 8 view .LVU939
 3485 0022 0128     		cmp	r0, #1
 3486 0024 0CD1     		bne	.L253
1316:Middlewares/Third_Party/FreeRTOS/Source/CMSIS_RTOS/cmsis_os.c ****       return osErrorOS;
1317:Middlewares/Third_Party/FreeRTOS/Source/CMSIS_RTOS/cmsis_os.c ****     }
1318:Middlewares/Third_Party/FreeRTOS/Source/CMSIS_RTOS/cmsis_os.c ****     portEND_SWITCHING_ISR(taskWoken);
 3487              		.loc 1 1318 5 is_stmt 1 view .LVU940
 3488 0026 039B     		ldr	r3, [sp, #12]
 3489 0028 002B     		cmp	r3, #0
 3490 002a 0BD1     		bne	.L258
 3491              	.L252:
1319:Middlewares/Third_Party/FreeRTOS/Source/CMSIS_RTOS/cmsis_os.c ****   }
1320:Middlewares/Third_Party/FreeRTOS/Source/CMSIS_RTOS/cmsis_os.c ****   else {
1321:Middlewares/Third_Party/FreeRTOS/Source/CMSIS_RTOS/cmsis_os.c ****     if (xQueueSend(queue_id->handle, &mail, 0) != pdTRUE) { 
1322:Middlewares/Third_Party/FreeRTOS/Source/CMSIS_RTOS/cmsis_os.c ****       return osErrorOS;
1323:Middlewares/Third_Party/FreeRTOS/Source/CMSIS_RTOS/cmsis_os.c ****     }
1324:Middlewares/Third_Party/FreeRTOS/Source/CMSIS_RTOS/cmsis_os.c ****   }
1325:Middlewares/Third_Party/FreeRTOS/Source/CMSIS_RTOS/cmsis_os.c ****   
1326:Middlewares/Third_Party/FreeRTOS/Source/CMSIS_RTOS/cmsis_os.c ****   return osOK;
 3492              		.loc 1 1326 10 is_stmt 0 view .LVU941
 3493 002c 0020     		movs	r0, #0
 3494              	.L248:
1327:Middlewares/Third_Party/FreeRTOS/Source/CMSIS_RTOS/cmsis_os.c **** }
ARM GAS  /tmp/ccSFdtfu.s 			page 95


 3495              		.loc 1 1327 1 view .LVU942
 3496 002e 05B0     		add	sp, sp, #20
 3497              		@ sp needed
 3498 0030 00BD     		pop	{pc}
 3499              	.LVL261:
 3500              	.L250:
1321:Middlewares/Third_Party/FreeRTOS/Source/CMSIS_RTOS/cmsis_os.c ****       return osErrorOS;
 3501              		.loc 1 1321 5 is_stmt 1 view .LVU943
1321:Middlewares/Third_Party/FreeRTOS/Source/CMSIS_RTOS/cmsis_os.c ****       return osErrorOS;
 3502              		.loc 1 1321 9 is_stmt 0 view .LVU944
 3503 0032 0023     		movs	r3, #0
 3504 0034 0022     		movs	r2, #0
 3505 0036 01A9     		add	r1, sp, #4
 3506              	.LVL262:
1321:Middlewares/Third_Party/FreeRTOS/Source/CMSIS_RTOS/cmsis_os.c ****       return osErrorOS;
 3507              		.loc 1 1321 9 view .LVU945
 3508 0038 FFF7FEFF 		bl	xQueueGenericSend
 3509              	.LVL263:
1321:Middlewares/Third_Party/FreeRTOS/Source/CMSIS_RTOS/cmsis_os.c ****       return osErrorOS;
 3510              		.loc 1 1321 8 view .LVU946
 3511 003c 0128     		cmp	r0, #1
 3512 003e F5D0     		beq	.L252
 3513              	.L253:
1316:Middlewares/Third_Party/FreeRTOS/Source/CMSIS_RTOS/cmsis_os.c ****     }
 3514              		.loc 1 1316 14 view .LVU947
 3515 0040 FF20     		movs	r0, #255
 3516 0042 F4E7     		b	.L248
 3517              	.L258:
1318:Middlewares/Third_Party/FreeRTOS/Source/CMSIS_RTOS/cmsis_os.c ****   }
 3518              		.loc 1 1318 5 is_stmt 1 discriminator 1 view .LVU948
 3519 0044 8022     		movs	r2, #128
 3520 0046 034B     		ldr	r3, .L259
 3521 0048 5205     		lsls	r2, r2, #21
 3522 004a 1A60     		str	r2, [r3]
1326:Middlewares/Third_Party/FreeRTOS/Source/CMSIS_RTOS/cmsis_os.c **** }
 3523              		.loc 1 1326 10 is_stmt 0 discriminator 1 view .LVU949
 3524 004c 0020     		movs	r0, #0
 3525 004e EEE7     		b	.L248
 3526              	.LVL264:
 3527              	.L254:
1309:Middlewares/Third_Party/FreeRTOS/Source/CMSIS_RTOS/cmsis_os.c ****   }
 3528              		.loc 1 1309 12 view .LVU950
 3529 0050 8020     		movs	r0, #128
 3530              	.LVL265:
1309:Middlewares/Third_Party/FreeRTOS/Source/CMSIS_RTOS/cmsis_os.c ****   }
 3531              		.loc 1 1309 12 view .LVU951
 3532 0052 ECE7     		b	.L248
 3533              	.L260:
 3534              		.align	2
 3535              	.L259:
 3536 0054 04ED00E0 		.word	-536810236
 3537              		.cfi_endproc
 3538              	.LFE74:
 3540              		.section	.text.osMailGet,"ax",%progbits
 3541              		.align	1
 3542              		.p2align 2,,3
 3543              		.global	osMailGet
ARM GAS  /tmp/ccSFdtfu.s 			page 96


 3544              		.syntax unified
 3545              		.code	16
 3546              		.thumb_func
 3547              		.fpu softvfp
 3549              	osMailGet:
 3550              	.LVL266:
 3551              	.LFB75:
1328:Middlewares/Third_Party/FreeRTOS/Source/CMSIS_RTOS/cmsis_os.c **** 
1329:Middlewares/Third_Party/FreeRTOS/Source/CMSIS_RTOS/cmsis_os.c **** /**
1330:Middlewares/Third_Party/FreeRTOS/Source/CMSIS_RTOS/cmsis_os.c **** * @brief Get a mail from a queue
1331:Middlewares/Third_Party/FreeRTOS/Source/CMSIS_RTOS/cmsis_os.c **** * @param  queue_id   mail queue ID obtained with \ref osMailCreate.
1332:Middlewares/Third_Party/FreeRTOS/Source/CMSIS_RTOS/cmsis_os.c **** * @param millisec    timeout value or 0 in case of no time-out
1333:Middlewares/Third_Party/FreeRTOS/Source/CMSIS_RTOS/cmsis_os.c **** * @retval event that contains mail information or error code.
1334:Middlewares/Third_Party/FreeRTOS/Source/CMSIS_RTOS/cmsis_os.c **** * @note   MUST REMAIN UNCHANGED: \b osMailGet shall be consistent in every CMSIS-RTOS.
1335:Middlewares/Third_Party/FreeRTOS/Source/CMSIS_RTOS/cmsis_os.c **** */
1336:Middlewares/Third_Party/FreeRTOS/Source/CMSIS_RTOS/cmsis_os.c **** osEvent osMailGet (osMailQId queue_id, uint32_t millisec)
1337:Middlewares/Third_Party/FreeRTOS/Source/CMSIS_RTOS/cmsis_os.c **** {
 3552              		.loc 1 1337 1 is_stmt 1 view -0
 3553              		.cfi_startproc
 3554              		@ args = 0, pretend = 0, frame = 16
 3555              		@ frame_needed = 0, uses_anonymous_args = 0
1338:Middlewares/Third_Party/FreeRTOS/Source/CMSIS_RTOS/cmsis_os.c ****   portBASE_TYPE taskWoken;
 3556              		.loc 1 1338 3 view .LVU953
1339:Middlewares/Third_Party/FreeRTOS/Source/CMSIS_RTOS/cmsis_os.c ****   TickType_t ticks;
 3557              		.loc 1 1339 3 view .LVU954
1340:Middlewares/Third_Party/FreeRTOS/Source/CMSIS_RTOS/cmsis_os.c ****   osEvent event;
 3558              		.loc 1 1340 3 view .LVU955
1341:Middlewares/Third_Party/FreeRTOS/Source/CMSIS_RTOS/cmsis_os.c ****   
1342:Middlewares/Third_Party/FreeRTOS/Source/CMSIS_RTOS/cmsis_os.c ****   event.def.mail_id = queue_id;
 3559              		.loc 1 1342 3 view .LVU956
1337:Middlewares/Third_Party/FreeRTOS/Source/CMSIS_RTOS/cmsis_os.c ****   portBASE_TYPE taskWoken;
 3560              		.loc 1 1337 1 is_stmt 0 view .LVU957
 3561 0000 70B5     		push	{r4, r5, r6, lr}
 3562              	.LCFI44:
 3563              		.cfi_def_cfa_offset 16
 3564              		.cfi_offset 4, -16
 3565              		.cfi_offset 5, -12
 3566              		.cfi_offset 6, -8
 3567              		.cfi_offset 14, -4
 3568 0002 84B0     		sub	sp, sp, #16
 3569              	.LCFI45:
 3570              		.cfi_def_cfa_offset 32
 3571              		.loc 1 1342 21 view .LVU958
 3572 0004 01AC     		add	r4, sp, #4
1337:Middlewares/Third_Party/FreeRTOS/Source/CMSIS_RTOS/cmsis_os.c ****   portBASE_TYPE taskWoken;
 3573              		.loc 1 1337 1 view .LVU959
 3574 0006 0500     		movs	r5, r0
 3575 0008 1600     		movs	r6, r2
 3576              		.loc 1 1342 21 view .LVU960
 3577 000a A160     		str	r1, [r4, #8]
1343:Middlewares/Third_Party/FreeRTOS/Source/CMSIS_RTOS/cmsis_os.c ****   
1344:Middlewares/Third_Party/FreeRTOS/Source/CMSIS_RTOS/cmsis_os.c ****   if (queue_id == NULL) {
 3578              		.loc 1 1344 3 is_stmt 1 view .LVU961
 3579              		.loc 1 1344 6 is_stmt 0 view .LVU962
 3580 000c 0029     		cmp	r1, #0
 3581 000e 27D0     		beq	.L274
1345:Middlewares/Third_Party/FreeRTOS/Source/CMSIS_RTOS/cmsis_os.c ****     event.status = osErrorParameter;
ARM GAS  /tmp/ccSFdtfu.s 			page 97


1346:Middlewares/Third_Party/FreeRTOS/Source/CMSIS_RTOS/cmsis_os.c ****     return event;
1347:Middlewares/Third_Party/FreeRTOS/Source/CMSIS_RTOS/cmsis_os.c ****   }
1348:Middlewares/Third_Party/FreeRTOS/Source/CMSIS_RTOS/cmsis_os.c ****   
1349:Middlewares/Third_Party/FreeRTOS/Source/CMSIS_RTOS/cmsis_os.c ****   taskWoken = pdFALSE;
 3582              		.loc 1 1349 3 is_stmt 1 view .LVU963
 3583              		.loc 1 1349 13 is_stmt 0 view .LVU964
 3584 0010 0023     		movs	r3, #0
 3585 0012 0093     		str	r3, [sp]
1350:Middlewares/Third_Party/FreeRTOS/Source/CMSIS_RTOS/cmsis_os.c ****   
1351:Middlewares/Third_Party/FreeRTOS/Source/CMSIS_RTOS/cmsis_os.c ****   ticks = 0;
 3586              		.loc 1 1351 3 is_stmt 1 view .LVU965
 3587              	.LVL267:
1352:Middlewares/Third_Party/FreeRTOS/Source/CMSIS_RTOS/cmsis_os.c ****   if (millisec == osWaitForever) {
 3588              		.loc 1 1352 3 view .LVU966
1353:Middlewares/Third_Party/FreeRTOS/Source/CMSIS_RTOS/cmsis_os.c ****     ticks = portMAX_DELAY;
1354:Middlewares/Third_Party/FreeRTOS/Source/CMSIS_RTOS/cmsis_os.c ****   }
1355:Middlewares/Third_Party/FreeRTOS/Source/CMSIS_RTOS/cmsis_os.c ****   else if (millisec != 0) {
1356:Middlewares/Third_Party/FreeRTOS/Source/CMSIS_RTOS/cmsis_os.c ****     ticks = millisec / portTICK_PERIOD_MS;
1357:Middlewares/Third_Party/FreeRTOS/Source/CMSIS_RTOS/cmsis_os.c ****     if (ticks == 0) {
1358:Middlewares/Third_Party/FreeRTOS/Source/CMSIS_RTOS/cmsis_os.c ****       ticks = 1;
1359:Middlewares/Third_Party/FreeRTOS/Source/CMSIS_RTOS/cmsis_os.c ****     }
1360:Middlewares/Third_Party/FreeRTOS/Source/CMSIS_RTOS/cmsis_os.c ****   }
1361:Middlewares/Third_Party/FreeRTOS/Source/CMSIS_RTOS/cmsis_os.c ****   
1362:Middlewares/Third_Party/FreeRTOS/Source/CMSIS_RTOS/cmsis_os.c ****   if (inHandlerMode()) {
 3589              		.loc 1 1362 3 view .LVU967
 3590              	.LBB298:
 3591              	.LBI298:
 173:Middlewares/Third_Party/FreeRTOS/Source/CMSIS_RTOS/cmsis_os.c **** {
 3592              		.loc 1 173 12 view .LVU968
 3593              	.LBE298:
 175:Middlewares/Third_Party/FreeRTOS/Source/CMSIS_RTOS/cmsis_os.c **** }
 3594              		.loc 1 175 3 view .LVU969
 3595              	.LBB301:
 3596              	.LBB299:
 3597              	.LBI299:
 105:Drivers/CMSIS/Include/cmsis_gcc.h **** {
 3598              		.loc 2 105 61 view .LVU970
 3599              	.LBB300:
 107:Drivers/CMSIS/Include/cmsis_gcc.h **** 
 3600              		.loc 2 107 3 view .LVU971
 109:Drivers/CMSIS/Include/cmsis_gcc.h ****   return(result);
 3601              		.loc 2 109 3 view .LVU972
 3602              		.syntax divided
 3603              	@ 109 "Drivers/CMSIS/Include/cmsis_gcc.h" 1
 3604 0014 EFF30583 		MRS r3, ipsr
 3605              	@ 0 "" 2
 3606              	.LVL268:
 3607              		.loc 2 110 3 view .LVU973
 3608              		.loc 2 110 3 is_stmt 0 view .LVU974
 3609              		.thumb
 3610              		.syntax unified
 3611 0018 4868     		ldr	r0, [r1, #4]
 3612              	.LVL269:
 3613              		.loc 2 110 3 view .LVU975
 3614              	.LBE300:
 3615              	.LBE299:
 3616              	.LBE301:
ARM GAS  /tmp/ccSFdtfu.s 			page 98


 3617              		.loc 1 1362 6 view .LVU976
 3618 001a 002B     		cmp	r3, #0
 3619 001c 0FD1     		bne	.L275
1363:Middlewares/Third_Party/FreeRTOS/Source/CMSIS_RTOS/cmsis_os.c ****     if (xQueueReceiveFromISR(queue_id->handle, &event.value.p, &taskWoken) == pdTRUE) {
1364:Middlewares/Third_Party/FreeRTOS/Source/CMSIS_RTOS/cmsis_os.c ****       /* We have mail */
1365:Middlewares/Third_Party/FreeRTOS/Source/CMSIS_RTOS/cmsis_os.c ****       event.status = osEventMail;
1366:Middlewares/Third_Party/FreeRTOS/Source/CMSIS_RTOS/cmsis_os.c ****     }
1367:Middlewares/Third_Party/FreeRTOS/Source/CMSIS_RTOS/cmsis_os.c ****     else {
1368:Middlewares/Third_Party/FreeRTOS/Source/CMSIS_RTOS/cmsis_os.c ****       event.status = osOK;
1369:Middlewares/Third_Party/FreeRTOS/Source/CMSIS_RTOS/cmsis_os.c ****     }
1370:Middlewares/Third_Party/FreeRTOS/Source/CMSIS_RTOS/cmsis_os.c ****     portEND_SWITCHING_ISR(taskWoken);
1371:Middlewares/Third_Party/FreeRTOS/Source/CMSIS_RTOS/cmsis_os.c ****   }
1372:Middlewares/Third_Party/FreeRTOS/Source/CMSIS_RTOS/cmsis_os.c ****   else {
1373:Middlewares/Third_Party/FreeRTOS/Source/CMSIS_RTOS/cmsis_os.c ****     if (xQueueReceive(queue_id->handle, &event.value.p, ticks) == pdTRUE) {
 3620              		.loc 1 1373 5 is_stmt 1 view .LVU977
 3621              		.loc 1 1373 9 is_stmt 0 view .LVU978
 3622 001e 0023     		movs	r3, #0
 3623 0020 02A9     		add	r1, sp, #8
 3624              	.LVL270:
 3625              		.loc 1 1373 9 view .LVU979
 3626 0022 FFF7FEFF 		bl	xQueueGenericReceive
 3627              	.LVL271:
 3628              		.loc 1 1373 8 view .LVU980
 3629 0026 0128     		cmp	r0, #1
 3630 0028 20D0     		beq	.L276
1374:Middlewares/Third_Party/FreeRTOS/Source/CMSIS_RTOS/cmsis_os.c ****       /* We have mail */
1375:Middlewares/Third_Party/FreeRTOS/Source/CMSIS_RTOS/cmsis_os.c ****       event.status = osEventMail;
1376:Middlewares/Third_Party/FreeRTOS/Source/CMSIS_RTOS/cmsis_os.c ****     }
1377:Middlewares/Third_Party/FreeRTOS/Source/CMSIS_RTOS/cmsis_os.c ****     else {
1378:Middlewares/Third_Party/FreeRTOS/Source/CMSIS_RTOS/cmsis_os.c ****       event.status = (ticks == 0) ? osOK : osEventTimeout;
 3631              		.loc 1 1378 7 is_stmt 1 view .LVU981
 3632              		.loc 1 1378 42 is_stmt 0 view .LVU982
 3633 002a 731E     		subs	r3, r6, #1
 3634 002c 9E41     		sbcs	r6, r6, r3
 3635              	.LVL272:
 3636              		.loc 1 1378 42 view .LVU983
 3637 002e B601     		lsls	r6, r6, #6
 3638              		.loc 1 1378 20 view .LVU984
 3639 0030 0196     		str	r6, [sp, #4]
 3640              	.L266:
1379:Middlewares/Third_Party/FreeRTOS/Source/CMSIS_RTOS/cmsis_os.c ****     }
1380:Middlewares/Third_Party/FreeRTOS/Source/CMSIS_RTOS/cmsis_os.c ****   }
1381:Middlewares/Third_Party/FreeRTOS/Source/CMSIS_RTOS/cmsis_os.c ****   
1382:Middlewares/Third_Party/FreeRTOS/Source/CMSIS_RTOS/cmsis_os.c ****   return event;
 3641              		.loc 1 1382 3 is_stmt 1 view .LVU985
 3642              		.loc 1 1382 10 is_stmt 0 view .LVU986
 3643 0032 2B00     		movs	r3, r5
 3644 0034 07CC     		ldmia	r4!, {r0, r1, r2}
 3645 0036 07C3     		stmia	r3!, {r0, r1, r2}
 3646              	.LVL273:
 3647              	.L261:
1383:Middlewares/Third_Party/FreeRTOS/Source/CMSIS_RTOS/cmsis_os.c **** }
 3648              		.loc 1 1383 1 view .LVU987
 3649 0038 2800     		movs	r0, r5
 3650 003a 04B0     		add	sp, sp, #16
 3651              		@ sp needed
 3652              	.LVL274:
ARM GAS  /tmp/ccSFdtfu.s 			page 99


 3653              		.loc 1 1383 1 view .LVU988
 3654 003c 70BD     		pop	{r4, r5, r6, pc}
 3655              	.LVL275:
 3656              	.L275:
1363:Middlewares/Third_Party/FreeRTOS/Source/CMSIS_RTOS/cmsis_os.c ****       /* We have mail */
 3657              		.loc 1 1363 5 is_stmt 1 view .LVU989
1363:Middlewares/Third_Party/FreeRTOS/Source/CMSIS_RTOS/cmsis_os.c ****       /* We have mail */
 3658              		.loc 1 1363 9 is_stmt 0 view .LVU990
 3659 003e 6A46     		mov	r2, sp
 3660              	.LVL276:
1363:Middlewares/Third_Party/FreeRTOS/Source/CMSIS_RTOS/cmsis_os.c ****       /* We have mail */
 3661              		.loc 1 1363 9 view .LVU991
 3662 0040 02A9     		add	r1, sp, #8
 3663              	.LVL277:
1363:Middlewares/Third_Party/FreeRTOS/Source/CMSIS_RTOS/cmsis_os.c ****       /* We have mail */
 3664              		.loc 1 1363 9 view .LVU992
 3665 0042 FFF7FEFF 		bl	xQueueReceiveFromISR
 3666              	.LVL278:
1368:Middlewares/Third_Party/FreeRTOS/Source/CMSIS_RTOS/cmsis_os.c ****     }
 3667              		.loc 1 1368 20 view .LVU993
 3668 0046 0138     		subs	r0, r0, #1
 3669 0048 4342     		rsbs	r3, r0, #0
 3670 004a 5841     		adcs	r0, r0, r3
1370:Middlewares/Third_Party/FreeRTOS/Source/CMSIS_RTOS/cmsis_os.c ****   }
 3671              		.loc 1 1370 5 view .LVU994
 3672 004c 009B     		ldr	r3, [sp]
1368:Middlewares/Third_Party/FreeRTOS/Source/CMSIS_RTOS/cmsis_os.c ****     }
 3673              		.loc 1 1368 20 view .LVU995
 3674 004e 4001     		lsls	r0, r0, #5
 3675 0050 0190     		str	r0, [sp, #4]
1370:Middlewares/Third_Party/FreeRTOS/Source/CMSIS_RTOS/cmsis_os.c ****   }
 3676              		.loc 1 1370 5 is_stmt 1 view .LVU996
 3677 0052 002B     		cmp	r3, #0
 3678 0054 EDD0     		beq	.L266
1370:Middlewares/Third_Party/FreeRTOS/Source/CMSIS_RTOS/cmsis_os.c ****   }
 3679              		.loc 1 1370 5 discriminator 1 view .LVU997
 3680 0056 8022     		movs	r2, #128
 3681 0058 064B     		ldr	r3, .L277
 3682 005a 5205     		lsls	r2, r2, #21
 3683 005c 1A60     		str	r2, [r3]
 3684 005e E8E7     		b	.L266
 3685              	.LVL279:
 3686              	.L274:
1345:Middlewares/Third_Party/FreeRTOS/Source/CMSIS_RTOS/cmsis_os.c ****     return event;
 3687              		.loc 1 1345 5 view .LVU998
1345:Middlewares/Third_Party/FreeRTOS/Source/CMSIS_RTOS/cmsis_os.c ****     return event;
 3688              		.loc 1 1345 18 is_stmt 0 view .LVU999
 3689 0060 8023     		movs	r3, #128
 3690 0062 0193     		str	r3, [sp, #4]
1346:Middlewares/Third_Party/FreeRTOS/Source/CMSIS_RTOS/cmsis_os.c ****   }
 3691              		.loc 1 1346 5 is_stmt 1 view .LVU1000
1346:Middlewares/Third_Party/FreeRTOS/Source/CMSIS_RTOS/cmsis_os.c ****   }
 3692              		.loc 1 1346 12 is_stmt 0 view .LVU1001
 3693 0064 0300     		movs	r3, r0
 3694 0066 07CC     		ldmia	r4!, {r0, r1, r2}
 3695 0068 07C3     		stmia	r3!, {r0, r1, r2}
 3696              	.LVL280:
ARM GAS  /tmp/ccSFdtfu.s 			page 100


1346:Middlewares/Third_Party/FreeRTOS/Source/CMSIS_RTOS/cmsis_os.c ****   }
 3697              		.loc 1 1346 12 view .LVU1002
 3698 006a E5E7     		b	.L261
 3699              	.LVL281:
 3700              	.L276:
1375:Middlewares/Third_Party/FreeRTOS/Source/CMSIS_RTOS/cmsis_os.c ****     }
 3701              		.loc 1 1375 7 is_stmt 1 view .LVU1003
1375:Middlewares/Third_Party/FreeRTOS/Source/CMSIS_RTOS/cmsis_os.c ****     }
 3702              		.loc 1 1375 20 is_stmt 0 view .LVU1004
 3703 006c 2023     		movs	r3, #32
 3704 006e 2360     		str	r3, [r4]
 3705 0070 DFE7     		b	.L266
 3706              	.L278:
 3707 0072 C046     		.align	2
 3708              	.L277:
 3709 0074 04ED00E0 		.word	-536810236
 3710              		.cfi_endproc
 3711              	.LFE75:
 3713              		.section	.text.osMailFree,"ax",%progbits
 3714              		.align	1
 3715              		.p2align 2,,3
 3716              		.global	osMailFree
 3717              		.syntax unified
 3718              		.code	16
 3719              		.thumb_func
 3720              		.fpu softvfp
 3722              	osMailFree:
 3723              	.LVL282:
 3724              	.LFB76:
1384:Middlewares/Third_Party/FreeRTOS/Source/CMSIS_RTOS/cmsis_os.c **** 
1385:Middlewares/Third_Party/FreeRTOS/Source/CMSIS_RTOS/cmsis_os.c **** /**
1386:Middlewares/Third_Party/FreeRTOS/Source/CMSIS_RTOS/cmsis_os.c **** * @brief Free a memory block from a mail
1387:Middlewares/Third_Party/FreeRTOS/Source/CMSIS_RTOS/cmsis_os.c **** * @param  queue_id mail queue ID obtained with \ref osMailCreate.
1388:Middlewares/Third_Party/FreeRTOS/Source/CMSIS_RTOS/cmsis_os.c **** * @param  mail     pointer to the memory block that was obtained with \ref osMailGet.
1389:Middlewares/Third_Party/FreeRTOS/Source/CMSIS_RTOS/cmsis_os.c **** * @retval status code that indicates the execution status of the function.
1390:Middlewares/Third_Party/FreeRTOS/Source/CMSIS_RTOS/cmsis_os.c **** * @note   MUST REMAIN UNCHANGED: \b osMailFree shall be consistent in every CMSIS-RTOS.
1391:Middlewares/Third_Party/FreeRTOS/Source/CMSIS_RTOS/cmsis_os.c **** */
1392:Middlewares/Third_Party/FreeRTOS/Source/CMSIS_RTOS/cmsis_os.c **** osStatus osMailFree (osMailQId queue_id, void *mail)
1393:Middlewares/Third_Party/FreeRTOS/Source/CMSIS_RTOS/cmsis_os.c **** {
 3725              		.loc 1 1393 1 is_stmt 1 view -0
 3726              		.cfi_startproc
 3727              		@ args = 0, pretend = 0, frame = 0
 3728              		@ frame_needed = 0, uses_anonymous_args = 0
1394:Middlewares/Third_Party/FreeRTOS/Source/CMSIS_RTOS/cmsis_os.c ****   if (queue_id == NULL) {
 3729              		.loc 1 1394 3 view .LVU1006
1393:Middlewares/Third_Party/FreeRTOS/Source/CMSIS_RTOS/cmsis_os.c ****   if (queue_id == NULL) {
 3730              		.loc 1 1393 1 is_stmt 0 view .LVU1007
 3731 0000 10B5     		push	{r4, lr}
 3732              	.LCFI46:
 3733              		.cfi_def_cfa_offset 8
 3734              		.cfi_offset 4, -8
 3735              		.cfi_offset 14, -4
 3736              		.loc 1 1394 6 view .LVU1008
 3737 0002 0028     		cmp	r0, #0
 3738 0004 14D0     		beq	.L286
1395:Middlewares/Third_Party/FreeRTOS/Source/CMSIS_RTOS/cmsis_os.c ****     return osErrorParameter;
1396:Middlewares/Third_Party/FreeRTOS/Source/CMSIS_RTOS/cmsis_os.c ****   }
ARM GAS  /tmp/ccSFdtfu.s 			page 101


1397:Middlewares/Third_Party/FreeRTOS/Source/CMSIS_RTOS/cmsis_os.c ****   
1398:Middlewares/Third_Party/FreeRTOS/Source/CMSIS_RTOS/cmsis_os.c ****   return osPoolFree(queue_id->pool, mail);
 3739              		.loc 1 1398 3 is_stmt 1 view .LVU1009
 3740              		.loc 1 1398 10 is_stmt 0 view .LVU1010
 3741 0006 8468     		ldr	r4, [r0, #8]
 3742              	.LVL283:
 3743              	.LBB302:
 3744              	.LBI302:
1042:Middlewares/Third_Party/FreeRTOS/Source/CMSIS_RTOS/cmsis_os.c **** {
 3745              		.loc 1 1042 10 is_stmt 1 view .LVU1011
 3746              	.LBB303:
1044:Middlewares/Third_Party/FreeRTOS/Source/CMSIS_RTOS/cmsis_os.c ****   
 3747              		.loc 1 1044 3 view .LVU1012
1046:Middlewares/Third_Party/FreeRTOS/Source/CMSIS_RTOS/cmsis_os.c ****     return osErrorParameter;
 3748              		.loc 1 1046 3 view .LVU1013
1046:Middlewares/Third_Party/FreeRTOS/Source/CMSIS_RTOS/cmsis_os.c ****     return osErrorParameter;
 3749              		.loc 1 1046 6 is_stmt 0 view .LVU1014
 3750 0008 002C     		cmp	r4, #0
 3751 000a 11D0     		beq	.L286
1050:Middlewares/Third_Party/FreeRTOS/Source/CMSIS_RTOS/cmsis_os.c ****     return osErrorParameter;
 3752              		.loc 1 1050 3 is_stmt 1 view .LVU1015
1050:Middlewares/Third_Party/FreeRTOS/Source/CMSIS_RTOS/cmsis_os.c ****     return osErrorParameter;
 3753              		.loc 1 1050 6 is_stmt 0 view .LVU1016
 3754 000c 0029     		cmp	r1, #0
 3755 000e 0FD0     		beq	.L286
1054:Middlewares/Third_Party/FreeRTOS/Source/CMSIS_RTOS/cmsis_os.c ****     return osErrorParameter;
 3756              		.loc 1 1054 3 is_stmt 1 view .LVU1017
1054:Middlewares/Third_Party/FreeRTOS/Source/CMSIS_RTOS/cmsis_os.c ****     return osErrorParameter;
 3757              		.loc 1 1054 22 is_stmt 0 view .LVU1018
 3758 0010 2068     		ldr	r0, [r4]
 3759              	.LVL284:
1054:Middlewares/Third_Party/FreeRTOS/Source/CMSIS_RTOS/cmsis_os.c ****     return osErrorParameter;
 3760              		.loc 1 1054 6 view .LVU1019
 3761 0012 8142     		cmp	r1, r0
 3762 0014 0CD3     		bcc	.L286
1058:Middlewares/Third_Party/FreeRTOS/Source/CMSIS_RTOS/cmsis_os.c ****   if (index % pool_id->item_sz) {
 3763              		.loc 1 1058 3 is_stmt 1 view .LVU1020
 3764              	.LVL285:
1059:Middlewares/Third_Party/FreeRTOS/Source/CMSIS_RTOS/cmsis_os.c ****     return osErrorParameter;
 3765              		.loc 1 1059 3 view .LVU1021
1058:Middlewares/Third_Party/FreeRTOS/Source/CMSIS_RTOS/cmsis_os.c ****   if (index % pool_id->item_sz) {
 3766              		.loc 1 1058 9 is_stmt 0 view .LVU1022
 3767 0016 081A     		subs	r0, r1, r0
 3768              	.LVL286:
1058:Middlewares/Third_Party/FreeRTOS/Source/CMSIS_RTOS/cmsis_os.c ****   if (index % pool_id->item_sz) {
 3769              		.loc 1 1058 9 view .LVU1023
 3770 0018 E168     		ldr	r1, [r4, #12]
 3771              	.LVL287:
1058:Middlewares/Third_Party/FreeRTOS/Source/CMSIS_RTOS/cmsis_os.c ****   if (index % pool_id->item_sz) {
 3772              		.loc 1 1058 9 view .LVU1024
 3773 001a FFF7FEFF 		bl	__aeabi_uidivmod
 3774              	.LVL288:
1059:Middlewares/Third_Party/FreeRTOS/Source/CMSIS_RTOS/cmsis_os.c ****     return osErrorParameter;
 3775              		.loc 1 1059 6 view .LVU1025
 3776 001e 0029     		cmp	r1, #0
 3777 0020 06D1     		bne	.L286
1062:Middlewares/Third_Party/FreeRTOS/Source/CMSIS_RTOS/cmsis_os.c ****   if (index >= pool_id->pool_sz) {
ARM GAS  /tmp/ccSFdtfu.s 			page 102


 3778              		.loc 1 1062 3 is_stmt 1 view .LVU1026
 3779              	.LVL289:
1063:Middlewares/Third_Party/FreeRTOS/Source/CMSIS_RTOS/cmsis_os.c ****     return osErrorParameter;
 3780              		.loc 1 1063 3 view .LVU1027
1063:Middlewares/Third_Party/FreeRTOS/Source/CMSIS_RTOS/cmsis_os.c ****     return osErrorParameter;
 3781              		.loc 1 1063 6 is_stmt 0 view .LVU1028
 3782 0022 A368     		ldr	r3, [r4, #8]
 3783 0024 9842     		cmp	r0, r3
 3784 0026 03D2     		bcs	.L286
1067:Middlewares/Third_Party/FreeRTOS/Source/CMSIS_RTOS/cmsis_os.c ****   
 3785              		.loc 1 1067 3 is_stmt 1 view .LVU1029
1067:Middlewares/Third_Party/FreeRTOS/Source/CMSIS_RTOS/cmsis_os.c ****   
 3786              		.loc 1 1067 27 is_stmt 0 view .LVU1030
 3787 0028 6368     		ldr	r3, [r4, #4]
 3788 002a 1954     		strb	r1, [r3, r0]
1069:Middlewares/Third_Party/FreeRTOS/Source/CMSIS_RTOS/cmsis_os.c **** }
 3789              		.loc 1 1069 3 is_stmt 1 view .LVU1031
1069:Middlewares/Third_Party/FreeRTOS/Source/CMSIS_RTOS/cmsis_os.c **** }
 3790              		.loc 1 1069 10 is_stmt 0 view .LVU1032
 3791 002c 0020     		movs	r0, #0
 3792              	.LVL290:
1069:Middlewares/Third_Party/FreeRTOS/Source/CMSIS_RTOS/cmsis_os.c **** }
 3793              		.loc 1 1069 10 view .LVU1033
 3794 002e 00E0     		b	.L279
 3795              	.LVL291:
 3796              	.L286:
1069:Middlewares/Third_Party/FreeRTOS/Source/CMSIS_RTOS/cmsis_os.c **** }
 3797              		.loc 1 1069 10 view .LVU1034
 3798              	.LBE303:
 3799              	.LBE302:
1395:Middlewares/Third_Party/FreeRTOS/Source/CMSIS_RTOS/cmsis_os.c ****   }
 3800              		.loc 1 1395 12 view .LVU1035
 3801 0030 8020     		movs	r0, #128
 3802              	.L279:
1399:Middlewares/Third_Party/FreeRTOS/Source/CMSIS_RTOS/cmsis_os.c **** }
 3803              		.loc 1 1399 1 view .LVU1036
 3804              		@ sp needed
 3805 0032 10BD     		pop	{r4, pc}
 3806              		.cfi_endproc
 3807              	.LFE76:
 3809              		.section	.text.osSystickHandler,"ax",%progbits
 3810              		.align	1
 3811              		.p2align 2,,3
 3812              		.global	osSystickHandler
 3813              		.syntax unified
 3814              		.code	16
 3815              		.thumb_func
 3816              		.fpu softvfp
 3818              	osSystickHandler:
 3819              	.LFB77:
1400:Middlewares/Third_Party/FreeRTOS/Source/CMSIS_RTOS/cmsis_os.c **** #endif  /* Use Mail Queues */
1401:Middlewares/Third_Party/FreeRTOS/Source/CMSIS_RTOS/cmsis_os.c **** 
1402:Middlewares/Third_Party/FreeRTOS/Source/CMSIS_RTOS/cmsis_os.c **** /*************************** Additional specific APIs to Free RTOS ************/
1403:Middlewares/Third_Party/FreeRTOS/Source/CMSIS_RTOS/cmsis_os.c **** /**
1404:Middlewares/Third_Party/FreeRTOS/Source/CMSIS_RTOS/cmsis_os.c **** * @brief  Handles the tick increment
1405:Middlewares/Third_Party/FreeRTOS/Source/CMSIS_RTOS/cmsis_os.c **** * @param  none.
1406:Middlewares/Third_Party/FreeRTOS/Source/CMSIS_RTOS/cmsis_os.c **** * @retval none.
ARM GAS  /tmp/ccSFdtfu.s 			page 103


1407:Middlewares/Third_Party/FreeRTOS/Source/CMSIS_RTOS/cmsis_os.c **** */
1408:Middlewares/Third_Party/FreeRTOS/Source/CMSIS_RTOS/cmsis_os.c **** void osSystickHandler(void)
1409:Middlewares/Third_Party/FreeRTOS/Source/CMSIS_RTOS/cmsis_os.c **** {
 3820              		.loc 1 1409 1 is_stmt 1 view -0
 3821              		.cfi_startproc
 3822              		@ args = 0, pretend = 0, frame = 0
 3823              		@ frame_needed = 0, uses_anonymous_args = 0
1410:Middlewares/Third_Party/FreeRTOS/Source/CMSIS_RTOS/cmsis_os.c **** 
1411:Middlewares/Third_Party/FreeRTOS/Source/CMSIS_RTOS/cmsis_os.c **** #if (INCLUDE_xTaskGetSchedulerState  == 1 )
1412:Middlewares/Third_Party/FreeRTOS/Source/CMSIS_RTOS/cmsis_os.c ****   if (xTaskGetSchedulerState() != taskSCHEDULER_NOT_STARTED)
 3824              		.loc 1 1412 3 view .LVU1038
1409:Middlewares/Third_Party/FreeRTOS/Source/CMSIS_RTOS/cmsis_os.c **** 
 3825              		.loc 1 1409 1 is_stmt 0 view .LVU1039
 3826 0000 10B5     		push	{r4, lr}
 3827              	.LCFI47:
 3828              		.cfi_def_cfa_offset 8
 3829              		.cfi_offset 4, -8
 3830              		.cfi_offset 14, -4
 3831              		.loc 1 1412 7 view .LVU1040
 3832 0002 FFF7FEFF 		bl	xTaskGetSchedulerState
 3833              	.LVL292:
 3834              		.loc 1 1412 6 view .LVU1041
 3835 0006 0128     		cmp	r0, #1
 3836 0008 01D0     		beq	.L287
1413:Middlewares/Third_Party/FreeRTOS/Source/CMSIS_RTOS/cmsis_os.c ****   {
1414:Middlewares/Third_Party/FreeRTOS/Source/CMSIS_RTOS/cmsis_os.c **** #endif  /* INCLUDE_xTaskGetSchedulerState */  
1415:Middlewares/Third_Party/FreeRTOS/Source/CMSIS_RTOS/cmsis_os.c ****     xPortSysTickHandler();
 3837              		.loc 1 1415 5 is_stmt 1 view .LVU1042
 3838 000a FFF7FEFF 		bl	SysTick_Handler
 3839              	.LVL293:
 3840              	.L287:
1416:Middlewares/Third_Party/FreeRTOS/Source/CMSIS_RTOS/cmsis_os.c **** #if (INCLUDE_xTaskGetSchedulerState  == 1 )
1417:Middlewares/Third_Party/FreeRTOS/Source/CMSIS_RTOS/cmsis_os.c ****   }
1418:Middlewares/Third_Party/FreeRTOS/Source/CMSIS_RTOS/cmsis_os.c **** #endif  /* INCLUDE_xTaskGetSchedulerState */  
1419:Middlewares/Third_Party/FreeRTOS/Source/CMSIS_RTOS/cmsis_os.c **** }
 3841              		.loc 1 1419 1 is_stmt 0 view .LVU1043
 3842              		@ sp needed
 3843 000e 10BD     		pop	{r4, pc}
 3844              		.cfi_endproc
 3845              	.LFE77:
 3847              		.section	.text.osThreadSuspend,"ax",%progbits
 3848              		.align	1
 3849              		.p2align 2,,3
 3850              		.global	osThreadSuspend
 3851              		.syntax unified
 3852              		.code	16
 3853              		.thumb_func
 3854              		.fpu softvfp
 3856              	osThreadSuspend:
 3857              	.LVL294:
 3858              	.LFB78:
1420:Middlewares/Third_Party/FreeRTOS/Source/CMSIS_RTOS/cmsis_os.c **** 
1421:Middlewares/Third_Party/FreeRTOS/Source/CMSIS_RTOS/cmsis_os.c **** #if ( INCLUDE_eTaskGetState == 1 )
1422:Middlewares/Third_Party/FreeRTOS/Source/CMSIS_RTOS/cmsis_os.c **** /**
1423:Middlewares/Third_Party/FreeRTOS/Source/CMSIS_RTOS/cmsis_os.c **** * @brief  Obtain the state of any thread.
1424:Middlewares/Third_Party/FreeRTOS/Source/CMSIS_RTOS/cmsis_os.c **** * @param   thread_id   thread ID obtained by \ref osThreadCreate or \ref osThreadGetId.
1425:Middlewares/Third_Party/FreeRTOS/Source/CMSIS_RTOS/cmsis_os.c **** * @retval  the stae of the thread, states are encoded by the osThreadState enumerated type.
ARM GAS  /tmp/ccSFdtfu.s 			page 104


1426:Middlewares/Third_Party/FreeRTOS/Source/CMSIS_RTOS/cmsis_os.c **** */
1427:Middlewares/Third_Party/FreeRTOS/Source/CMSIS_RTOS/cmsis_os.c **** osThreadState osThreadGetState(osThreadId thread_id)
1428:Middlewares/Third_Party/FreeRTOS/Source/CMSIS_RTOS/cmsis_os.c **** {
1429:Middlewares/Third_Party/FreeRTOS/Source/CMSIS_RTOS/cmsis_os.c ****   eTaskState ThreadState;
1430:Middlewares/Third_Party/FreeRTOS/Source/CMSIS_RTOS/cmsis_os.c ****   osThreadState result;
1431:Middlewares/Third_Party/FreeRTOS/Source/CMSIS_RTOS/cmsis_os.c ****   
1432:Middlewares/Third_Party/FreeRTOS/Source/CMSIS_RTOS/cmsis_os.c ****   ThreadState = eTaskGetState(thread_id);
1433:Middlewares/Third_Party/FreeRTOS/Source/CMSIS_RTOS/cmsis_os.c ****   
1434:Middlewares/Third_Party/FreeRTOS/Source/CMSIS_RTOS/cmsis_os.c ****   switch (ThreadState)
1435:Middlewares/Third_Party/FreeRTOS/Source/CMSIS_RTOS/cmsis_os.c ****   {
1436:Middlewares/Third_Party/FreeRTOS/Source/CMSIS_RTOS/cmsis_os.c ****   case eRunning :
1437:Middlewares/Third_Party/FreeRTOS/Source/CMSIS_RTOS/cmsis_os.c ****     result = osThreadRunning;
1438:Middlewares/Third_Party/FreeRTOS/Source/CMSIS_RTOS/cmsis_os.c ****     break;
1439:Middlewares/Third_Party/FreeRTOS/Source/CMSIS_RTOS/cmsis_os.c ****   case eReady :
1440:Middlewares/Third_Party/FreeRTOS/Source/CMSIS_RTOS/cmsis_os.c ****     result = osThreadReady;
1441:Middlewares/Third_Party/FreeRTOS/Source/CMSIS_RTOS/cmsis_os.c ****     break;
1442:Middlewares/Third_Party/FreeRTOS/Source/CMSIS_RTOS/cmsis_os.c ****   case eBlocked :
1443:Middlewares/Third_Party/FreeRTOS/Source/CMSIS_RTOS/cmsis_os.c ****     result = osThreadBlocked;
1444:Middlewares/Third_Party/FreeRTOS/Source/CMSIS_RTOS/cmsis_os.c ****     break;
1445:Middlewares/Third_Party/FreeRTOS/Source/CMSIS_RTOS/cmsis_os.c ****   case eSuspended :
1446:Middlewares/Third_Party/FreeRTOS/Source/CMSIS_RTOS/cmsis_os.c ****     result = osThreadSuspended;
1447:Middlewares/Third_Party/FreeRTOS/Source/CMSIS_RTOS/cmsis_os.c ****     break;
1448:Middlewares/Third_Party/FreeRTOS/Source/CMSIS_RTOS/cmsis_os.c ****   case eDeleted :
1449:Middlewares/Third_Party/FreeRTOS/Source/CMSIS_RTOS/cmsis_os.c ****     result = osThreadDeleted;
1450:Middlewares/Third_Party/FreeRTOS/Source/CMSIS_RTOS/cmsis_os.c ****     break;
1451:Middlewares/Third_Party/FreeRTOS/Source/CMSIS_RTOS/cmsis_os.c ****   default:
1452:Middlewares/Third_Party/FreeRTOS/Source/CMSIS_RTOS/cmsis_os.c ****     result = osThreadError;
1453:Middlewares/Third_Party/FreeRTOS/Source/CMSIS_RTOS/cmsis_os.c ****   } 
1454:Middlewares/Third_Party/FreeRTOS/Source/CMSIS_RTOS/cmsis_os.c ****   
1455:Middlewares/Third_Party/FreeRTOS/Source/CMSIS_RTOS/cmsis_os.c ****   return result;
1456:Middlewares/Third_Party/FreeRTOS/Source/CMSIS_RTOS/cmsis_os.c **** }
1457:Middlewares/Third_Party/FreeRTOS/Source/CMSIS_RTOS/cmsis_os.c **** #endif /* INCLUDE_eTaskGetState */
1458:Middlewares/Third_Party/FreeRTOS/Source/CMSIS_RTOS/cmsis_os.c **** 
1459:Middlewares/Third_Party/FreeRTOS/Source/CMSIS_RTOS/cmsis_os.c **** #if (INCLUDE_eTaskGetState == 1)
1460:Middlewares/Third_Party/FreeRTOS/Source/CMSIS_RTOS/cmsis_os.c **** /**
1461:Middlewares/Third_Party/FreeRTOS/Source/CMSIS_RTOS/cmsis_os.c **** * @brief Check if a thread is already suspended or not.
1462:Middlewares/Third_Party/FreeRTOS/Source/CMSIS_RTOS/cmsis_os.c **** * @param thread_id thread ID obtained by \ref osThreadCreate or \ref osThreadGetId.
1463:Middlewares/Third_Party/FreeRTOS/Source/CMSIS_RTOS/cmsis_os.c **** * @retval status code that indicates the execution status of the function.
1464:Middlewares/Third_Party/FreeRTOS/Source/CMSIS_RTOS/cmsis_os.c **** */
1465:Middlewares/Third_Party/FreeRTOS/Source/CMSIS_RTOS/cmsis_os.c **** osStatus osThreadIsSuspended(osThreadId thread_id)
1466:Middlewares/Third_Party/FreeRTOS/Source/CMSIS_RTOS/cmsis_os.c **** {
1467:Middlewares/Third_Party/FreeRTOS/Source/CMSIS_RTOS/cmsis_os.c ****   if (eTaskGetState(thread_id) == eSuspended)
1468:Middlewares/Third_Party/FreeRTOS/Source/CMSIS_RTOS/cmsis_os.c ****     return osOK;
1469:Middlewares/Third_Party/FreeRTOS/Source/CMSIS_RTOS/cmsis_os.c ****   else
1470:Middlewares/Third_Party/FreeRTOS/Source/CMSIS_RTOS/cmsis_os.c ****     return osErrorOS;
1471:Middlewares/Third_Party/FreeRTOS/Source/CMSIS_RTOS/cmsis_os.c **** }
1472:Middlewares/Third_Party/FreeRTOS/Source/CMSIS_RTOS/cmsis_os.c **** #endif /* INCLUDE_eTaskGetState */
1473:Middlewares/Third_Party/FreeRTOS/Source/CMSIS_RTOS/cmsis_os.c **** /**
1474:Middlewares/Third_Party/FreeRTOS/Source/CMSIS_RTOS/cmsis_os.c **** * @brief  Suspend execution of a thread.
1475:Middlewares/Third_Party/FreeRTOS/Source/CMSIS_RTOS/cmsis_os.c **** * @param   thread_id   thread ID obtained by \ref osThreadCreate or \ref osThreadGetId.
1476:Middlewares/Third_Party/FreeRTOS/Source/CMSIS_RTOS/cmsis_os.c **** * @retval  status code that indicates the execution status of the function.
1477:Middlewares/Third_Party/FreeRTOS/Source/CMSIS_RTOS/cmsis_os.c **** */
1478:Middlewares/Third_Party/FreeRTOS/Source/CMSIS_RTOS/cmsis_os.c **** osStatus osThreadSuspend (osThreadId thread_id)
1479:Middlewares/Third_Party/FreeRTOS/Source/CMSIS_RTOS/cmsis_os.c **** {
 3859              		.loc 1 1479 1 is_stmt 1 view -0
 3860              		.cfi_startproc
 3861              		@ args = 0, pretend = 0, frame = 0
ARM GAS  /tmp/ccSFdtfu.s 			page 105


 3862              		@ frame_needed = 0, uses_anonymous_args = 0
1480:Middlewares/Third_Party/FreeRTOS/Source/CMSIS_RTOS/cmsis_os.c **** #if (INCLUDE_vTaskSuspend == 1)
1481:Middlewares/Third_Party/FreeRTOS/Source/CMSIS_RTOS/cmsis_os.c ****     vTaskSuspend(thread_id);
 3863              		.loc 1 1481 5 view .LVU1045
1479:Middlewares/Third_Party/FreeRTOS/Source/CMSIS_RTOS/cmsis_os.c **** #if (INCLUDE_vTaskSuspend == 1)
 3864              		.loc 1 1479 1 is_stmt 0 view .LVU1046
 3865 0000 10B5     		push	{r4, lr}
 3866              	.LCFI48:
 3867              		.cfi_def_cfa_offset 8
 3868              		.cfi_offset 4, -8
 3869              		.cfi_offset 14, -4
 3870              		.loc 1 1481 5 view .LVU1047
 3871 0002 FFF7FEFF 		bl	vTaskSuspend
 3872              	.LVL295:
1482:Middlewares/Third_Party/FreeRTOS/Source/CMSIS_RTOS/cmsis_os.c ****   
1483:Middlewares/Third_Party/FreeRTOS/Source/CMSIS_RTOS/cmsis_os.c ****   return osOK;
 3873              		.loc 1 1483 3 is_stmt 1 view .LVU1048
1484:Middlewares/Third_Party/FreeRTOS/Source/CMSIS_RTOS/cmsis_os.c **** #else
1485:Middlewares/Third_Party/FreeRTOS/Source/CMSIS_RTOS/cmsis_os.c ****   return osErrorResource;
1486:Middlewares/Third_Party/FreeRTOS/Source/CMSIS_RTOS/cmsis_os.c **** #endif
1487:Middlewares/Third_Party/FreeRTOS/Source/CMSIS_RTOS/cmsis_os.c **** }
 3874              		.loc 1 1487 1 is_stmt 0 view .LVU1049
 3875              		@ sp needed
 3876 0006 0020     		movs	r0, #0
 3877 0008 10BD     		pop	{r4, pc}
 3878              		.cfi_endproc
 3879              	.LFE78:
 3881 000a C046     		.section	.text.osThreadResume,"ax",%progbits
 3882              		.align	1
 3883              		.p2align 2,,3
 3884              		.global	osThreadResume
 3885              		.syntax unified
 3886              		.code	16
 3887              		.thumb_func
 3888              		.fpu softvfp
 3890              	osThreadResume:
 3891              	.LVL296:
 3892              	.LFB79:
1488:Middlewares/Third_Party/FreeRTOS/Source/CMSIS_RTOS/cmsis_os.c **** 
1489:Middlewares/Third_Party/FreeRTOS/Source/CMSIS_RTOS/cmsis_os.c **** /**
1490:Middlewares/Third_Party/FreeRTOS/Source/CMSIS_RTOS/cmsis_os.c **** * @brief  Resume execution of a suspended thread.
1491:Middlewares/Third_Party/FreeRTOS/Source/CMSIS_RTOS/cmsis_os.c **** * @param   thread_id   thread ID obtained by \ref osThreadCreate or \ref osThreadGetId.
1492:Middlewares/Third_Party/FreeRTOS/Source/CMSIS_RTOS/cmsis_os.c **** * @retval  status code that indicates the execution status of the function.
1493:Middlewares/Third_Party/FreeRTOS/Source/CMSIS_RTOS/cmsis_os.c **** */
1494:Middlewares/Third_Party/FreeRTOS/Source/CMSIS_RTOS/cmsis_os.c **** osStatus osThreadResume (osThreadId thread_id)
1495:Middlewares/Third_Party/FreeRTOS/Source/CMSIS_RTOS/cmsis_os.c **** {
 3893              		.loc 1 1495 1 is_stmt 1 view -0
 3894              		.cfi_startproc
 3895              		@ args = 0, pretend = 0, frame = 0
 3896              		@ frame_needed = 0, uses_anonymous_args = 0
1496:Middlewares/Third_Party/FreeRTOS/Source/CMSIS_RTOS/cmsis_os.c **** #if (INCLUDE_vTaskSuspend == 1)  
1497:Middlewares/Third_Party/FreeRTOS/Source/CMSIS_RTOS/cmsis_os.c ****   if(inHandlerMode())
 3897              		.loc 1 1497 3 view .LVU1051
 3898              	.LBB304:
 3899              	.LBI304:
 173:Middlewares/Third_Party/FreeRTOS/Source/CMSIS_RTOS/cmsis_os.c **** {
 3900              		.loc 1 173 12 view .LVU1052
ARM GAS  /tmp/ccSFdtfu.s 			page 106


 3901              	.LBE304:
 175:Middlewares/Third_Party/FreeRTOS/Source/CMSIS_RTOS/cmsis_os.c **** }
 3902              		.loc 1 175 3 view .LVU1053
 3903              	.LBB309:
 3904              	.LBB305:
 3905              	.LBI305:
 105:Drivers/CMSIS/Include/cmsis_gcc.h **** {
 3906              		.loc 2 105 61 view .LVU1054
 3907              	.LBB306:
 107:Drivers/CMSIS/Include/cmsis_gcc.h **** 
 3908              		.loc 2 107 3 view .LVU1055
 109:Drivers/CMSIS/Include/cmsis_gcc.h ****   return(result);
 3909              		.loc 2 109 3 view .LVU1056
 3910              	.LBE306:
 3911              	.LBE305:
 3912              	.LBE309:
1495:Middlewares/Third_Party/FreeRTOS/Source/CMSIS_RTOS/cmsis_os.c **** #if (INCLUDE_vTaskSuspend == 1)  
 3913              		.loc 1 1495 1 is_stmt 0 view .LVU1057
 3914 0000 10B5     		push	{r4, lr}
 3915              	.LCFI49:
 3916              		.cfi_def_cfa_offset 8
 3917              		.cfi_offset 4, -8
 3918              		.cfi_offset 14, -4
 3919              	.LBB310:
 3920              	.LBB308:
 3921              	.LBB307:
 109:Drivers/CMSIS/Include/cmsis_gcc.h ****   return(result);
 3922              		.loc 2 109 3 view .LVU1058
 3923              		.syntax divided
 3924              	@ 109 "Drivers/CMSIS/Include/cmsis_gcc.h" 1
 3925 0002 EFF30583 		MRS r3, ipsr
 3926              	@ 0 "" 2
 3927              	.LVL297:
 3928              		.loc 2 110 3 is_stmt 1 view .LVU1059
 3929              		.loc 2 110 3 is_stmt 0 view .LVU1060
 3930              		.thumb
 3931              		.syntax unified
 3932              	.LBE307:
 3933              	.LBE308:
 3934              	.LBE310:
 3935              		.loc 1 1497 5 view .LVU1061
 3936 0006 002B     		cmp	r3, #0
 3937 0008 05D0     		beq	.L294
1498:Middlewares/Third_Party/FreeRTOS/Source/CMSIS_RTOS/cmsis_os.c ****   {
1499:Middlewares/Third_Party/FreeRTOS/Source/CMSIS_RTOS/cmsis_os.c ****     if (xTaskResumeFromISR(thread_id) == pdTRUE)
 3938              		.loc 1 1499 5 is_stmt 1 view .LVU1062
 3939              		.loc 1 1499 9 is_stmt 0 view .LVU1063
 3940 000a FFF7FEFF 		bl	xTaskResumeFromISR
 3941              	.LVL298:
 3942              		.loc 1 1499 8 view .LVU1064
 3943 000e 0128     		cmp	r0, #1
 3944 0010 04D0     		beq	.L296
 3945              	.L295:
1500:Middlewares/Third_Party/FreeRTOS/Source/CMSIS_RTOS/cmsis_os.c ****     {
1501:Middlewares/Third_Party/FreeRTOS/Source/CMSIS_RTOS/cmsis_os.c ****       portYIELD_FROM_ISR(pdTRUE);
1502:Middlewares/Third_Party/FreeRTOS/Source/CMSIS_RTOS/cmsis_os.c ****     }
1503:Middlewares/Third_Party/FreeRTOS/Source/CMSIS_RTOS/cmsis_os.c ****   }
ARM GAS  /tmp/ccSFdtfu.s 			page 107


1504:Middlewares/Third_Party/FreeRTOS/Source/CMSIS_RTOS/cmsis_os.c ****   else
1505:Middlewares/Third_Party/FreeRTOS/Source/CMSIS_RTOS/cmsis_os.c ****   {
1506:Middlewares/Third_Party/FreeRTOS/Source/CMSIS_RTOS/cmsis_os.c ****     vTaskResume(thread_id);
1507:Middlewares/Third_Party/FreeRTOS/Source/CMSIS_RTOS/cmsis_os.c ****   }
1508:Middlewares/Third_Party/FreeRTOS/Source/CMSIS_RTOS/cmsis_os.c ****   return osOK;
 3946              		.loc 1 1508 3 is_stmt 1 view .LVU1065
1509:Middlewares/Third_Party/FreeRTOS/Source/CMSIS_RTOS/cmsis_os.c **** #else
1510:Middlewares/Third_Party/FreeRTOS/Source/CMSIS_RTOS/cmsis_os.c ****   return osErrorResource;
1511:Middlewares/Third_Party/FreeRTOS/Source/CMSIS_RTOS/cmsis_os.c **** #endif
1512:Middlewares/Third_Party/FreeRTOS/Source/CMSIS_RTOS/cmsis_os.c **** }
 3947              		.loc 1 1512 1 is_stmt 0 view .LVU1066
 3948 0012 0020     		movs	r0, #0
 3949              		@ sp needed
 3950 0014 10BD     		pop	{r4, pc}
 3951              	.LVL299:
 3952              	.L294:
1506:Middlewares/Third_Party/FreeRTOS/Source/CMSIS_RTOS/cmsis_os.c ****   }
 3953              		.loc 1 1506 5 is_stmt 1 view .LVU1067
 3954 0016 FFF7FEFF 		bl	vTaskResume
 3955              	.LVL300:
1506:Middlewares/Third_Party/FreeRTOS/Source/CMSIS_RTOS/cmsis_os.c ****   }
 3956              		.loc 1 1506 5 is_stmt 0 view .LVU1068
 3957 001a FAE7     		b	.L295
 3958              	.L296:
1501:Middlewares/Third_Party/FreeRTOS/Source/CMSIS_RTOS/cmsis_os.c ****     }
 3959              		.loc 1 1501 7 is_stmt 1 discriminator 1 view .LVU1069
1501:Middlewares/Third_Party/FreeRTOS/Source/CMSIS_RTOS/cmsis_os.c ****     }
 3960              		.loc 1 1501 7 discriminator 1 view .LVU1070
 3961 001c 8022     		movs	r2, #128
 3962 001e 024B     		ldr	r3, .L297
 3963 0020 5205     		lsls	r2, r2, #21
 3964 0022 1A60     		str	r2, [r3]
 3965 0024 F5E7     		b	.L295
 3966              	.L298:
 3967 0026 C046     		.align	2
 3968              	.L297:
 3969 0028 04ED00E0 		.word	-536810236
 3970              		.cfi_endproc
 3971              	.LFE79:
 3973              		.section	.text.osThreadSuspendAll,"ax",%progbits
 3974              		.align	1
 3975              		.p2align 2,,3
 3976              		.global	osThreadSuspendAll
 3977              		.syntax unified
 3978              		.code	16
 3979              		.thumb_func
 3980              		.fpu softvfp
 3982              	osThreadSuspendAll:
 3983              	.LFB80:
1513:Middlewares/Third_Party/FreeRTOS/Source/CMSIS_RTOS/cmsis_os.c **** 
1514:Middlewares/Third_Party/FreeRTOS/Source/CMSIS_RTOS/cmsis_os.c **** /**
1515:Middlewares/Third_Party/FreeRTOS/Source/CMSIS_RTOS/cmsis_os.c **** * @brief  Suspend execution of a all active threads.
1516:Middlewares/Third_Party/FreeRTOS/Source/CMSIS_RTOS/cmsis_os.c **** * @retval  status code that indicates the execution status of the function.
1517:Middlewares/Third_Party/FreeRTOS/Source/CMSIS_RTOS/cmsis_os.c **** */
1518:Middlewares/Third_Party/FreeRTOS/Source/CMSIS_RTOS/cmsis_os.c **** osStatus osThreadSuspendAll (void)
1519:Middlewares/Third_Party/FreeRTOS/Source/CMSIS_RTOS/cmsis_os.c **** {
 3984              		.loc 1 1519 1 view -0
ARM GAS  /tmp/ccSFdtfu.s 			page 108


 3985              		.cfi_startproc
 3986              		@ args = 0, pretend = 0, frame = 0
 3987              		@ frame_needed = 0, uses_anonymous_args = 0
1520:Middlewares/Third_Party/FreeRTOS/Source/CMSIS_RTOS/cmsis_os.c ****   vTaskSuspendAll();
 3988              		.loc 1 1520 3 view .LVU1072
1519:Middlewares/Third_Party/FreeRTOS/Source/CMSIS_RTOS/cmsis_os.c ****   vTaskSuspendAll();
 3989              		.loc 1 1519 1 is_stmt 0 view .LVU1073
 3990 0000 10B5     		push	{r4, lr}
 3991              	.LCFI50:
 3992              		.cfi_def_cfa_offset 8
 3993              		.cfi_offset 4, -8
 3994              		.cfi_offset 14, -4
 3995              		.loc 1 1520 3 view .LVU1074
 3996 0002 FFF7FEFF 		bl	vTaskSuspendAll
 3997              	.LVL301:
1521:Middlewares/Third_Party/FreeRTOS/Source/CMSIS_RTOS/cmsis_os.c ****   
1522:Middlewares/Third_Party/FreeRTOS/Source/CMSIS_RTOS/cmsis_os.c ****   return osOK;
 3998              		.loc 1 1522 3 is_stmt 1 view .LVU1075
1523:Middlewares/Third_Party/FreeRTOS/Source/CMSIS_RTOS/cmsis_os.c **** }
 3999              		.loc 1 1523 1 is_stmt 0 view .LVU1076
 4000              		@ sp needed
 4001 0006 0020     		movs	r0, #0
 4002 0008 10BD     		pop	{r4, pc}
 4003              		.cfi_endproc
 4004              	.LFE80:
 4006 000a C046     		.section	.text.osThreadResumeAll,"ax",%progbits
 4007              		.align	1
 4008              		.p2align 2,,3
 4009              		.global	osThreadResumeAll
 4010              		.syntax unified
 4011              		.code	16
 4012              		.thumb_func
 4013              		.fpu softvfp
 4015              	osThreadResumeAll:
 4016              	.LFB81:
1524:Middlewares/Third_Party/FreeRTOS/Source/CMSIS_RTOS/cmsis_os.c **** 
1525:Middlewares/Third_Party/FreeRTOS/Source/CMSIS_RTOS/cmsis_os.c **** /**
1526:Middlewares/Third_Party/FreeRTOS/Source/CMSIS_RTOS/cmsis_os.c **** * @brief  Resume execution of a all suspended threads.
1527:Middlewares/Third_Party/FreeRTOS/Source/CMSIS_RTOS/cmsis_os.c **** * @retval  status code that indicates the execution status of the function.
1528:Middlewares/Third_Party/FreeRTOS/Source/CMSIS_RTOS/cmsis_os.c **** */
1529:Middlewares/Third_Party/FreeRTOS/Source/CMSIS_RTOS/cmsis_os.c **** osStatus osThreadResumeAll (void)
1530:Middlewares/Third_Party/FreeRTOS/Source/CMSIS_RTOS/cmsis_os.c **** {
 4017              		.loc 1 1530 1 is_stmt 1 view -0
 4018              		.cfi_startproc
 4019              		@ args = 0, pretend = 0, frame = 0
 4020              		@ frame_needed = 0, uses_anonymous_args = 0
1531:Middlewares/Third_Party/FreeRTOS/Source/CMSIS_RTOS/cmsis_os.c ****   if (xTaskResumeAll() == pdTRUE)
 4021              		.loc 1 1531 3 view .LVU1078
1530:Middlewares/Third_Party/FreeRTOS/Source/CMSIS_RTOS/cmsis_os.c ****   if (xTaskResumeAll() == pdTRUE)
 4022              		.loc 1 1530 1 is_stmt 0 view .LVU1079
 4023 0000 10B5     		push	{r4, lr}
 4024              	.LCFI51:
 4025              		.cfi_def_cfa_offset 8
 4026              		.cfi_offset 4, -8
 4027              		.cfi_offset 14, -4
 4028              		.loc 1 1531 7 view .LVU1080
 4029 0002 FFF7FEFF 		bl	xTaskResumeAll
ARM GAS  /tmp/ccSFdtfu.s 			page 109


 4030              	.LVL302:
1532:Middlewares/Third_Party/FreeRTOS/Source/CMSIS_RTOS/cmsis_os.c ****     return osOK;
1533:Middlewares/Third_Party/FreeRTOS/Source/CMSIS_RTOS/cmsis_os.c ****   else
1534:Middlewares/Third_Party/FreeRTOS/Source/CMSIS_RTOS/cmsis_os.c ****     return osErrorOS;
 4031              		.loc 1 1534 12 view .LVU1081
 4032 0006 0138     		subs	r0, r0, #1
 4033 0008 4342     		rsbs	r3, r0, #0
 4034 000a 5841     		adcs	r0, r0, r3
 4035 000c FE23     		movs	r3, #254
 4036 000e 4042     		rsbs	r0, r0, #0
 4037 0010 9843     		bics	r0, r3
 4038 0012 FF30     		adds	r0, r0, #255
1535:Middlewares/Third_Party/FreeRTOS/Source/CMSIS_RTOS/cmsis_os.c ****   
1536:Middlewares/Third_Party/FreeRTOS/Source/CMSIS_RTOS/cmsis_os.c **** }
 4039              		.loc 1 1536 1 view .LVU1082
 4040              		@ sp needed
 4041 0014 10BD     		pop	{r4, pc}
 4042              		.cfi_endproc
 4043              	.LFE81:
 4045 0016 C046     		.section	.text.osDelayUntil,"ax",%progbits
 4046              		.align	1
 4047              		.p2align 2,,3
 4048              		.global	osDelayUntil
 4049              		.syntax unified
 4050              		.code	16
 4051              		.thumb_func
 4052              		.fpu softvfp
 4054              	osDelayUntil:
 4055              	.LVL303:
 4056              	.LFB82:
1537:Middlewares/Third_Party/FreeRTOS/Source/CMSIS_RTOS/cmsis_os.c **** 
1538:Middlewares/Third_Party/FreeRTOS/Source/CMSIS_RTOS/cmsis_os.c **** /**
1539:Middlewares/Third_Party/FreeRTOS/Source/CMSIS_RTOS/cmsis_os.c **** * @brief  Delay a task until a specified time
1540:Middlewares/Third_Party/FreeRTOS/Source/CMSIS_RTOS/cmsis_os.c **** * @param   PreviousWakeTime   Pointer to a variable that holds the time at which the 
1541:Middlewares/Third_Party/FreeRTOS/Source/CMSIS_RTOS/cmsis_os.c **** *          task was last unblocked. PreviousWakeTime must be initialised with the current time
1542:Middlewares/Third_Party/FreeRTOS/Source/CMSIS_RTOS/cmsis_os.c **** *          prior to its first use (PreviousWakeTime = osKernelSysTick() )
1543:Middlewares/Third_Party/FreeRTOS/Source/CMSIS_RTOS/cmsis_os.c **** * @param   millisec    time delay value
1544:Middlewares/Third_Party/FreeRTOS/Source/CMSIS_RTOS/cmsis_os.c **** * @retval  status code that indicates the execution status of the function.
1545:Middlewares/Third_Party/FreeRTOS/Source/CMSIS_RTOS/cmsis_os.c **** */
1546:Middlewares/Third_Party/FreeRTOS/Source/CMSIS_RTOS/cmsis_os.c **** osStatus osDelayUntil (uint32_t *PreviousWakeTime, uint32_t millisec)
1547:Middlewares/Third_Party/FreeRTOS/Source/CMSIS_RTOS/cmsis_os.c **** {
 4057              		.loc 1 1547 1 is_stmt 1 view -0
 4058              		.cfi_startproc
 4059              		@ args = 0, pretend = 0, frame = 0
 4060              		@ frame_needed = 0, uses_anonymous_args = 0
 4061              		@ link register save eliminated.
1548:Middlewares/Third_Party/FreeRTOS/Source/CMSIS_RTOS/cmsis_os.c **** #if INCLUDE_vTaskDelayUntil
1549:Middlewares/Third_Party/FreeRTOS/Source/CMSIS_RTOS/cmsis_os.c ****   TickType_t ticks = (millisec / portTICK_PERIOD_MS);
1550:Middlewares/Third_Party/FreeRTOS/Source/CMSIS_RTOS/cmsis_os.c ****   vTaskDelayUntil((TickType_t *) PreviousWakeTime, ticks ? ticks : 1);
1551:Middlewares/Third_Party/FreeRTOS/Source/CMSIS_RTOS/cmsis_os.c ****   
1552:Middlewares/Third_Party/FreeRTOS/Source/CMSIS_RTOS/cmsis_os.c ****   return osOK;
1553:Middlewares/Third_Party/FreeRTOS/Source/CMSIS_RTOS/cmsis_os.c **** #else
1554:Middlewares/Third_Party/FreeRTOS/Source/CMSIS_RTOS/cmsis_os.c ****   (void) millisec;
 4062              		.loc 1 1554 3 view .LVU1084
1555:Middlewares/Third_Party/FreeRTOS/Source/CMSIS_RTOS/cmsis_os.c ****   (void) PreviousWakeTime;
 4063              		.loc 1 1555 3 view .LVU1085
1556:Middlewares/Third_Party/FreeRTOS/Source/CMSIS_RTOS/cmsis_os.c ****   
ARM GAS  /tmp/ccSFdtfu.s 			page 110


1557:Middlewares/Third_Party/FreeRTOS/Source/CMSIS_RTOS/cmsis_os.c ****   return osErrorResource;
 4064              		.loc 1 1557 3 view .LVU1086
1558:Middlewares/Third_Party/FreeRTOS/Source/CMSIS_RTOS/cmsis_os.c **** #endif
1559:Middlewares/Third_Party/FreeRTOS/Source/CMSIS_RTOS/cmsis_os.c **** }
 4065              		.loc 1 1559 1 is_stmt 0 view .LVU1087
 4066 0000 8120     		movs	r0, #129
 4067              	.LVL304:
 4068              		.loc 1 1559 1 view .LVU1088
 4069              		@ sp needed
 4070 0002 7047     		bx	lr
 4071              		.cfi_endproc
 4072              	.LFE82:
 4074              		.section	.text.osAbortDelay,"ax",%progbits
 4075              		.align	1
 4076              		.p2align 2,,3
 4077              		.global	osAbortDelay
 4078              		.syntax unified
 4079              		.code	16
 4080              		.thumb_func
 4081              		.fpu softvfp
 4083              	osAbortDelay:
 4084              	.LVL305:
 4085              	.LFB83:
1560:Middlewares/Third_Party/FreeRTOS/Source/CMSIS_RTOS/cmsis_os.c **** 
1561:Middlewares/Third_Party/FreeRTOS/Source/CMSIS_RTOS/cmsis_os.c **** /**
1562:Middlewares/Third_Party/FreeRTOS/Source/CMSIS_RTOS/cmsis_os.c **** * @brief   Abort the delay for a specific thread
1563:Middlewares/Third_Party/FreeRTOS/Source/CMSIS_RTOS/cmsis_os.c **** * @param   thread_id   thread ID obtained by \ref osThreadCreate or \ref osThreadGetId   
1564:Middlewares/Third_Party/FreeRTOS/Source/CMSIS_RTOS/cmsis_os.c **** * @retval  status code that indicates the execution status of the function.
1565:Middlewares/Third_Party/FreeRTOS/Source/CMSIS_RTOS/cmsis_os.c **** */
1566:Middlewares/Third_Party/FreeRTOS/Source/CMSIS_RTOS/cmsis_os.c **** osStatus osAbortDelay(osThreadId thread_id)
1567:Middlewares/Third_Party/FreeRTOS/Source/CMSIS_RTOS/cmsis_os.c **** {
 4086              		.loc 1 1567 1 is_stmt 1 view -0
 4087              		.cfi_startproc
 4088              		@ args = 0, pretend = 0, frame = 0
 4089              		@ frame_needed = 0, uses_anonymous_args = 0
 4090              		@ link register save eliminated.
1568:Middlewares/Third_Party/FreeRTOS/Source/CMSIS_RTOS/cmsis_os.c **** #if INCLUDE_xTaskAbortDelay
1569:Middlewares/Third_Party/FreeRTOS/Source/CMSIS_RTOS/cmsis_os.c ****   
1570:Middlewares/Third_Party/FreeRTOS/Source/CMSIS_RTOS/cmsis_os.c ****   xTaskAbortDelay(thread_id);
1571:Middlewares/Third_Party/FreeRTOS/Source/CMSIS_RTOS/cmsis_os.c ****   
1572:Middlewares/Third_Party/FreeRTOS/Source/CMSIS_RTOS/cmsis_os.c ****   return osOK;
1573:Middlewares/Third_Party/FreeRTOS/Source/CMSIS_RTOS/cmsis_os.c **** #else
1574:Middlewares/Third_Party/FreeRTOS/Source/CMSIS_RTOS/cmsis_os.c ****   (void) thread_id;
 4091              		.loc 1 1574 3 view .LVU1090
1575:Middlewares/Third_Party/FreeRTOS/Source/CMSIS_RTOS/cmsis_os.c ****   
1576:Middlewares/Third_Party/FreeRTOS/Source/CMSIS_RTOS/cmsis_os.c ****   return osErrorResource;
 4092              		.loc 1 1576 3 view .LVU1091
1577:Middlewares/Third_Party/FreeRTOS/Source/CMSIS_RTOS/cmsis_os.c **** #endif
1578:Middlewares/Third_Party/FreeRTOS/Source/CMSIS_RTOS/cmsis_os.c **** }
 4093              		.loc 1 1578 1 is_stmt 0 view .LVU1092
 4094 0000 8120     		movs	r0, #129
 4095              	.LVL306:
 4096              		.loc 1 1578 1 view .LVU1093
 4097              		@ sp needed
 4098 0002 7047     		bx	lr
 4099              		.cfi_endproc
 4100              	.LFE83:
ARM GAS  /tmp/ccSFdtfu.s 			page 111


 4102              		.section	.text.osThreadList,"ax",%progbits
 4103              		.align	1
 4104              		.p2align 2,,3
 4105              		.global	osThreadList
 4106              		.syntax unified
 4107              		.code	16
 4108              		.thumb_func
 4109              		.fpu softvfp
 4111              	osThreadList:
 4112              	.LVL307:
 4113              	.LFB84:
1579:Middlewares/Third_Party/FreeRTOS/Source/CMSIS_RTOS/cmsis_os.c **** 
1580:Middlewares/Third_Party/FreeRTOS/Source/CMSIS_RTOS/cmsis_os.c **** /**
1581:Middlewares/Third_Party/FreeRTOS/Source/CMSIS_RTOS/cmsis_os.c **** * @brief   Lists all the current threads, along with their current state 
1582:Middlewares/Third_Party/FreeRTOS/Source/CMSIS_RTOS/cmsis_os.c **** *          and stack usage high water mark.
1583:Middlewares/Third_Party/FreeRTOS/Source/CMSIS_RTOS/cmsis_os.c **** * @param   buffer   A buffer into which the above mentioned details
1584:Middlewares/Third_Party/FreeRTOS/Source/CMSIS_RTOS/cmsis_os.c **** *          will be written
1585:Middlewares/Third_Party/FreeRTOS/Source/CMSIS_RTOS/cmsis_os.c **** * @retval  status code that indicates the execution status of the function.
1586:Middlewares/Third_Party/FreeRTOS/Source/CMSIS_RTOS/cmsis_os.c **** */
1587:Middlewares/Third_Party/FreeRTOS/Source/CMSIS_RTOS/cmsis_os.c **** osStatus osThreadList (uint8_t *buffer)
1588:Middlewares/Third_Party/FreeRTOS/Source/CMSIS_RTOS/cmsis_os.c **** {
 4114              		.loc 1 1588 1 is_stmt 1 view -0
 4115              		.cfi_startproc
 4116              		@ args = 0, pretend = 0, frame = 0
 4117              		@ frame_needed = 0, uses_anonymous_args = 0
 4118              		@ link register save eliminated.
1589:Middlewares/Third_Party/FreeRTOS/Source/CMSIS_RTOS/cmsis_os.c **** #if ( ( configUSE_TRACE_FACILITY == 1 ) && ( configUSE_STATS_FORMATTING_FUNCTIONS == 1 ) )
1590:Middlewares/Third_Party/FreeRTOS/Source/CMSIS_RTOS/cmsis_os.c ****   vTaskList((char *)buffer);
1591:Middlewares/Third_Party/FreeRTOS/Source/CMSIS_RTOS/cmsis_os.c **** #endif
1592:Middlewares/Third_Party/FreeRTOS/Source/CMSIS_RTOS/cmsis_os.c ****   return osOK;
 4119              		.loc 1 1592 3 view .LVU1095
1593:Middlewares/Third_Party/FreeRTOS/Source/CMSIS_RTOS/cmsis_os.c **** }
 4120              		.loc 1 1593 1 is_stmt 0 view .LVU1096
 4121 0000 0020     		movs	r0, #0
 4122              	.LVL308:
 4123              		.loc 1 1593 1 view .LVU1097
 4124              		@ sp needed
 4125 0002 7047     		bx	lr
 4126              		.cfi_endproc
 4127              	.LFE84:
 4129              		.section	.text.osMessagePeek,"ax",%progbits
 4130              		.align	1
 4131              		.p2align 2,,3
 4132              		.global	osMessagePeek
 4133              		.syntax unified
 4134              		.code	16
 4135              		.thumb_func
 4136              		.fpu softvfp
 4138              	osMessagePeek:
 4139              	.LVL309:
 4140              	.LFB85:
1594:Middlewares/Third_Party/FreeRTOS/Source/CMSIS_RTOS/cmsis_os.c **** 
1595:Middlewares/Third_Party/FreeRTOS/Source/CMSIS_RTOS/cmsis_os.c **** /**
1596:Middlewares/Third_Party/FreeRTOS/Source/CMSIS_RTOS/cmsis_os.c **** * @brief  Receive an item from a queue without removing the item from the queue.
1597:Middlewares/Third_Party/FreeRTOS/Source/CMSIS_RTOS/cmsis_os.c **** * @param  queue_id  message queue ID obtained with \ref osMessageCreate.
1598:Middlewares/Third_Party/FreeRTOS/Source/CMSIS_RTOS/cmsis_os.c **** * @param  millisec  timeout value or 0 in case of no time-out.
1599:Middlewares/Third_Party/FreeRTOS/Source/CMSIS_RTOS/cmsis_os.c **** * @retval event information that includes status code.
ARM GAS  /tmp/ccSFdtfu.s 			page 112


1600:Middlewares/Third_Party/FreeRTOS/Source/CMSIS_RTOS/cmsis_os.c **** */
1601:Middlewares/Third_Party/FreeRTOS/Source/CMSIS_RTOS/cmsis_os.c **** osEvent osMessagePeek (osMessageQId queue_id, uint32_t millisec)
1602:Middlewares/Third_Party/FreeRTOS/Source/CMSIS_RTOS/cmsis_os.c **** {
 4141              		.loc 1 1602 1 is_stmt 1 view -0
 4142              		.cfi_startproc
 4143              		@ args = 0, pretend = 0, frame = 16
 4144              		@ frame_needed = 0, uses_anonymous_args = 0
1603:Middlewares/Third_Party/FreeRTOS/Source/CMSIS_RTOS/cmsis_os.c ****   TickType_t ticks;
 4145              		.loc 1 1603 3 view .LVU1099
1604:Middlewares/Third_Party/FreeRTOS/Source/CMSIS_RTOS/cmsis_os.c ****   osEvent event;
 4146              		.loc 1 1604 3 view .LVU1100
1605:Middlewares/Third_Party/FreeRTOS/Source/CMSIS_RTOS/cmsis_os.c ****   
1606:Middlewares/Third_Party/FreeRTOS/Source/CMSIS_RTOS/cmsis_os.c ****   event.def.message_id = queue_id;
 4147              		.loc 1 1606 3 view .LVU1101
1602:Middlewares/Third_Party/FreeRTOS/Source/CMSIS_RTOS/cmsis_os.c ****   TickType_t ticks;
 4148              		.loc 1 1602 1 is_stmt 0 view .LVU1102
 4149 0000 30B5     		push	{r4, r5, lr}
 4150              	.LCFI52:
 4151              		.cfi_def_cfa_offset 12
 4152              		.cfi_offset 4, -12
 4153              		.cfi_offset 5, -8
 4154              		.cfi_offset 14, -4
 4155 0002 85B0     		sub	sp, sp, #20
 4156              	.LCFI53:
 4157              		.cfi_def_cfa_offset 32
 4158              		.loc 1 1606 24 view .LVU1103
 4159 0004 01AC     		add	r4, sp, #4
1602:Middlewares/Third_Party/FreeRTOS/Source/CMSIS_RTOS/cmsis_os.c ****   TickType_t ticks;
 4160              		.loc 1 1602 1 view .LVU1104
 4161 0006 0500     		movs	r5, r0
 4162              		.loc 1 1606 24 view .LVU1105
 4163 0008 A160     		str	r1, [r4, #8]
1607:Middlewares/Third_Party/FreeRTOS/Source/CMSIS_RTOS/cmsis_os.c ****   
1608:Middlewares/Third_Party/FreeRTOS/Source/CMSIS_RTOS/cmsis_os.c ****   if (queue_id == NULL) {
 4164              		.loc 1 1608 3 is_stmt 1 view .LVU1106
1602:Middlewares/Third_Party/FreeRTOS/Source/CMSIS_RTOS/cmsis_os.c ****   TickType_t ticks;
 4165              		.loc 1 1602 1 is_stmt 0 view .LVU1107
 4166 000a 081E     		subs	r0, r1, #0
 4167              	.LVL310:
 4168              		.loc 1 1608 6 view .LVU1108
 4169 000c 21D0     		beq	.L320
1609:Middlewares/Third_Party/FreeRTOS/Source/CMSIS_RTOS/cmsis_os.c ****     event.status = osErrorParameter;
1610:Middlewares/Third_Party/FreeRTOS/Source/CMSIS_RTOS/cmsis_os.c ****     return event;
1611:Middlewares/Third_Party/FreeRTOS/Source/CMSIS_RTOS/cmsis_os.c ****   }
1612:Middlewares/Third_Party/FreeRTOS/Source/CMSIS_RTOS/cmsis_os.c ****   
1613:Middlewares/Third_Party/FreeRTOS/Source/CMSIS_RTOS/cmsis_os.c ****   ticks = 0;
 4170              		.loc 1 1613 3 is_stmt 1 view .LVU1109
 4171              	.LVL311:
1614:Middlewares/Third_Party/FreeRTOS/Source/CMSIS_RTOS/cmsis_os.c ****   if (millisec == osWaitForever) {
 4172              		.loc 1 1614 3 view .LVU1110
 4173              		.loc 1 1614 6 is_stmt 0 view .LVU1111
 4174 000e 531C     		adds	r3, r2, #1
 4175 0010 17D0     		beq	.L309
1615:Middlewares/Third_Party/FreeRTOS/Source/CMSIS_RTOS/cmsis_os.c ****     ticks = portMAX_DELAY;
1616:Middlewares/Third_Party/FreeRTOS/Source/CMSIS_RTOS/cmsis_os.c ****   }
1617:Middlewares/Third_Party/FreeRTOS/Source/CMSIS_RTOS/cmsis_os.c ****   else if (millisec != 0) {
 4176              		.loc 1 1617 8 is_stmt 1 view .LVU1112
ARM GAS  /tmp/ccSFdtfu.s 			page 113


1618:Middlewares/Third_Party/FreeRTOS/Source/CMSIS_RTOS/cmsis_os.c ****     ticks = millisec / portTICK_PERIOD_MS;
1619:Middlewares/Third_Party/FreeRTOS/Source/CMSIS_RTOS/cmsis_os.c ****     if (ticks == 0) {
1620:Middlewares/Third_Party/FreeRTOS/Source/CMSIS_RTOS/cmsis_os.c ****       ticks = 1;
1621:Middlewares/Third_Party/FreeRTOS/Source/CMSIS_RTOS/cmsis_os.c ****     }
1622:Middlewares/Third_Party/FreeRTOS/Source/CMSIS_RTOS/cmsis_os.c ****   }
1623:Middlewares/Third_Party/FreeRTOS/Source/CMSIS_RTOS/cmsis_os.c ****   
1624:Middlewares/Third_Party/FreeRTOS/Source/CMSIS_RTOS/cmsis_os.c ****   if (xQueuePeek(queue_id, &event.value.v, ticks) == pdTRUE) 
 4177              		.loc 1 1624 7 is_stmt 0 view .LVU1113
 4178 0012 0123     		movs	r3, #1
1617:Middlewares/Third_Party/FreeRTOS/Source/CMSIS_RTOS/cmsis_os.c ****     ticks = millisec / portTICK_PERIOD_MS;
 4179              		.loc 1 1617 11 view .LVU1114
 4180 0014 002A     		cmp	r2, #0
 4181 0016 0CD0     		beq	.L310
1618:Middlewares/Third_Party/FreeRTOS/Source/CMSIS_RTOS/cmsis_os.c ****     ticks = millisec / portTICK_PERIOD_MS;
 4182              		.loc 1 1618 5 is_stmt 1 view .LVU1115
 4183              	.LVL312:
1619:Middlewares/Third_Party/FreeRTOS/Source/CMSIS_RTOS/cmsis_os.c ****       ticks = 1;
 4184              		.loc 1 1619 5 view .LVU1116
 4185              		.loc 1 1624 3 view .LVU1117
 4186              		.loc 1 1624 7 is_stmt 0 view .LVU1118
 4187 0018 02A9     		add	r1, sp, #8
 4188              	.LVL313:
 4189              		.loc 1 1624 7 view .LVU1119
 4190 001a FFF7FEFF 		bl	xQueueGenericReceive
 4191              	.LVL314:
 4192              		.loc 1 1624 6 view .LVU1120
 4193 001e 0128     		cmp	r0, #1
 4194 0020 15D0     		beq	.L313
 4195              	.LVL315:
 4196              	.L311:
1625:Middlewares/Third_Party/FreeRTOS/Source/CMSIS_RTOS/cmsis_os.c ****   {
1626:Middlewares/Third_Party/FreeRTOS/Source/CMSIS_RTOS/cmsis_os.c ****     /* We have mail */
1627:Middlewares/Third_Party/FreeRTOS/Source/CMSIS_RTOS/cmsis_os.c ****     event.status = osEventMessage;
1628:Middlewares/Third_Party/FreeRTOS/Source/CMSIS_RTOS/cmsis_os.c ****   }
1629:Middlewares/Third_Party/FreeRTOS/Source/CMSIS_RTOS/cmsis_os.c ****   else 
1630:Middlewares/Third_Party/FreeRTOS/Source/CMSIS_RTOS/cmsis_os.c ****   {
1631:Middlewares/Third_Party/FreeRTOS/Source/CMSIS_RTOS/cmsis_os.c ****     event.status = (ticks == 0) ? osOK : osEventTimeout;
 4197              		.loc 1 1631 5 is_stmt 1 discriminator 2 view .LVU1121
 4198              		.loc 1 1631 40 is_stmt 0 discriminator 2 view .LVU1122
 4199 0022 4023     		movs	r3, #64
 4200              	.L312:
 4201 0024 0193     		str	r3, [sp, #4]
1632:Middlewares/Third_Party/FreeRTOS/Source/CMSIS_RTOS/cmsis_os.c ****   }
1633:Middlewares/Third_Party/FreeRTOS/Source/CMSIS_RTOS/cmsis_os.c ****   
1634:Middlewares/Third_Party/FreeRTOS/Source/CMSIS_RTOS/cmsis_os.c ****   return event;
 4202              		.loc 1 1634 3 is_stmt 1 view .LVU1123
 4203              		.loc 1 1634 10 is_stmt 0 view .LVU1124
 4204 0026 2B00     		movs	r3, r5
 4205 0028 07CC     		ldmia	r4!, {r0, r1, r2}
 4206 002a 07C3     		stmia	r3!, {r0, r1, r2}
 4207              	.L306:
1635:Middlewares/Third_Party/FreeRTOS/Source/CMSIS_RTOS/cmsis_os.c **** }
 4208              		.loc 1 1635 1 view .LVU1125
 4209 002c 2800     		movs	r0, r5
 4210 002e 05B0     		add	sp, sp, #20
 4211              		@ sp needed
 4212              	.LVL316:
ARM GAS  /tmp/ccSFdtfu.s 			page 114


 4213              		.loc 1 1635 1 view .LVU1126
 4214 0030 30BD     		pop	{r4, r5, pc}
 4215              	.LVL317:
 4216              	.L310:
1624:Middlewares/Third_Party/FreeRTOS/Source/CMSIS_RTOS/cmsis_os.c ****   {
 4217              		.loc 1 1624 3 is_stmt 1 view .LVU1127
1624:Middlewares/Third_Party/FreeRTOS/Source/CMSIS_RTOS/cmsis_os.c ****   {
 4218              		.loc 1 1624 7 is_stmt 0 view .LVU1128
 4219 0032 0022     		movs	r2, #0
 4220              	.LVL318:
1624:Middlewares/Third_Party/FreeRTOS/Source/CMSIS_RTOS/cmsis_os.c ****   {
 4221              		.loc 1 1624 7 view .LVU1129
 4222 0034 02A9     		add	r1, sp, #8
 4223 0036 FFF7FEFF 		bl	xQueueGenericReceive
 4224              	.LVL319:
1624:Middlewares/Third_Party/FreeRTOS/Source/CMSIS_RTOS/cmsis_os.c ****   {
 4225              		.loc 1 1624 6 view .LVU1130
 4226 003a 0128     		cmp	r0, #1
 4227 003c 07D0     		beq	.L313
1631:Middlewares/Third_Party/FreeRTOS/Source/CMSIS_RTOS/cmsis_os.c ****   }
 4228              		.loc 1 1631 40 view .LVU1131
 4229 003e 0023     		movs	r3, #0
 4230 0040 F0E7     		b	.L312
 4231              	.LVL320:
 4232              	.L309:
1624:Middlewares/Third_Party/FreeRTOS/Source/CMSIS_RTOS/cmsis_os.c ****   {
 4233              		.loc 1 1624 3 is_stmt 1 view .LVU1132
1624:Middlewares/Third_Party/FreeRTOS/Source/CMSIS_RTOS/cmsis_os.c ****   {
 4234              		.loc 1 1624 7 is_stmt 0 view .LVU1133
 4235 0042 0123     		movs	r3, #1
 4236 0044 02A9     		add	r1, sp, #8
 4237 0046 FFF7FEFF 		bl	xQueueGenericReceive
 4238              	.LVL321:
1624:Middlewares/Third_Party/FreeRTOS/Source/CMSIS_RTOS/cmsis_os.c ****   {
 4239              		.loc 1 1624 6 view .LVU1134
 4240 004a 0128     		cmp	r0, #1
 4241 004c E9D1     		bne	.L311
 4242              	.LVL322:
 4243              	.L313:
1627:Middlewares/Third_Party/FreeRTOS/Source/CMSIS_RTOS/cmsis_os.c ****   }
 4244              		.loc 1 1627 18 view .LVU1135
 4245 004e 1023     		movs	r3, #16
 4246 0050 E8E7     		b	.L312
 4247              	.LVL323:
 4248              	.L320:
1609:Middlewares/Third_Party/FreeRTOS/Source/CMSIS_RTOS/cmsis_os.c ****     return event;
 4249              		.loc 1 1609 5 is_stmt 1 view .LVU1136
1609:Middlewares/Third_Party/FreeRTOS/Source/CMSIS_RTOS/cmsis_os.c ****     return event;
 4250              		.loc 1 1609 18 is_stmt 0 view .LVU1137
 4251 0052 8023     		movs	r3, #128
 4252 0054 0193     		str	r3, [sp, #4]
1610:Middlewares/Third_Party/FreeRTOS/Source/CMSIS_RTOS/cmsis_os.c ****   }
 4253              		.loc 1 1610 5 is_stmt 1 view .LVU1138
1610:Middlewares/Third_Party/FreeRTOS/Source/CMSIS_RTOS/cmsis_os.c ****   }
 4254              		.loc 1 1610 12 is_stmt 0 view .LVU1139
 4255 0056 2B00     		movs	r3, r5
 4256 0058 07CC     		ldmia	r4!, {r0, r1, r2}
ARM GAS  /tmp/ccSFdtfu.s 			page 115


 4257 005a 07C3     		stmia	r3!, {r0, r1, r2}
 4258              	.LVL324:
1610:Middlewares/Third_Party/FreeRTOS/Source/CMSIS_RTOS/cmsis_os.c ****   }
 4259              		.loc 1 1610 12 view .LVU1140
 4260 005c E6E7     		b	.L306
 4261              		.cfi_endproc
 4262              	.LFE85:
 4264 005e C046     		.section	.text.osMessageWaiting,"ax",%progbits
 4265              		.align	1
 4266              		.p2align 2,,3
 4267              		.global	osMessageWaiting
 4268              		.syntax unified
 4269              		.code	16
 4270              		.thumb_func
 4271              		.fpu softvfp
 4273              	osMessageWaiting:
 4274              	.LVL325:
 4275              	.LFB86:
1636:Middlewares/Third_Party/FreeRTOS/Source/CMSIS_RTOS/cmsis_os.c **** 
1637:Middlewares/Third_Party/FreeRTOS/Source/CMSIS_RTOS/cmsis_os.c **** /**
1638:Middlewares/Third_Party/FreeRTOS/Source/CMSIS_RTOS/cmsis_os.c **** * @brief  Get the number of messaged stored in a queue.
1639:Middlewares/Third_Party/FreeRTOS/Source/CMSIS_RTOS/cmsis_os.c **** * @param  queue_id  message queue ID obtained with \ref osMessageCreate.
1640:Middlewares/Third_Party/FreeRTOS/Source/CMSIS_RTOS/cmsis_os.c **** * @retval number of messages stored in a queue.
1641:Middlewares/Third_Party/FreeRTOS/Source/CMSIS_RTOS/cmsis_os.c **** */
1642:Middlewares/Third_Party/FreeRTOS/Source/CMSIS_RTOS/cmsis_os.c **** uint32_t osMessageWaiting(osMessageQId queue_id)
1643:Middlewares/Third_Party/FreeRTOS/Source/CMSIS_RTOS/cmsis_os.c **** {
 4276              		.loc 1 1643 1 is_stmt 1 view -0
 4277              		.cfi_startproc
 4278              		@ args = 0, pretend = 0, frame = 0
 4279              		@ frame_needed = 0, uses_anonymous_args = 0
1644:Middlewares/Third_Party/FreeRTOS/Source/CMSIS_RTOS/cmsis_os.c ****   if (inHandlerMode()) {
 4280              		.loc 1 1644 3 view .LVU1142
 4281              	.LBB311:
 4282              	.LBI311:
 173:Middlewares/Third_Party/FreeRTOS/Source/CMSIS_RTOS/cmsis_os.c **** {
 4283              		.loc 1 173 12 view .LVU1143
 4284              	.LBE311:
 175:Middlewares/Third_Party/FreeRTOS/Source/CMSIS_RTOS/cmsis_os.c **** }
 4285              		.loc 1 175 3 view .LVU1144
 4286              	.LBB316:
 4287              	.LBB312:
 4288              	.LBI312:
 105:Drivers/CMSIS/Include/cmsis_gcc.h **** {
 4289              		.loc 2 105 61 view .LVU1145
 4290              	.LBB313:
 107:Drivers/CMSIS/Include/cmsis_gcc.h **** 
 4291              		.loc 2 107 3 view .LVU1146
 109:Drivers/CMSIS/Include/cmsis_gcc.h ****   return(result);
 4292              		.loc 2 109 3 view .LVU1147
 4293              	.LBE313:
 4294              	.LBE312:
 4295              	.LBE316:
1643:Middlewares/Third_Party/FreeRTOS/Source/CMSIS_RTOS/cmsis_os.c ****   if (inHandlerMode()) {
 4296              		.loc 1 1643 1 is_stmt 0 view .LVU1148
 4297 0000 10B5     		push	{r4, lr}
 4298              	.LCFI54:
 4299              		.cfi_def_cfa_offset 8
ARM GAS  /tmp/ccSFdtfu.s 			page 116


 4300              		.cfi_offset 4, -8
 4301              		.cfi_offset 14, -4
 4302              	.LBB317:
 4303              	.LBB315:
 4304              	.LBB314:
 109:Drivers/CMSIS/Include/cmsis_gcc.h ****   return(result);
 4305              		.loc 2 109 3 view .LVU1149
 4306              		.syntax divided
 4307              	@ 109 "Drivers/CMSIS/Include/cmsis_gcc.h" 1
 4308 0002 EFF30583 		MRS r3, ipsr
 4309              	@ 0 "" 2
 4310              	.LVL326:
 4311              		.loc 2 110 3 is_stmt 1 view .LVU1150
 4312              		.loc 2 110 3 is_stmt 0 view .LVU1151
 4313              		.thumb
 4314              		.syntax unified
 4315              	.LBE314:
 4316              	.LBE315:
 4317              	.LBE317:
 4318              		.loc 1 1644 6 view .LVU1152
 4319 0006 002B     		cmp	r3, #0
 4320 0008 02D0     		beq	.L322
1645:Middlewares/Third_Party/FreeRTOS/Source/CMSIS_RTOS/cmsis_os.c ****     return uxQueueMessagesWaitingFromISR(queue_id);
 4321              		.loc 1 1645 5 is_stmt 1 view .LVU1153
 4322              		.loc 1 1645 12 is_stmt 0 view .LVU1154
 4323 000a FFF7FEFF 		bl	uxQueueMessagesWaitingFromISR
 4324              	.LVL327:
 4325              	.L321:
1646:Middlewares/Third_Party/FreeRTOS/Source/CMSIS_RTOS/cmsis_os.c ****   }
1647:Middlewares/Third_Party/FreeRTOS/Source/CMSIS_RTOS/cmsis_os.c ****   else
1648:Middlewares/Third_Party/FreeRTOS/Source/CMSIS_RTOS/cmsis_os.c ****   {
1649:Middlewares/Third_Party/FreeRTOS/Source/CMSIS_RTOS/cmsis_os.c ****     return uxQueueMessagesWaiting(queue_id);
1650:Middlewares/Third_Party/FreeRTOS/Source/CMSIS_RTOS/cmsis_os.c ****   }
1651:Middlewares/Third_Party/FreeRTOS/Source/CMSIS_RTOS/cmsis_os.c **** }
 4326              		.loc 1 1651 1 view .LVU1155
 4327              		@ sp needed
 4328 000e 10BD     		pop	{r4, pc}
 4329              	.LVL328:
 4330              	.L322:
1649:Middlewares/Third_Party/FreeRTOS/Source/CMSIS_RTOS/cmsis_os.c ****   }
 4331              		.loc 1 1649 5 is_stmt 1 view .LVU1156
1649:Middlewares/Third_Party/FreeRTOS/Source/CMSIS_RTOS/cmsis_os.c ****   }
 4332              		.loc 1 1649 12 is_stmt 0 view .LVU1157
 4333 0010 FFF7FEFF 		bl	uxQueueMessagesWaiting
 4334              	.LVL329:
1649:Middlewares/Third_Party/FreeRTOS/Source/CMSIS_RTOS/cmsis_os.c ****   }
 4335              		.loc 1 1649 12 view .LVU1158
 4336 0014 FBE7     		b	.L321
 4337              		.cfi_endproc
 4338              	.LFE86:
 4340 0016 C046     		.section	.text.osMessageAvailableSpace,"ax",%progbits
 4341              		.align	1
 4342              		.p2align 2,,3
 4343              		.global	osMessageAvailableSpace
 4344              		.syntax unified
 4345              		.code	16
 4346              		.thumb_func
ARM GAS  /tmp/ccSFdtfu.s 			page 117


 4347              		.fpu softvfp
 4349              	osMessageAvailableSpace:
 4350              	.LVL330:
 4351              	.LFB87:
1652:Middlewares/Third_Party/FreeRTOS/Source/CMSIS_RTOS/cmsis_os.c **** 
1653:Middlewares/Third_Party/FreeRTOS/Source/CMSIS_RTOS/cmsis_os.c **** /**
1654:Middlewares/Third_Party/FreeRTOS/Source/CMSIS_RTOS/cmsis_os.c **** * @brief  Get the available space in a message queue.
1655:Middlewares/Third_Party/FreeRTOS/Source/CMSIS_RTOS/cmsis_os.c **** * @param  queue_id  message queue ID obtained with \ref osMessageCreate.
1656:Middlewares/Third_Party/FreeRTOS/Source/CMSIS_RTOS/cmsis_os.c **** * @retval available space in a message queue.
1657:Middlewares/Third_Party/FreeRTOS/Source/CMSIS_RTOS/cmsis_os.c **** */
1658:Middlewares/Third_Party/FreeRTOS/Source/CMSIS_RTOS/cmsis_os.c **** uint32_t osMessageAvailableSpace(osMessageQId queue_id)  
1659:Middlewares/Third_Party/FreeRTOS/Source/CMSIS_RTOS/cmsis_os.c **** {
 4352              		.loc 1 1659 1 is_stmt 1 view -0
 4353              		.cfi_startproc
 4354              		@ args = 0, pretend = 0, frame = 0
 4355              		@ frame_needed = 0, uses_anonymous_args = 0
1660:Middlewares/Third_Party/FreeRTOS/Source/CMSIS_RTOS/cmsis_os.c ****   return uxQueueSpacesAvailable(queue_id);
 4356              		.loc 1 1660 3 view .LVU1160
1659:Middlewares/Third_Party/FreeRTOS/Source/CMSIS_RTOS/cmsis_os.c ****   return uxQueueSpacesAvailable(queue_id);
 4357              		.loc 1 1659 1 is_stmt 0 view .LVU1161
 4358 0000 10B5     		push	{r4, lr}
 4359              	.LCFI55:
 4360              		.cfi_def_cfa_offset 8
 4361              		.cfi_offset 4, -8
 4362              		.cfi_offset 14, -4
 4363              		.loc 1 1660 10 view .LVU1162
 4364 0002 FFF7FEFF 		bl	uxQueueSpacesAvailable
 4365              	.LVL331:
1661:Middlewares/Third_Party/FreeRTOS/Source/CMSIS_RTOS/cmsis_os.c **** }
 4366              		.loc 1 1661 1 view .LVU1163
 4367              		@ sp needed
 4368 0006 10BD     		pop	{r4, pc}
 4369              		.cfi_endproc
 4370              	.LFE87:
 4372              		.section	.text.osMessageDelete,"ax",%progbits
 4373              		.align	1
 4374              		.p2align 2,,3
 4375              		.global	osMessageDelete
 4376              		.syntax unified
 4377              		.code	16
 4378              		.thumb_func
 4379              		.fpu softvfp
 4381              	osMessageDelete:
 4382              	.LFB100:
 4383              		.cfi_startproc
 4384              		@ args = 0, pretend = 0, frame = 0
 4385              		@ frame_needed = 0, uses_anonymous_args = 0
 4386 0000 10B5     		push	{r4, lr}
 4387              	.LCFI56:
 4388              		.cfi_def_cfa_offset 8
 4389              		.cfi_offset 4, -8
 4390              		.cfi_offset 14, -4
 4391              		.syntax divided
 4392              	@ 109 "Drivers/CMSIS/Include/cmsis_gcc.h" 1
 4393 0002 EFF30583 		MRS r3, ipsr
 4394              	@ 0 "" 2
 4395              		.thumb
ARM GAS  /tmp/ccSFdtfu.s 			page 118


 4396              		.syntax unified
 4397 0006 002B     		cmp	r3, #0
 4398 0008 03D1     		bne	.L327
 4399 000a FFF7FEFF 		bl	vQueueDelete
 4400 000e 0020     		movs	r0, #0
 4401              	.L325:
 4402              		@ sp needed
 4403 0010 10BD     		pop	{r4, pc}
 4404              	.L327:
 4405 0012 8220     		movs	r0, #130
 4406 0014 FCE7     		b	.L325
 4407              		.cfi_endproc
 4408              	.LFE100:
 4410 0016 C046     		.section	.text.osRecursiveMutexCreate,"ax",%progbits
 4411              		.align	1
 4412              		.p2align 2,,3
 4413              		.global	osRecursiveMutexCreate
 4414              		.syntax unified
 4415              		.code	16
 4416              		.thumb_func
 4417              		.fpu softvfp
 4419              	osRecursiveMutexCreate:
 4420              	.LVL332:
 4421              	.LFB89:
1662:Middlewares/Third_Party/FreeRTOS/Source/CMSIS_RTOS/cmsis_os.c **** 
1663:Middlewares/Third_Party/FreeRTOS/Source/CMSIS_RTOS/cmsis_os.c **** /**
1664:Middlewares/Third_Party/FreeRTOS/Source/CMSIS_RTOS/cmsis_os.c **** * @brief Delete a Message Queue
1665:Middlewares/Third_Party/FreeRTOS/Source/CMSIS_RTOS/cmsis_os.c **** * @param  queue_id  message queue ID obtained with \ref osMessageCreate.
1666:Middlewares/Third_Party/FreeRTOS/Source/CMSIS_RTOS/cmsis_os.c **** * @retval  status code that indicates the execution status of the function.
1667:Middlewares/Third_Party/FreeRTOS/Source/CMSIS_RTOS/cmsis_os.c **** */
1668:Middlewares/Third_Party/FreeRTOS/Source/CMSIS_RTOS/cmsis_os.c **** osStatus osMessageDelete (osMessageQId queue_id)
1669:Middlewares/Third_Party/FreeRTOS/Source/CMSIS_RTOS/cmsis_os.c **** {
1670:Middlewares/Third_Party/FreeRTOS/Source/CMSIS_RTOS/cmsis_os.c ****   if (inHandlerMode()) {
1671:Middlewares/Third_Party/FreeRTOS/Source/CMSIS_RTOS/cmsis_os.c ****     return osErrorISR;
1672:Middlewares/Third_Party/FreeRTOS/Source/CMSIS_RTOS/cmsis_os.c ****   }
1673:Middlewares/Third_Party/FreeRTOS/Source/CMSIS_RTOS/cmsis_os.c **** 
1674:Middlewares/Third_Party/FreeRTOS/Source/CMSIS_RTOS/cmsis_os.c ****   vQueueDelete(queue_id);
1675:Middlewares/Third_Party/FreeRTOS/Source/CMSIS_RTOS/cmsis_os.c **** 
1676:Middlewares/Third_Party/FreeRTOS/Source/CMSIS_RTOS/cmsis_os.c ****   return osOK; 
1677:Middlewares/Third_Party/FreeRTOS/Source/CMSIS_RTOS/cmsis_os.c **** }
1678:Middlewares/Third_Party/FreeRTOS/Source/CMSIS_RTOS/cmsis_os.c **** 
1679:Middlewares/Third_Party/FreeRTOS/Source/CMSIS_RTOS/cmsis_os.c **** /**
1680:Middlewares/Third_Party/FreeRTOS/Source/CMSIS_RTOS/cmsis_os.c **** * @brief  Create and Initialize a Recursive Mutex
1681:Middlewares/Third_Party/FreeRTOS/Source/CMSIS_RTOS/cmsis_os.c **** * @param  mutex_def     mutex definition referenced with \ref osMutex.
1682:Middlewares/Third_Party/FreeRTOS/Source/CMSIS_RTOS/cmsis_os.c **** * @retval  mutex ID for reference by other functions or NULL in case of error..
1683:Middlewares/Third_Party/FreeRTOS/Source/CMSIS_RTOS/cmsis_os.c **** */
1684:Middlewares/Third_Party/FreeRTOS/Source/CMSIS_RTOS/cmsis_os.c **** osMutexId osRecursiveMutexCreate (const osMutexDef_t *mutex_def)
1685:Middlewares/Third_Party/FreeRTOS/Source/CMSIS_RTOS/cmsis_os.c **** {
 4422              		.loc 1 1685 1 is_stmt 1 view -0
 4423              		.cfi_startproc
 4424              		@ args = 0, pretend = 0, frame = 0
 4425              		@ frame_needed = 0, uses_anonymous_args = 0
 4426              		@ link register save eliminated.
1686:Middlewares/Third_Party/FreeRTOS/Source/CMSIS_RTOS/cmsis_os.c **** #if (configUSE_RECURSIVE_MUTEXES == 1)
1687:Middlewares/Third_Party/FreeRTOS/Source/CMSIS_RTOS/cmsis_os.c **** #if( configSUPPORT_STATIC_ALLOCATION == 1 ) && ( configSUPPORT_DYNAMIC_ALLOCATION == 1 )
1688:Middlewares/Third_Party/FreeRTOS/Source/CMSIS_RTOS/cmsis_os.c **** 
1689:Middlewares/Third_Party/FreeRTOS/Source/CMSIS_RTOS/cmsis_os.c ****   if (mutex_def->controlblock != NULL){
ARM GAS  /tmp/ccSFdtfu.s 			page 119


1690:Middlewares/Third_Party/FreeRTOS/Source/CMSIS_RTOS/cmsis_os.c ****     return xSemaphoreCreateRecursiveMutexStatic( mutex_def->controlblock );
1691:Middlewares/Third_Party/FreeRTOS/Source/CMSIS_RTOS/cmsis_os.c ****   }
1692:Middlewares/Third_Party/FreeRTOS/Source/CMSIS_RTOS/cmsis_os.c ****   else {
1693:Middlewares/Third_Party/FreeRTOS/Source/CMSIS_RTOS/cmsis_os.c ****     return xSemaphoreCreateRecursiveMutex();
1694:Middlewares/Third_Party/FreeRTOS/Source/CMSIS_RTOS/cmsis_os.c ****   }
1695:Middlewares/Third_Party/FreeRTOS/Source/CMSIS_RTOS/cmsis_os.c **** #elif ( configSUPPORT_STATIC_ALLOCATION == 1 )
1696:Middlewares/Third_Party/FreeRTOS/Source/CMSIS_RTOS/cmsis_os.c ****   return xSemaphoreCreateRecursiveMutexStatic( mutex_def->controlblock );
1697:Middlewares/Third_Party/FreeRTOS/Source/CMSIS_RTOS/cmsis_os.c **** #else 
1698:Middlewares/Third_Party/FreeRTOS/Source/CMSIS_RTOS/cmsis_os.c ****   return xSemaphoreCreateRecursiveMutex();
1699:Middlewares/Third_Party/FreeRTOS/Source/CMSIS_RTOS/cmsis_os.c **** #endif
1700:Middlewares/Third_Party/FreeRTOS/Source/CMSIS_RTOS/cmsis_os.c **** #else
1701:Middlewares/Third_Party/FreeRTOS/Source/CMSIS_RTOS/cmsis_os.c ****   return NULL;
 4427              		.loc 1 1701 3 view .LVU1165
1702:Middlewares/Third_Party/FreeRTOS/Source/CMSIS_RTOS/cmsis_os.c **** #endif	
1703:Middlewares/Third_Party/FreeRTOS/Source/CMSIS_RTOS/cmsis_os.c **** }
 4428              		.loc 1 1703 1 is_stmt 0 view .LVU1166
 4429 0000 0020     		movs	r0, #0
 4430              	.LVL333:
 4431              		.loc 1 1703 1 view .LVU1167
 4432              		@ sp needed
 4433 0002 7047     		bx	lr
 4434              		.cfi_endproc
 4435              	.LFE89:
 4437              		.section	.text.osRecursiveMutexRelease,"ax",%progbits
 4438              		.align	1
 4439              		.p2align 2,,3
 4440              		.global	osRecursiveMutexRelease
 4441              		.syntax unified
 4442              		.code	16
 4443              		.thumb_func
 4444              		.fpu softvfp
 4446              	osRecursiveMutexRelease:
 4447              	.LFB104:
 4448              		.cfi_startproc
 4449              		@ args = 0, pretend = 0, frame = 0
 4450              		@ frame_needed = 0, uses_anonymous_args = 0
 4451              		@ link register save eliminated.
 4452 0000 8120     		movs	r0, #129
 4453              		@ sp needed
 4454 0002 7047     		bx	lr
 4455              		.cfi_endproc
 4456              	.LFE104:
 4458              		.section	.text.osRecursiveMutexWait,"ax",%progbits
 4459              		.align	1
 4460              		.p2align 2,,3
 4461              		.global	osRecursiveMutexWait
 4462              		.syntax unified
 4463              		.code	16
 4464              		.thumb_func
 4465              		.fpu softvfp
 4467              	osRecursiveMutexWait:
 4468              	.LFB102:
 4469              		.cfi_startproc
 4470              		@ args = 0, pretend = 0, frame = 0
 4471              		@ frame_needed = 0, uses_anonymous_args = 0
 4472              		@ link register save eliminated.
 4473 0000 8120     		movs	r0, #129
ARM GAS  /tmp/ccSFdtfu.s 			page 120


 4474              		@ sp needed
 4475 0002 7047     		bx	lr
 4476              		.cfi_endproc
 4477              	.LFE102:
 4479              		.section	.text.osSemaphoreGetCount,"ax",%progbits
 4480              		.align	1
 4481              		.p2align 2,,3
 4482              		.global	osSemaphoreGetCount
 4483              		.syntax unified
 4484              		.code	16
 4485              		.thumb_func
 4486              		.fpu softvfp
 4488              	osSemaphoreGetCount:
 4489              	.LVL334:
 4490              	.LFB92:
1704:Middlewares/Third_Party/FreeRTOS/Source/CMSIS_RTOS/cmsis_os.c **** 
1705:Middlewares/Third_Party/FreeRTOS/Source/CMSIS_RTOS/cmsis_os.c **** /**
1706:Middlewares/Third_Party/FreeRTOS/Source/CMSIS_RTOS/cmsis_os.c **** * @brief  Release a Recursive Mutex
1707:Middlewares/Third_Party/FreeRTOS/Source/CMSIS_RTOS/cmsis_os.c **** * @param   mutex_id      mutex ID obtained by \ref osRecursiveMutexCreate.
1708:Middlewares/Third_Party/FreeRTOS/Source/CMSIS_RTOS/cmsis_os.c **** * @retval  status code that indicates the execution status of the function.
1709:Middlewares/Third_Party/FreeRTOS/Source/CMSIS_RTOS/cmsis_os.c **** */
1710:Middlewares/Third_Party/FreeRTOS/Source/CMSIS_RTOS/cmsis_os.c **** osStatus osRecursiveMutexRelease (osMutexId mutex_id)
1711:Middlewares/Third_Party/FreeRTOS/Source/CMSIS_RTOS/cmsis_os.c **** {
1712:Middlewares/Third_Party/FreeRTOS/Source/CMSIS_RTOS/cmsis_os.c **** #if (configUSE_RECURSIVE_MUTEXES == 1)
1713:Middlewares/Third_Party/FreeRTOS/Source/CMSIS_RTOS/cmsis_os.c ****   osStatus result = osOK;
1714:Middlewares/Third_Party/FreeRTOS/Source/CMSIS_RTOS/cmsis_os.c ****  
1715:Middlewares/Third_Party/FreeRTOS/Source/CMSIS_RTOS/cmsis_os.c ****   if (xSemaphoreGiveRecursive(mutex_id) != pdTRUE) 
1716:Middlewares/Third_Party/FreeRTOS/Source/CMSIS_RTOS/cmsis_os.c ****   {
1717:Middlewares/Third_Party/FreeRTOS/Source/CMSIS_RTOS/cmsis_os.c ****     result = osErrorOS;
1718:Middlewares/Third_Party/FreeRTOS/Source/CMSIS_RTOS/cmsis_os.c ****   }
1719:Middlewares/Third_Party/FreeRTOS/Source/CMSIS_RTOS/cmsis_os.c ****   return result;
1720:Middlewares/Third_Party/FreeRTOS/Source/CMSIS_RTOS/cmsis_os.c **** #else
1721:Middlewares/Third_Party/FreeRTOS/Source/CMSIS_RTOS/cmsis_os.c **** 	return osErrorResource;
1722:Middlewares/Third_Party/FreeRTOS/Source/CMSIS_RTOS/cmsis_os.c **** #endif
1723:Middlewares/Third_Party/FreeRTOS/Source/CMSIS_RTOS/cmsis_os.c **** }
1724:Middlewares/Third_Party/FreeRTOS/Source/CMSIS_RTOS/cmsis_os.c **** 
1725:Middlewares/Third_Party/FreeRTOS/Source/CMSIS_RTOS/cmsis_os.c **** /**
1726:Middlewares/Third_Party/FreeRTOS/Source/CMSIS_RTOS/cmsis_os.c **** * @brief  Release a Recursive Mutex
1727:Middlewares/Third_Party/FreeRTOS/Source/CMSIS_RTOS/cmsis_os.c **** * @param   mutex_id    mutex ID obtained by \ref osRecursiveMutexCreate.
1728:Middlewares/Third_Party/FreeRTOS/Source/CMSIS_RTOS/cmsis_os.c **** * @param millisec      timeout value or 0 in case of no time-out.
1729:Middlewares/Third_Party/FreeRTOS/Source/CMSIS_RTOS/cmsis_os.c **** * @retval  status code that indicates the execution status of the function.
1730:Middlewares/Third_Party/FreeRTOS/Source/CMSIS_RTOS/cmsis_os.c **** */
1731:Middlewares/Third_Party/FreeRTOS/Source/CMSIS_RTOS/cmsis_os.c **** osStatus osRecursiveMutexWait (osMutexId mutex_id, uint32_t millisec)
1732:Middlewares/Third_Party/FreeRTOS/Source/CMSIS_RTOS/cmsis_os.c **** {
1733:Middlewares/Third_Party/FreeRTOS/Source/CMSIS_RTOS/cmsis_os.c **** #if (configUSE_RECURSIVE_MUTEXES == 1)
1734:Middlewares/Third_Party/FreeRTOS/Source/CMSIS_RTOS/cmsis_os.c ****   TickType_t ticks;
1735:Middlewares/Third_Party/FreeRTOS/Source/CMSIS_RTOS/cmsis_os.c ****   
1736:Middlewares/Third_Party/FreeRTOS/Source/CMSIS_RTOS/cmsis_os.c ****   if (mutex_id == NULL)
1737:Middlewares/Third_Party/FreeRTOS/Source/CMSIS_RTOS/cmsis_os.c ****   {
1738:Middlewares/Third_Party/FreeRTOS/Source/CMSIS_RTOS/cmsis_os.c ****     return osErrorParameter;
1739:Middlewares/Third_Party/FreeRTOS/Source/CMSIS_RTOS/cmsis_os.c ****   }
1740:Middlewares/Third_Party/FreeRTOS/Source/CMSIS_RTOS/cmsis_os.c ****   
1741:Middlewares/Third_Party/FreeRTOS/Source/CMSIS_RTOS/cmsis_os.c ****   ticks = 0;
1742:Middlewares/Third_Party/FreeRTOS/Source/CMSIS_RTOS/cmsis_os.c ****   if (millisec == osWaitForever) 
1743:Middlewares/Third_Party/FreeRTOS/Source/CMSIS_RTOS/cmsis_os.c ****   {
1744:Middlewares/Third_Party/FreeRTOS/Source/CMSIS_RTOS/cmsis_os.c ****     ticks = portMAX_DELAY;
1745:Middlewares/Third_Party/FreeRTOS/Source/CMSIS_RTOS/cmsis_os.c ****   }
ARM GAS  /tmp/ccSFdtfu.s 			page 121


1746:Middlewares/Third_Party/FreeRTOS/Source/CMSIS_RTOS/cmsis_os.c ****   else if (millisec != 0) 
1747:Middlewares/Third_Party/FreeRTOS/Source/CMSIS_RTOS/cmsis_os.c ****   {
1748:Middlewares/Third_Party/FreeRTOS/Source/CMSIS_RTOS/cmsis_os.c ****     ticks = millisec / portTICK_PERIOD_MS;
1749:Middlewares/Third_Party/FreeRTOS/Source/CMSIS_RTOS/cmsis_os.c ****     if (ticks == 0) 
1750:Middlewares/Third_Party/FreeRTOS/Source/CMSIS_RTOS/cmsis_os.c ****     {
1751:Middlewares/Third_Party/FreeRTOS/Source/CMSIS_RTOS/cmsis_os.c ****       ticks = 1;
1752:Middlewares/Third_Party/FreeRTOS/Source/CMSIS_RTOS/cmsis_os.c ****     }
1753:Middlewares/Third_Party/FreeRTOS/Source/CMSIS_RTOS/cmsis_os.c ****   }
1754:Middlewares/Third_Party/FreeRTOS/Source/CMSIS_RTOS/cmsis_os.c ****   
1755:Middlewares/Third_Party/FreeRTOS/Source/CMSIS_RTOS/cmsis_os.c ****   if (xSemaphoreTakeRecursive(mutex_id, ticks) != pdTRUE) 
1756:Middlewares/Third_Party/FreeRTOS/Source/CMSIS_RTOS/cmsis_os.c ****   {
1757:Middlewares/Third_Party/FreeRTOS/Source/CMSIS_RTOS/cmsis_os.c ****     return osErrorOS;
1758:Middlewares/Third_Party/FreeRTOS/Source/CMSIS_RTOS/cmsis_os.c ****   }
1759:Middlewares/Third_Party/FreeRTOS/Source/CMSIS_RTOS/cmsis_os.c ****   return osOK;
1760:Middlewares/Third_Party/FreeRTOS/Source/CMSIS_RTOS/cmsis_os.c **** #else
1761:Middlewares/Third_Party/FreeRTOS/Source/CMSIS_RTOS/cmsis_os.c **** 	return osErrorResource;
1762:Middlewares/Third_Party/FreeRTOS/Source/CMSIS_RTOS/cmsis_os.c **** #endif
1763:Middlewares/Third_Party/FreeRTOS/Source/CMSIS_RTOS/cmsis_os.c **** }
1764:Middlewares/Third_Party/FreeRTOS/Source/CMSIS_RTOS/cmsis_os.c **** 
1765:Middlewares/Third_Party/FreeRTOS/Source/CMSIS_RTOS/cmsis_os.c **** /**
1766:Middlewares/Third_Party/FreeRTOS/Source/CMSIS_RTOS/cmsis_os.c **** * @brief  Returns the current count value of a counting semaphore
1767:Middlewares/Third_Party/FreeRTOS/Source/CMSIS_RTOS/cmsis_os.c **** * @param  semaphore_id  semaphore_id ID obtained by \ref osSemaphoreCreate.
1768:Middlewares/Third_Party/FreeRTOS/Source/CMSIS_RTOS/cmsis_os.c **** * @retval  count value
1769:Middlewares/Third_Party/FreeRTOS/Source/CMSIS_RTOS/cmsis_os.c **** */
1770:Middlewares/Third_Party/FreeRTOS/Source/CMSIS_RTOS/cmsis_os.c **** uint32_t osSemaphoreGetCount(osSemaphoreId semaphore_id)
1771:Middlewares/Third_Party/FreeRTOS/Source/CMSIS_RTOS/cmsis_os.c **** {
 4491              		.loc 1 1771 1 is_stmt 1 view -0
 4492              		.cfi_startproc
 4493              		@ args = 0, pretend = 0, frame = 0
 4494              		@ frame_needed = 0, uses_anonymous_args = 0
1772:Middlewares/Third_Party/FreeRTOS/Source/CMSIS_RTOS/cmsis_os.c ****   return uxSemaphoreGetCount(semaphore_id);
 4495              		.loc 1 1772 3 view .LVU1169
1771:Middlewares/Third_Party/FreeRTOS/Source/CMSIS_RTOS/cmsis_os.c ****   return uxSemaphoreGetCount(semaphore_id);
 4496              		.loc 1 1771 1 is_stmt 0 view .LVU1170
 4497 0000 10B5     		push	{r4, lr}
 4498              	.LCFI57:
 4499              		.cfi_def_cfa_offset 8
 4500              		.cfi_offset 4, -8
 4501              		.cfi_offset 14, -4
 4502              		.loc 1 1772 10 view .LVU1171
 4503 0002 FFF7FEFF 		bl	uxQueueMessagesWaiting
 4504              	.LVL335:
1773:Middlewares/Third_Party/FreeRTOS/Source/CMSIS_RTOS/cmsis_os.c **** }
 4505              		.loc 1 1773 1 view .LVU1172
 4506              		@ sp needed
 4507 0006 10BD     		pop	{r4, pc}
 4508              		.cfi_endproc
 4509              	.LFE92:
 4511              		.text
 4512              	.Letext0:
 4513              		.file 3 "/usr/lib/gcc/arm-none-eabi/8.2018.q4/arm-none-eabi/include/machine/_default_types.h"
 4514              		.file 4 "/usr/lib/gcc/arm-none-eabi/8.2018.q4/arm-none-eabi/include/sys/lock.h"
 4515              		.file 5 "/usr/lib/gcc/arm-none-eabi/8.2018.q4/arm-none-eabi/include/sys/_types.h"
 4516              		.file 6 "/usr/lib/gcc/arm-none-eabi/8.2018.q4/lib/gcc/arm-none-eabi/8.2.1/include/stddef.h"
 4517              		.file 7 "/usr/lib/gcc/arm-none-eabi/8.2018.q4/arm-none-eabi/include/sys/reent.h"
 4518              		.file 8 "/usr/lib/gcc/arm-none-eabi/8.2018.q4/arm-none-eabi/include/sys/_stdint.h"
 4519              		.file 9 "Drivers/CMSIS/Device/ST/STM32F0xx/Include/system_stm32f0xx.h"
ARM GAS  /tmp/ccSFdtfu.s 			page 122


 4520              		.file 10 "Middlewares/Third_Party/FreeRTOS/Source/include/projdefs.h"
 4521              		.file 11 "Middlewares/Third_Party/FreeRTOS/Source/portable/GCC/ARM_CM0/portmacro.h"
 4522              		.file 12 "Middlewares/Third_Party/FreeRTOS/Source/include/task.h"
 4523              		.file 13 "Middlewares/Third_Party/FreeRTOS/Source/include/timers.h"
 4524              		.file 14 "Middlewares/Third_Party/FreeRTOS/Source/include/queue.h"
 4525              		.file 15 "Middlewares/Third_Party/FreeRTOS/Source/include/semphr.h"
 4526              		.file 16 "Middlewares/Third_Party/FreeRTOS/Source/CMSIS_RTOS/cmsis_os.h"
 4527              		.file 17 "Middlewares/Third_Party/FreeRTOS/Source/include/portable.h"
 4528              		.file 18 "<built-in>"
ARM GAS  /tmp/ccSFdtfu.s 			page 123


DEFINED SYMBOLS
                            *ABS*:0000000000000000 cmsis_os.c
     /tmp/ccSFdtfu.s:16     .text.osKernelStart:0000000000000000 $t
     /tmp/ccSFdtfu.s:25     .text.osKernelStart:0000000000000000 osKernelStart
     /tmp/ccSFdtfu.s:51     .text.osKernelRunning:0000000000000000 $t
     /tmp/ccSFdtfu.s:59     .text.osKernelRunning:0000000000000000 osKernelRunning
     /tmp/ccSFdtfu.s:86     .text.osKernelSysTick:0000000000000000 $t
     /tmp/ccSFdtfu.s:94     .text.osKernelSysTick:0000000000000000 osKernelSysTick
     /tmp/ccSFdtfu.s:160    .text.osThreadCreate:0000000000000000 $t
     /tmp/ccSFdtfu.s:168    .text.osThreadCreate:0000000000000000 osThreadCreate
     /tmp/ccSFdtfu.s:273    .text.osThreadGetId:0000000000000000 $t
     /tmp/ccSFdtfu.s:281    .text.osThreadGetId:0000000000000000 osThreadGetId
     /tmp/ccSFdtfu.s:304    .text.osThreadTerminate:0000000000000000 $t
     /tmp/ccSFdtfu.s:312    .text.osThreadTerminate:0000000000000000 osThreadTerminate
     /tmp/ccSFdtfu.s:338    .text.osThreadYield:0000000000000000 $t
     /tmp/ccSFdtfu.s:346    .text.osThreadYield:0000000000000000 osThreadYield
     /tmp/ccSFdtfu.s:371    .text.osThreadSetPriority:0000000000000000 $t
     /tmp/ccSFdtfu.s:379    .text.osThreadSetPriority:0000000000000000 osThreadSetPriority
     /tmp/ccSFdtfu.s:438    .text.osThreadGetPriority:0000000000000000 $t
     /tmp/ccSFdtfu.s:446    .text.osThreadGetPriority:0000000000000000 osThreadGetPriority
     /tmp/ccSFdtfu.s:558    .text.osDelay:0000000000000000 $t
     /tmp/ccSFdtfu.s:566    .text.osDelay:0000000000000000 osDelay
     /tmp/ccSFdtfu.s:599    .text.osTimerCreate:0000000000000000 $t
     /tmp/ccSFdtfu.s:607    .text.osTimerCreate:0000000000000000 osTimerCreate
     /tmp/ccSFdtfu.s:626    .text.osTimerStart:0000000000000000 $t
     /tmp/ccSFdtfu.s:634    .text.osTimerStart:0000000000000000 osTimerStart
     /tmp/ccSFdtfu.s:655    .text.osTimerStop:0000000000000000 $t
     /tmp/ccSFdtfu.s:663    .text.osTimerStop:0000000000000000 osTimerStop
     /tmp/ccSFdtfu.s:684    .text.osTimerDelete:0000000000000000 $t
     /tmp/ccSFdtfu.s:692    .text.osTimerDelete:0000000000000000 osTimerDelete
     /tmp/ccSFdtfu.s:705    .text.osSignalSet:0000000000000000 $t
     /tmp/ccSFdtfu.s:713    .text.osSignalSet:0000000000000000 osSignalSet
     /tmp/ccSFdtfu.s:812    .text.osSignalSet:0000000000000048 $d
     /tmp/ccSFdtfu.s:817    .text.osSignalWait:0000000000000000 $t
     /tmp/ccSFdtfu.s:825    .text.osSignalWait:0000000000000000 osSignalWait
     /tmp/ccSFdtfu.s:956    .text.osMutexCreate:0000000000000000 $t
     /tmp/ccSFdtfu.s:964    .text.osMutexCreate:0000000000000000 osMutexCreate
     /tmp/ccSFdtfu.s:991    .text.osMutexWait:0000000000000000 $t
     /tmp/ccSFdtfu.s:999    .text.osMutexWait:0000000000000000 osMutexWait
     /tmp/ccSFdtfu.s:1115   .text.osMutexWait:000000000000004c $d
     /tmp/ccSFdtfu.s:1120   .text.osMutexRelease:0000000000000000 $t
     /tmp/ccSFdtfu.s:1128   .text.osMutexRelease:0000000000000000 osMutexRelease
     /tmp/ccSFdtfu.s:1224   .text.osMutexRelease:0000000000000040 $d
     /tmp/ccSFdtfu.s:1229   .text.osMutexDelete:0000000000000000 $t
     /tmp/ccSFdtfu.s:1237   .text.osMutexDelete:0000000000000000 osMutexDelete
     /tmp/ccSFdtfu.s:1306   .text.osSemaphoreCreate:0000000000000000 $t
     /tmp/ccSFdtfu.s:1314   .text.osSemaphoreCreate:0000000000000000 osSemaphoreCreate
     /tmp/ccSFdtfu.s:1368   .text.osSemaphoreWait:0000000000000000 $t
     /tmp/ccSFdtfu.s:1376   .text.osSemaphoreWait:0000000000000000 osSemaphoreWait
     /tmp/ccSFdtfu.s:1492   .text.osSemaphoreWait:000000000000004c $d
     /tmp/ccSFdtfu.s:1497   .text.osSemaphoreRelease:0000000000000000 $t
     /tmp/ccSFdtfu.s:1505   .text.osSemaphoreRelease:0000000000000000 osSemaphoreRelease
     /tmp/ccSFdtfu.s:1557   .text.osSemaphoreRelease:0000000000000040 $d
     /tmp/ccSFdtfu.s:1562   .text.osSemaphoreDelete:0000000000000000 $t
     /tmp/ccSFdtfu.s:1570   .text.osSemaphoreDelete:0000000000000000 osSemaphoreDelete
     /tmp/ccSFdtfu.s:1600   .text.osPoolCreate:0000000000000000 $t
     /tmp/ccSFdtfu.s:1608   .text.osPoolCreate:0000000000000000 osPoolCreate
ARM GAS  /tmp/ccSFdtfu.s 			page 124


     /tmp/ccSFdtfu.s:1749   .text.osPoolAlloc:0000000000000000 $t
     /tmp/ccSFdtfu.s:1757   .text.osPoolAlloc:0000000000000000 osPoolAlloc
     /tmp/ccSFdtfu.s:1990   .text.osPoolCAlloc:0000000000000000 $t
     /tmp/ccSFdtfu.s:1998   .text.osPoolCAlloc:0000000000000000 osPoolCAlloc
     /tmp/ccSFdtfu.s:2256   .text.osPoolFree:0000000000000000 $t
     /tmp/ccSFdtfu.s:2264   .text.osPoolFree:0000000000000000 osPoolFree
     /tmp/ccSFdtfu.s:2339   .text.osMessageCreate:0000000000000000 $t
     /tmp/ccSFdtfu.s:2347   .text.osMessageCreate:0000000000000000 osMessageCreate
     /tmp/ccSFdtfu.s:2379   .text.osMessagePut:0000000000000000 $t
     /tmp/ccSFdtfu.s:2387   .text.osMessagePut:0000000000000000 osMessagePut
     /tmp/ccSFdtfu.s:2500   .text.osMessagePut:000000000000004c $d
     /tmp/ccSFdtfu.s:2505   .text.osMessageGet:0000000000000000 $t
     /tmp/ccSFdtfu.s:2513   .text.osMessageGet:0000000000000000 osMessageGet
     /tmp/ccSFdtfu.s:2673   .text.osMessageGet:0000000000000074 $d
     /tmp/ccSFdtfu.s:2678   .text.osMailCreate:0000000000000000 $t
     /tmp/ccSFdtfu.s:2686   .text.osMailCreate:0000000000000000 osMailCreate
     /tmp/ccSFdtfu.s:2807   .text.osMailAlloc:0000000000000000 $t
     /tmp/ccSFdtfu.s:2815   .text.osMailAlloc:0000000000000000 osMailAlloc
     /tmp/ccSFdtfu.s:3063   .text.osMailCAlloc:0000000000000000 $t
     /tmp/ccSFdtfu.s:3071   .text.osMailCAlloc:0000000000000000 osMailCAlloc
     /tmp/ccSFdtfu.s:3410   .text.osMailPut:0000000000000000 $t
     /tmp/ccSFdtfu.s:3418   .text.osMailPut:0000000000000000 osMailPut
     /tmp/ccSFdtfu.s:3536   .text.osMailPut:0000000000000054 $d
     /tmp/ccSFdtfu.s:3541   .text.osMailGet:0000000000000000 $t
     /tmp/ccSFdtfu.s:3549   .text.osMailGet:0000000000000000 osMailGet
     /tmp/ccSFdtfu.s:3709   .text.osMailGet:0000000000000074 $d
     /tmp/ccSFdtfu.s:3714   .text.osMailFree:0000000000000000 $t
     /tmp/ccSFdtfu.s:3722   .text.osMailFree:0000000000000000 osMailFree
     /tmp/ccSFdtfu.s:3810   .text.osSystickHandler:0000000000000000 $t
     /tmp/ccSFdtfu.s:3818   .text.osSystickHandler:0000000000000000 osSystickHandler
     /tmp/ccSFdtfu.s:3848   .text.osThreadSuspend:0000000000000000 $t
     /tmp/ccSFdtfu.s:3856   .text.osThreadSuspend:0000000000000000 osThreadSuspend
     /tmp/ccSFdtfu.s:3882   .text.osThreadResume:0000000000000000 $t
     /tmp/ccSFdtfu.s:3890   .text.osThreadResume:0000000000000000 osThreadResume
     /tmp/ccSFdtfu.s:3969   .text.osThreadResume:0000000000000028 $d
     /tmp/ccSFdtfu.s:3974   .text.osThreadSuspendAll:0000000000000000 $t
     /tmp/ccSFdtfu.s:3982   .text.osThreadSuspendAll:0000000000000000 osThreadSuspendAll
     /tmp/ccSFdtfu.s:4007   .text.osThreadResumeAll:0000000000000000 $t
     /tmp/ccSFdtfu.s:4015   .text.osThreadResumeAll:0000000000000000 osThreadResumeAll
     /tmp/ccSFdtfu.s:4046   .text.osDelayUntil:0000000000000000 $t
     /tmp/ccSFdtfu.s:4054   .text.osDelayUntil:0000000000000000 osDelayUntil
     /tmp/ccSFdtfu.s:4075   .text.osAbortDelay:0000000000000000 $t
     /tmp/ccSFdtfu.s:4083   .text.osAbortDelay:0000000000000000 osAbortDelay
     /tmp/ccSFdtfu.s:4103   .text.osThreadList:0000000000000000 $t
     /tmp/ccSFdtfu.s:4111   .text.osThreadList:0000000000000000 osThreadList
     /tmp/ccSFdtfu.s:4130   .text.osMessagePeek:0000000000000000 $t
     /tmp/ccSFdtfu.s:4138   .text.osMessagePeek:0000000000000000 osMessagePeek
     /tmp/ccSFdtfu.s:4265   .text.osMessageWaiting:0000000000000000 $t
     /tmp/ccSFdtfu.s:4273   .text.osMessageWaiting:0000000000000000 osMessageWaiting
     /tmp/ccSFdtfu.s:4341   .text.osMessageAvailableSpace:0000000000000000 $t
     /tmp/ccSFdtfu.s:4349   .text.osMessageAvailableSpace:0000000000000000 osMessageAvailableSpace
     /tmp/ccSFdtfu.s:4373   .text.osMessageDelete:0000000000000000 $t
     /tmp/ccSFdtfu.s:4381   .text.osMessageDelete:0000000000000000 osMessageDelete
     /tmp/ccSFdtfu.s:4411   .text.osRecursiveMutexCreate:0000000000000000 $t
     /tmp/ccSFdtfu.s:4419   .text.osRecursiveMutexCreate:0000000000000000 osRecursiveMutexCreate
     /tmp/ccSFdtfu.s:4438   .text.osRecursiveMutexRelease:0000000000000000 $t
     /tmp/ccSFdtfu.s:4446   .text.osRecursiveMutexRelease:0000000000000000 osRecursiveMutexRelease
ARM GAS  /tmp/ccSFdtfu.s 			page 125


     /tmp/ccSFdtfu.s:4459   .text.osRecursiveMutexWait:0000000000000000 $t
     /tmp/ccSFdtfu.s:4467   .text.osRecursiveMutexWait:0000000000000000 osRecursiveMutexWait
     /tmp/ccSFdtfu.s:4480   .text.osSemaphoreGetCount:0000000000000000 $t
     /tmp/ccSFdtfu.s:4488   .text.osSemaphoreGetCount:0000000000000000 osSemaphoreGetCount

UNDEFINED SYMBOLS
vTaskStartScheduler
xTaskGetSchedulerState
xTaskGetTickCountFromISR
xTaskGetTickCount
xTaskCreate
xTaskGetCurrentTaskHandle
vTaskDelete
vPortYield
vTaskPrioritySet
uxTaskPriorityGetFromISR
uxTaskPriorityGet
vTaskDelay
xTaskGenericNotifyFromISR
xTaskGenericNotify
xTaskNotifyWait
xQueueCreateMutex
xQueueReceiveFromISR
xQueueGenericReceive
xQueueGiveFromISR
xQueueGenericSend
vQueueDelete
xQueueGenericCreate
pvPortMalloc
vPortFree
ulSetInterruptMaskFromISR
vPortExitCritical
vClearInterruptMaskFromISR
vPortEnterCritical
memset
__aeabi_uidivmod
xQueueGenericSendFromISR
SysTick_Handler
vTaskSuspend
xTaskResumeFromISR
vTaskResume
vTaskSuspendAll
xTaskResumeAll
uxQueueMessagesWaitingFromISR
uxQueueMessagesWaiting
uxQueueSpacesAvailable
