ARM GAS  /tmp/ccSFdtfu.s 			page 1


   1              		.cpu cortex-m0
   2              		.eabi_attribute 20, 1
   3              		.eabi_attribute 21, 1
   4              		.eabi_attribute 23, 3
   5              		.eabi_attribute 24, 1
   6              		.eabi_attribute 25, 1
   7              		.eabi_attribute 26, 1
   8              		.eabi_attribute 30, 2
   9              		.eabi_attribute 34, 0
  10              		.eabi_attribute 18, 4
  11              		.file	"cmsis_os.c"
  12              		.text
  13              	.Ltext0:
  14              		.cfi_sections	.debug_frame
  15              		.section	.text.osKernelStart,"ax",%progbits
  16              		.align	1
  17              		.p2align 2,,3
  18              		.global	osKernelStart
  19              		.arch armv6s-m
  20              		.syntax unified
  21              		.code	16
  22              		.thumb_func
  23              		.fpu softvfp
  25              	osKernelStart:
  26              	.LFB40:
  27              		.file 1 "Middlewares/Third_Party/FreeRTOS/Source/CMSIS_RTOS/cmsis_os.c"
   1:Middlewares/Third_Party/FreeRTOS/Source/CMSIS_RTOS/cmsis_os.c **** /* ----------------------------------------------------------------------
   2:Middlewares/Third_Party/FreeRTOS/Source/CMSIS_RTOS/cmsis_os.c ****  * $Date:        5. February 2013
   3:Middlewares/Third_Party/FreeRTOS/Source/CMSIS_RTOS/cmsis_os.c ****  * $Revision:    V1.02
   4:Middlewares/Third_Party/FreeRTOS/Source/CMSIS_RTOS/cmsis_os.c ****  *
   5:Middlewares/Third_Party/FreeRTOS/Source/CMSIS_RTOS/cmsis_os.c ****  * Project:      CMSIS-RTOS API
   6:Middlewares/Third_Party/FreeRTOS/Source/CMSIS_RTOS/cmsis_os.c ****  * Title:        cmsis_os.c
   7:Middlewares/Third_Party/FreeRTOS/Source/CMSIS_RTOS/cmsis_os.c ****  *
   8:Middlewares/Third_Party/FreeRTOS/Source/CMSIS_RTOS/cmsis_os.c ****  * Version 0.02
   9:Middlewares/Third_Party/FreeRTOS/Source/CMSIS_RTOS/cmsis_os.c ****  *    Initial Proposal Phase
  10:Middlewares/Third_Party/FreeRTOS/Source/CMSIS_RTOS/cmsis_os.c ****  * Version 0.03
  11:Middlewares/Third_Party/FreeRTOS/Source/CMSIS_RTOS/cmsis_os.c ****  *    osKernelStart added, optional feature: main started as thread
  12:Middlewares/Third_Party/FreeRTOS/Source/CMSIS_RTOS/cmsis_os.c ****  *    osSemaphores have standard behavior
  13:Middlewares/Third_Party/FreeRTOS/Source/CMSIS_RTOS/cmsis_os.c ****  *    osTimerCreate does not start the timer, added osTimerStart
  14:Middlewares/Third_Party/FreeRTOS/Source/CMSIS_RTOS/cmsis_os.c ****  *    osThreadPass is renamed to osThreadYield
  15:Middlewares/Third_Party/FreeRTOS/Source/CMSIS_RTOS/cmsis_os.c ****  * Version 1.01
  16:Middlewares/Third_Party/FreeRTOS/Source/CMSIS_RTOS/cmsis_os.c ****  *    Support for C++ interface
  17:Middlewares/Third_Party/FreeRTOS/Source/CMSIS_RTOS/cmsis_os.c ****  *     - const attribute removed from the osXxxxDef_t typedef's
  18:Middlewares/Third_Party/FreeRTOS/Source/CMSIS_RTOS/cmsis_os.c ****  *     - const attribute added to the osXxxxDef macros
  19:Middlewares/Third_Party/FreeRTOS/Source/CMSIS_RTOS/cmsis_os.c ****  *    Added: osTimerDelete, osMutexDelete, osSemaphoreDelete
  20:Middlewares/Third_Party/FreeRTOS/Source/CMSIS_RTOS/cmsis_os.c ****  *    Added: osKernelInitialize
  21:Middlewares/Third_Party/FreeRTOS/Source/CMSIS_RTOS/cmsis_os.c ****  * Version 1.02
  22:Middlewares/Third_Party/FreeRTOS/Source/CMSIS_RTOS/cmsis_os.c ****  *    Control functions for short timeouts in microsecond resolution:
  23:Middlewares/Third_Party/FreeRTOS/Source/CMSIS_RTOS/cmsis_os.c ****  *    Added: osKernelSysTick, osKernelSysTickFrequency, osKernelSysTickMicroSec
  24:Middlewares/Third_Party/FreeRTOS/Source/CMSIS_RTOS/cmsis_os.c ****  *    Removed: osSignalGet 
  25:Middlewares/Third_Party/FreeRTOS/Source/CMSIS_RTOS/cmsis_os.c ****  *    
  26:Middlewares/Third_Party/FreeRTOS/Source/CMSIS_RTOS/cmsis_os.c ****  *  
  27:Middlewares/Third_Party/FreeRTOS/Source/CMSIS_RTOS/cmsis_os.c ****  *----------------------------------------------------------------------------
  28:Middlewares/Third_Party/FreeRTOS/Source/CMSIS_RTOS/cmsis_os.c ****  *
  29:Middlewares/Third_Party/FreeRTOS/Source/CMSIS_RTOS/cmsis_os.c ****  * Portions Copyright © 2016 STMicroelectronics International N.V. All rights reserved.
  30:Middlewares/Third_Party/FreeRTOS/Source/CMSIS_RTOS/cmsis_os.c ****  * Portions Copyright (c) 2013 ARM LIMITED
  31:Middlewares/Third_Party/FreeRTOS/Source/CMSIS_RTOS/cmsis_os.c ****  * All rights reserved.
ARM GAS  /tmp/ccSFdtfu.s 			page 2


  32:Middlewares/Third_Party/FreeRTOS/Source/CMSIS_RTOS/cmsis_os.c ****  * Redistribution and use in source and binary forms, with or without
  33:Middlewares/Third_Party/FreeRTOS/Source/CMSIS_RTOS/cmsis_os.c ****  * modification, are permitted provided that the following conditions are met:
  34:Middlewares/Third_Party/FreeRTOS/Source/CMSIS_RTOS/cmsis_os.c ****  *  - Redistributions of source code must retain the above copyright
  35:Middlewares/Third_Party/FreeRTOS/Source/CMSIS_RTOS/cmsis_os.c ****  *    notice, this list of conditions and the following disclaimer.
  36:Middlewares/Third_Party/FreeRTOS/Source/CMSIS_RTOS/cmsis_os.c ****  *  - Redistributions in binary form must reproduce the above copyright
  37:Middlewares/Third_Party/FreeRTOS/Source/CMSIS_RTOS/cmsis_os.c ****  *    notice, this list of conditions and the following disclaimer in the
  38:Middlewares/Third_Party/FreeRTOS/Source/CMSIS_RTOS/cmsis_os.c ****  *    documentation and/or other materials provided with the distribution.
  39:Middlewares/Third_Party/FreeRTOS/Source/CMSIS_RTOS/cmsis_os.c ****  *  - Neither the name of ARM  nor the names of its contributors may be used
  40:Middlewares/Third_Party/FreeRTOS/Source/CMSIS_RTOS/cmsis_os.c ****  *    to endorse or promote products derived from this software without
  41:Middlewares/Third_Party/FreeRTOS/Source/CMSIS_RTOS/cmsis_os.c ****  *    specific prior written permission.
  42:Middlewares/Third_Party/FreeRTOS/Source/CMSIS_RTOS/cmsis_os.c ****  *
  43:Middlewares/Third_Party/FreeRTOS/Source/CMSIS_RTOS/cmsis_os.c ****  * THIS SOFTWARE IS PROVIDED BY THE COPYRIGHT HOLDERS AND CONTRIBUTORS "AS IS"
  44:Middlewares/Third_Party/FreeRTOS/Source/CMSIS_RTOS/cmsis_os.c ****  * AND ANY EXPRESS OR IMPLIED WARRANTIES, INCLUDING, BUT NOT LIMITED TO, THE
  45:Middlewares/Third_Party/FreeRTOS/Source/CMSIS_RTOS/cmsis_os.c ****  * IMPLIED WARRANTIES OF MERCHANTABILITY AND FITNESS FOR A PARTICULAR PURPOSE
  46:Middlewares/Third_Party/FreeRTOS/Source/CMSIS_RTOS/cmsis_os.c ****  * ARE DISCLAIMED. IN NO EVENT SHALL COPYRIGHT HOLDERS AND CONTRIBUTORS BE
  47:Middlewares/Third_Party/FreeRTOS/Source/CMSIS_RTOS/cmsis_os.c ****  * LIABLE FOR ANY DIRECT, INDIRECT, INCIDENTAL, SPECIAL, EXEMPLARY, OR
  48:Middlewares/Third_Party/FreeRTOS/Source/CMSIS_RTOS/cmsis_os.c ****  * CONSEQUENTIAL DAMAGES (INCLUDING, BUT NOT LIMITED TO, PROCUREMENT OF
  49:Middlewares/Third_Party/FreeRTOS/Source/CMSIS_RTOS/cmsis_os.c ****  * SUBSTITUTE GOODS OR SERVICES; LOSS OF USE, DATA, OR PROFITS; OR BUSINESS
  50:Middlewares/Third_Party/FreeRTOS/Source/CMSIS_RTOS/cmsis_os.c ****  * INTERRUPTION) HOWEVER CAUSED AND ON ANY THEORY OF LIABILITY, WHETHER IN
  51:Middlewares/Third_Party/FreeRTOS/Source/CMSIS_RTOS/cmsis_os.c ****  * CONTRACT, STRICT LIABILITY, OR TORT (INCLUDING NEGLIGENCE OR OTHERWISE)
  52:Middlewares/Third_Party/FreeRTOS/Source/CMSIS_RTOS/cmsis_os.c ****  * ARISING IN ANY WAY OUT OF THE USE OF THIS SOFTWARE, EVEN IF ADVISED OF THE
  53:Middlewares/Third_Party/FreeRTOS/Source/CMSIS_RTOS/cmsis_os.c ****  * POSSIBILITY OF SUCH DAMAGE.
  54:Middlewares/Third_Party/FreeRTOS/Source/CMSIS_RTOS/cmsis_os.c ****  *---------------------------------------------------------------------------*/
  55:Middlewares/Third_Party/FreeRTOS/Source/CMSIS_RTOS/cmsis_os.c **** 
  56:Middlewares/Third_Party/FreeRTOS/Source/CMSIS_RTOS/cmsis_os.c ****  /**
  57:Middlewares/Third_Party/FreeRTOS/Source/CMSIS_RTOS/cmsis_os.c ****   ******************************************************************************
  58:Middlewares/Third_Party/FreeRTOS/Source/CMSIS_RTOS/cmsis_os.c ****   * @file    cmsis_os.c
  59:Middlewares/Third_Party/FreeRTOS/Source/CMSIS_RTOS/cmsis_os.c ****   * @author  MCD Application Team
  60:Middlewares/Third_Party/FreeRTOS/Source/CMSIS_RTOS/cmsis_os.c ****   * @date    03-March-2017
  61:Middlewares/Third_Party/FreeRTOS/Source/CMSIS_RTOS/cmsis_os.c ****   * @brief   CMSIS-RTOS API implementation for FreeRTOS V9.0.0
  62:Middlewares/Third_Party/FreeRTOS/Source/CMSIS_RTOS/cmsis_os.c ****   ******************************************************************************
  63:Middlewares/Third_Party/FreeRTOS/Source/CMSIS_RTOS/cmsis_os.c ****   * @attention
  64:Middlewares/Third_Party/FreeRTOS/Source/CMSIS_RTOS/cmsis_os.c ****   *
  65:Middlewares/Third_Party/FreeRTOS/Source/CMSIS_RTOS/cmsis_os.c ****   * Redistribution and use in source and binary forms, with or without 
  66:Middlewares/Third_Party/FreeRTOS/Source/CMSIS_RTOS/cmsis_os.c ****   * modification, are permitted, provided that the following conditions are met:
  67:Middlewares/Third_Party/FreeRTOS/Source/CMSIS_RTOS/cmsis_os.c ****   *
  68:Middlewares/Third_Party/FreeRTOS/Source/CMSIS_RTOS/cmsis_os.c ****   * 1. Redistribution of source code must retain the above copyright notice, 
  69:Middlewares/Third_Party/FreeRTOS/Source/CMSIS_RTOS/cmsis_os.c ****   *    this list of conditions and the following disclaimer.
  70:Middlewares/Third_Party/FreeRTOS/Source/CMSIS_RTOS/cmsis_os.c ****   * 2. Redistributions in binary form must reproduce the above copyright notice,
  71:Middlewares/Third_Party/FreeRTOS/Source/CMSIS_RTOS/cmsis_os.c ****   *    this list of conditions and the following disclaimer in the documentation
  72:Middlewares/Third_Party/FreeRTOS/Source/CMSIS_RTOS/cmsis_os.c ****   *    and/or other materials provided with the distribution.
  73:Middlewares/Third_Party/FreeRTOS/Source/CMSIS_RTOS/cmsis_os.c ****   * 3. Neither the name of STMicroelectronics nor the names of other 
  74:Middlewares/Third_Party/FreeRTOS/Source/CMSIS_RTOS/cmsis_os.c ****   *    contributors to this software may be used to endorse or promote products 
  75:Middlewares/Third_Party/FreeRTOS/Source/CMSIS_RTOS/cmsis_os.c ****   *    derived from this software without specific written permission.
  76:Middlewares/Third_Party/FreeRTOS/Source/CMSIS_RTOS/cmsis_os.c ****   * 4. This software, including modifications and/or derivative works of this 
  77:Middlewares/Third_Party/FreeRTOS/Source/CMSIS_RTOS/cmsis_os.c ****   *    software, must execute solely and exclusively on microcontroller or
  78:Middlewares/Third_Party/FreeRTOS/Source/CMSIS_RTOS/cmsis_os.c ****   *    microprocessor devices manufactured by or for STMicroelectronics.
  79:Middlewares/Third_Party/FreeRTOS/Source/CMSIS_RTOS/cmsis_os.c ****   * 5. Redistribution and use of this software other than as permitted under 
  80:Middlewares/Third_Party/FreeRTOS/Source/CMSIS_RTOS/cmsis_os.c ****   *    this license is void and will automatically terminate your rights under 
  81:Middlewares/Third_Party/FreeRTOS/Source/CMSIS_RTOS/cmsis_os.c ****   *    this license. 
  82:Middlewares/Third_Party/FreeRTOS/Source/CMSIS_RTOS/cmsis_os.c ****   *
  83:Middlewares/Third_Party/FreeRTOS/Source/CMSIS_RTOS/cmsis_os.c ****   * THIS SOFTWARE IS PROVIDED BY STMICROELECTRONICS AND CONTRIBUTORS "AS IS" 
  84:Middlewares/Third_Party/FreeRTOS/Source/CMSIS_RTOS/cmsis_os.c ****   * AND ANY EXPRESS, IMPLIED OR STATUTORY WARRANTIES, INCLUDING, BUT NOT 
  85:Middlewares/Third_Party/FreeRTOS/Source/CMSIS_RTOS/cmsis_os.c ****   * LIMITED TO, THE IMPLIED WARRANTIES OF MERCHANTABILITY, FITNESS FOR A 
  86:Middlewares/Third_Party/FreeRTOS/Source/CMSIS_RTOS/cmsis_os.c ****   * PARTICULAR PURPOSE AND NON-INFRINGEMENT OF THIRD PARTY INTELLECTUAL PROPERTY
  87:Middlewares/Third_Party/FreeRTOS/Source/CMSIS_RTOS/cmsis_os.c ****   * RIGHTS ARE DISCLAIMED TO THE FULLEST EXTENT PERMITTED BY LAW. IN NO EVENT 
  88:Middlewares/Third_Party/FreeRTOS/Source/CMSIS_RTOS/cmsis_os.c ****   * SHALL STMICROELECTRONICS OR CONTRIBUTORS BE LIABLE FOR ANY DIRECT, INDIRECT,
ARM GAS  /tmp/ccSFdtfu.s 			page 3


  89:Middlewares/Third_Party/FreeRTOS/Source/CMSIS_RTOS/cmsis_os.c ****   * INCIDENTAL, SPECIAL, EXEMPLARY, OR CONSEQUENTIAL DAMAGES (INCLUDING, BUT NOT
  90:Middlewares/Third_Party/FreeRTOS/Source/CMSIS_RTOS/cmsis_os.c ****   * LIMITED TO, PROCUREMENT OF SUBSTITUTE GOODS OR SERVICES; LOSS OF USE, DATA, 
  91:Middlewares/Third_Party/FreeRTOS/Source/CMSIS_RTOS/cmsis_os.c ****   * OR PROFITS; OR BUSINESS INTERRUPTION) HOWEVER CAUSED AND ON ANY THEORY OF 
  92:Middlewares/Third_Party/FreeRTOS/Source/CMSIS_RTOS/cmsis_os.c ****   * LIABILITY, WHETHER IN CONTRACT, STRICT LIABILITY, OR TORT (INCLUDING 
  93:Middlewares/Third_Party/FreeRTOS/Source/CMSIS_RTOS/cmsis_os.c ****   * NEGLIGENCE OR OTHERWISE) ARISING IN ANY WAY OUT OF THE USE OF THIS SOFTWARE,
  94:Middlewares/Third_Party/FreeRTOS/Source/CMSIS_RTOS/cmsis_os.c ****   * EVEN IF ADVISED OF THE POSSIBILITY OF SUCH DAMAGE.
  95:Middlewares/Third_Party/FreeRTOS/Source/CMSIS_RTOS/cmsis_os.c ****   *
  96:Middlewares/Third_Party/FreeRTOS/Source/CMSIS_RTOS/cmsis_os.c ****   ******************************************************************************
  97:Middlewares/Third_Party/FreeRTOS/Source/CMSIS_RTOS/cmsis_os.c ****   */ 
  98:Middlewares/Third_Party/FreeRTOS/Source/CMSIS_RTOS/cmsis_os.c **** 
  99:Middlewares/Third_Party/FreeRTOS/Source/CMSIS_RTOS/cmsis_os.c **** #include <string.h>
 100:Middlewares/Third_Party/FreeRTOS/Source/CMSIS_RTOS/cmsis_os.c **** #include "cmsis_os.h"
 101:Middlewares/Third_Party/FreeRTOS/Source/CMSIS_RTOS/cmsis_os.c **** 
 102:Middlewares/Third_Party/FreeRTOS/Source/CMSIS_RTOS/cmsis_os.c **** /*
 103:Middlewares/Third_Party/FreeRTOS/Source/CMSIS_RTOS/cmsis_os.c ****  * ARM Compiler 4/5
 104:Middlewares/Third_Party/FreeRTOS/Source/CMSIS_RTOS/cmsis_os.c ****  */
 105:Middlewares/Third_Party/FreeRTOS/Source/CMSIS_RTOS/cmsis_os.c **** #if   defined ( __CC_ARM )
 106:Middlewares/Third_Party/FreeRTOS/Source/CMSIS_RTOS/cmsis_os.c **** 
 107:Middlewares/Third_Party/FreeRTOS/Source/CMSIS_RTOS/cmsis_os.c ****   #define __ASM            __asm                                      
 108:Middlewares/Third_Party/FreeRTOS/Source/CMSIS_RTOS/cmsis_os.c ****   #define __INLINE         __inline                                     
 109:Middlewares/Third_Party/FreeRTOS/Source/CMSIS_RTOS/cmsis_os.c ****   #define __STATIC_INLINE  static __inline
 110:Middlewares/Third_Party/FreeRTOS/Source/CMSIS_RTOS/cmsis_os.c ****   #include "cmsis_armcc.h"
 111:Middlewares/Third_Party/FreeRTOS/Source/CMSIS_RTOS/cmsis_os.c **** 
 112:Middlewares/Third_Party/FreeRTOS/Source/CMSIS_RTOS/cmsis_os.c **** /*
 113:Middlewares/Third_Party/FreeRTOS/Source/CMSIS_RTOS/cmsis_os.c ****  * GNU Compiler
 114:Middlewares/Third_Party/FreeRTOS/Source/CMSIS_RTOS/cmsis_os.c ****  */
 115:Middlewares/Third_Party/FreeRTOS/Source/CMSIS_RTOS/cmsis_os.c **** #elif defined ( __GNUC__ )
 116:Middlewares/Third_Party/FreeRTOS/Source/CMSIS_RTOS/cmsis_os.c **** 
 117:Middlewares/Third_Party/FreeRTOS/Source/CMSIS_RTOS/cmsis_os.c ****   #define __ASM            __asm                                      /*!< asm keyword for GNU Comp
 118:Middlewares/Third_Party/FreeRTOS/Source/CMSIS_RTOS/cmsis_os.c ****   #define __INLINE         inline                                     /*!< inline keyword for GNU C
 119:Middlewares/Third_Party/FreeRTOS/Source/CMSIS_RTOS/cmsis_os.c ****   #define __STATIC_INLINE  static inline
 120:Middlewares/Third_Party/FreeRTOS/Source/CMSIS_RTOS/cmsis_os.c **** 
 121:Middlewares/Third_Party/FreeRTOS/Source/CMSIS_RTOS/cmsis_os.c **** 
 122:Middlewares/Third_Party/FreeRTOS/Source/CMSIS_RTOS/cmsis_os.c ****   #include "cmsis_gcc.h"
 123:Middlewares/Third_Party/FreeRTOS/Source/CMSIS_RTOS/cmsis_os.c **** 
 124:Middlewares/Third_Party/FreeRTOS/Source/CMSIS_RTOS/cmsis_os.c **** 
 125:Middlewares/Third_Party/FreeRTOS/Source/CMSIS_RTOS/cmsis_os.c **** /*
 126:Middlewares/Third_Party/FreeRTOS/Source/CMSIS_RTOS/cmsis_os.c ****  * IAR Compiler
 127:Middlewares/Third_Party/FreeRTOS/Source/CMSIS_RTOS/cmsis_os.c ****  */
 128:Middlewares/Third_Party/FreeRTOS/Source/CMSIS_RTOS/cmsis_os.c **** #elif defined ( __ICCARM__ )
 129:Middlewares/Third_Party/FreeRTOS/Source/CMSIS_RTOS/cmsis_os.c **** 
 130:Middlewares/Third_Party/FreeRTOS/Source/CMSIS_RTOS/cmsis_os.c ****   #ifndef   __ASM
 131:Middlewares/Third_Party/FreeRTOS/Source/CMSIS_RTOS/cmsis_os.c ****     #define __ASM                     __asm
 132:Middlewares/Third_Party/FreeRTOS/Source/CMSIS_RTOS/cmsis_os.c ****   #endif
 133:Middlewares/Third_Party/FreeRTOS/Source/CMSIS_RTOS/cmsis_os.c ****   #ifndef   __INLINE
 134:Middlewares/Third_Party/FreeRTOS/Source/CMSIS_RTOS/cmsis_os.c ****     #define __INLINE                  inline
 135:Middlewares/Third_Party/FreeRTOS/Source/CMSIS_RTOS/cmsis_os.c ****   #endif
 136:Middlewares/Third_Party/FreeRTOS/Source/CMSIS_RTOS/cmsis_os.c ****   #ifndef   __STATIC_INLINE
 137:Middlewares/Third_Party/FreeRTOS/Source/CMSIS_RTOS/cmsis_os.c ****     #define __STATIC_INLINE           static inline
 138:Middlewares/Third_Party/FreeRTOS/Source/CMSIS_RTOS/cmsis_os.c ****   #endif
 139:Middlewares/Third_Party/FreeRTOS/Source/CMSIS_RTOS/cmsis_os.c **** 
 140:Middlewares/Third_Party/FreeRTOS/Source/CMSIS_RTOS/cmsis_os.c ****   #include <cmsis_iar.h>
 141:Middlewares/Third_Party/FreeRTOS/Source/CMSIS_RTOS/cmsis_os.c **** #endif
 142:Middlewares/Third_Party/FreeRTOS/Source/CMSIS_RTOS/cmsis_os.c **** 
 143:Middlewares/Third_Party/FreeRTOS/Source/CMSIS_RTOS/cmsis_os.c **** extern void xPortSysTickHandler(void);
 144:Middlewares/Third_Party/FreeRTOS/Source/CMSIS_RTOS/cmsis_os.c **** 
 145:Middlewares/Third_Party/FreeRTOS/Source/CMSIS_RTOS/cmsis_os.c **** /* Convert from CMSIS type osPriority to FreeRTOS priority number */
ARM GAS  /tmp/ccSFdtfu.s 			page 4


 146:Middlewares/Third_Party/FreeRTOS/Source/CMSIS_RTOS/cmsis_os.c **** static unsigned portBASE_TYPE makeFreeRtosPriority (osPriority priority)
 147:Middlewares/Third_Party/FreeRTOS/Source/CMSIS_RTOS/cmsis_os.c **** {
 148:Middlewares/Third_Party/FreeRTOS/Source/CMSIS_RTOS/cmsis_os.c ****   unsigned portBASE_TYPE fpriority = tskIDLE_PRIORITY;
 149:Middlewares/Third_Party/FreeRTOS/Source/CMSIS_RTOS/cmsis_os.c ****   
 150:Middlewares/Third_Party/FreeRTOS/Source/CMSIS_RTOS/cmsis_os.c ****   if (priority != osPriorityError) {
 151:Middlewares/Third_Party/FreeRTOS/Source/CMSIS_RTOS/cmsis_os.c ****     fpriority += (priority - osPriorityIdle);
 152:Middlewares/Third_Party/FreeRTOS/Source/CMSIS_RTOS/cmsis_os.c ****   }
 153:Middlewares/Third_Party/FreeRTOS/Source/CMSIS_RTOS/cmsis_os.c ****   
 154:Middlewares/Third_Party/FreeRTOS/Source/CMSIS_RTOS/cmsis_os.c ****   return fpriority;
 155:Middlewares/Third_Party/FreeRTOS/Source/CMSIS_RTOS/cmsis_os.c **** }
 156:Middlewares/Third_Party/FreeRTOS/Source/CMSIS_RTOS/cmsis_os.c **** 
 157:Middlewares/Third_Party/FreeRTOS/Source/CMSIS_RTOS/cmsis_os.c **** #if (INCLUDE_uxTaskPriorityGet == 1)
 158:Middlewares/Third_Party/FreeRTOS/Source/CMSIS_RTOS/cmsis_os.c **** /* Convert from FreeRTOS priority number to CMSIS type osPriority */
 159:Middlewares/Third_Party/FreeRTOS/Source/CMSIS_RTOS/cmsis_os.c **** static osPriority makeCmsisPriority (unsigned portBASE_TYPE fpriority)
 160:Middlewares/Third_Party/FreeRTOS/Source/CMSIS_RTOS/cmsis_os.c **** {
 161:Middlewares/Third_Party/FreeRTOS/Source/CMSIS_RTOS/cmsis_os.c ****   osPriority priority = osPriorityError;
 162:Middlewares/Third_Party/FreeRTOS/Source/CMSIS_RTOS/cmsis_os.c ****   
 163:Middlewares/Third_Party/FreeRTOS/Source/CMSIS_RTOS/cmsis_os.c ****   if ((fpriority - tskIDLE_PRIORITY) <= (osPriorityRealtime - osPriorityIdle)) {
 164:Middlewares/Third_Party/FreeRTOS/Source/CMSIS_RTOS/cmsis_os.c ****     priority = (osPriority)((int)osPriorityIdle + (int)(fpriority - tskIDLE_PRIORITY));
 165:Middlewares/Third_Party/FreeRTOS/Source/CMSIS_RTOS/cmsis_os.c ****   }
 166:Middlewares/Third_Party/FreeRTOS/Source/CMSIS_RTOS/cmsis_os.c ****   
 167:Middlewares/Third_Party/FreeRTOS/Source/CMSIS_RTOS/cmsis_os.c ****   return priority;
 168:Middlewares/Third_Party/FreeRTOS/Source/CMSIS_RTOS/cmsis_os.c **** }
 169:Middlewares/Third_Party/FreeRTOS/Source/CMSIS_RTOS/cmsis_os.c **** #endif
 170:Middlewares/Third_Party/FreeRTOS/Source/CMSIS_RTOS/cmsis_os.c **** 
 171:Middlewares/Third_Party/FreeRTOS/Source/CMSIS_RTOS/cmsis_os.c **** 
 172:Middlewares/Third_Party/FreeRTOS/Source/CMSIS_RTOS/cmsis_os.c **** /* Determine whether we are in thread mode or handler mode. */
 173:Middlewares/Third_Party/FreeRTOS/Source/CMSIS_RTOS/cmsis_os.c **** static int inHandlerMode (void)
 174:Middlewares/Third_Party/FreeRTOS/Source/CMSIS_RTOS/cmsis_os.c **** {
 175:Middlewares/Third_Party/FreeRTOS/Source/CMSIS_RTOS/cmsis_os.c ****   return __get_IPSR() != 0;
 176:Middlewares/Third_Party/FreeRTOS/Source/CMSIS_RTOS/cmsis_os.c **** }
 177:Middlewares/Third_Party/FreeRTOS/Source/CMSIS_RTOS/cmsis_os.c **** 
 178:Middlewares/Third_Party/FreeRTOS/Source/CMSIS_RTOS/cmsis_os.c **** /*********************** Kernel Control Functions *****************************/
 179:Middlewares/Third_Party/FreeRTOS/Source/CMSIS_RTOS/cmsis_os.c **** /**
 180:Middlewares/Third_Party/FreeRTOS/Source/CMSIS_RTOS/cmsis_os.c **** * @brief  Initialize the RTOS Kernel for creating objects.
 181:Middlewares/Third_Party/FreeRTOS/Source/CMSIS_RTOS/cmsis_os.c **** * @retval status code that indicates the execution status of the function.
 182:Middlewares/Third_Party/FreeRTOS/Source/CMSIS_RTOS/cmsis_os.c **** * @note   MUST REMAIN UNCHANGED: \b osKernelInitialize shall be consistent in every CMSIS-RTOS.
 183:Middlewares/Third_Party/FreeRTOS/Source/CMSIS_RTOS/cmsis_os.c **** */
 184:Middlewares/Third_Party/FreeRTOS/Source/CMSIS_RTOS/cmsis_os.c **** osStatus osKernelInitialize (void);
 185:Middlewares/Third_Party/FreeRTOS/Source/CMSIS_RTOS/cmsis_os.c **** 
 186:Middlewares/Third_Party/FreeRTOS/Source/CMSIS_RTOS/cmsis_os.c **** /**
 187:Middlewares/Third_Party/FreeRTOS/Source/CMSIS_RTOS/cmsis_os.c **** * @brief  Start the RTOS Kernel with executing the specified thread.
 188:Middlewares/Third_Party/FreeRTOS/Source/CMSIS_RTOS/cmsis_os.c **** * @param  thread_def    thread definition referenced with \ref osThread.
 189:Middlewares/Third_Party/FreeRTOS/Source/CMSIS_RTOS/cmsis_os.c **** * @param  argument      pointer that is passed to the thread function as start argument.
 190:Middlewares/Third_Party/FreeRTOS/Source/CMSIS_RTOS/cmsis_os.c **** * @retval status code that indicates the execution status of the function
 191:Middlewares/Third_Party/FreeRTOS/Source/CMSIS_RTOS/cmsis_os.c **** * @note   MUST REMAIN UNCHANGED: \b osKernelStart shall be consistent in every CMSIS-RTOS.
 192:Middlewares/Third_Party/FreeRTOS/Source/CMSIS_RTOS/cmsis_os.c **** */
 193:Middlewares/Third_Party/FreeRTOS/Source/CMSIS_RTOS/cmsis_os.c **** osStatus osKernelStart (void)
 194:Middlewares/Third_Party/FreeRTOS/Source/CMSIS_RTOS/cmsis_os.c **** {
  28              		.loc 1 194 1 view -0
  29              		.cfi_startproc
  30              		@ args = 0, pretend = 0, frame = 0
  31              		@ frame_needed = 0, uses_anonymous_args = 0
 195:Middlewares/Third_Party/FreeRTOS/Source/CMSIS_RTOS/cmsis_os.c ****   vTaskStartScheduler();
  32              		.loc 1 195 3 view .LVU1
 194:Middlewares/Third_Party/FreeRTOS/Source/CMSIS_RTOS/cmsis_os.c ****   vTaskStartScheduler();
  33              		.loc 1 194 1 is_stmt 0 view .LVU2
ARM GAS  /tmp/ccSFdtfu.s 			page 5


  34 0000 10B5     		push	{r4, lr}
  35              	.LCFI0:
  36              		.cfi_def_cfa_offset 8
  37              		.cfi_offset 4, -8
  38              		.cfi_offset 14, -4
  39              		.loc 1 195 3 view .LVU3
  40 0002 FFF7FEFF 		bl	vTaskStartScheduler
  41              	.LVL0:
 196:Middlewares/Third_Party/FreeRTOS/Source/CMSIS_RTOS/cmsis_os.c ****   
 197:Middlewares/Third_Party/FreeRTOS/Source/CMSIS_RTOS/cmsis_os.c ****   return osOK;
  42              		.loc 1 197 3 is_stmt 1 view .LVU4
 198:Middlewares/Third_Party/FreeRTOS/Source/CMSIS_RTOS/cmsis_os.c **** }
  43              		.loc 1 198 1 is_stmt 0 view .LVU5
  44              		@ sp needed
  45 0006 0020     		movs	r0, #0
  46 0008 10BD     		pop	{r4, pc}
  47              		.cfi_endproc
  48              	.LFE40:
  50 000a C046     		.section	.text.osKernelRunning,"ax",%progbits
  51              		.align	1
  52              		.p2align 2,,3
  53              		.global	osKernelRunning
  54              		.syntax unified
  55              		.code	16
  56              		.thumb_func
  57              		.fpu softvfp
  59              	osKernelRunning:
  60              	.LFB41:
 199:Middlewares/Third_Party/FreeRTOS/Source/CMSIS_RTOS/cmsis_os.c **** 
 200:Middlewares/Third_Party/FreeRTOS/Source/CMSIS_RTOS/cmsis_os.c **** /**
 201:Middlewares/Third_Party/FreeRTOS/Source/CMSIS_RTOS/cmsis_os.c **** * @brief  Check if the RTOS kernel is already started
 202:Middlewares/Third_Party/FreeRTOS/Source/CMSIS_RTOS/cmsis_os.c **** * @param  None
 203:Middlewares/Third_Party/FreeRTOS/Source/CMSIS_RTOS/cmsis_os.c **** * @retval (0) RTOS is not started
 204:Middlewares/Third_Party/FreeRTOS/Source/CMSIS_RTOS/cmsis_os.c **** *         (1) RTOS is started
 205:Middlewares/Third_Party/FreeRTOS/Source/CMSIS_RTOS/cmsis_os.c **** *         (-1) if this feature is disabled in FreeRTOSConfig.h 
 206:Middlewares/Third_Party/FreeRTOS/Source/CMSIS_RTOS/cmsis_os.c **** * @note  MUST REMAIN UNCHANGED: \b osKernelRunning shall be consistent in every CMSIS-RTOS.
 207:Middlewares/Third_Party/FreeRTOS/Source/CMSIS_RTOS/cmsis_os.c **** */
 208:Middlewares/Third_Party/FreeRTOS/Source/CMSIS_RTOS/cmsis_os.c **** int32_t osKernelRunning(void)
 209:Middlewares/Third_Party/FreeRTOS/Source/CMSIS_RTOS/cmsis_os.c **** {
  61              		.loc 1 209 1 is_stmt 1 view -0
  62              		.cfi_startproc
  63              		@ args = 0, pretend = 0, frame = 0
  64              		@ frame_needed = 0, uses_anonymous_args = 0
 210:Middlewares/Third_Party/FreeRTOS/Source/CMSIS_RTOS/cmsis_os.c **** #if ( ( INCLUDE_xTaskGetSchedulerState == 1 ) || ( configUSE_TIMERS == 1 ) )
 211:Middlewares/Third_Party/FreeRTOS/Source/CMSIS_RTOS/cmsis_os.c ****   if (xTaskGetSchedulerState() == taskSCHEDULER_NOT_STARTED)
  65              		.loc 1 211 3 view .LVU7
 209:Middlewares/Third_Party/FreeRTOS/Source/CMSIS_RTOS/cmsis_os.c **** #if ( ( INCLUDE_xTaskGetSchedulerState == 1 ) || ( configUSE_TIMERS == 1 ) )
  66              		.loc 1 209 1 is_stmt 0 view .LVU8
  67 0000 10B5     		push	{r4, lr}
  68              	.LCFI1:
  69              		.cfi_def_cfa_offset 8
  70              		.cfi_offset 4, -8
  71              		.cfi_offset 14, -4
  72              		.loc 1 211 7 view .LVU9
  73 0002 FFF7FEFF 		bl	xTaskGetSchedulerState
  74              	.LVL1:
  75              		.loc 1 211 6 view .LVU10
ARM GAS  /tmp/ccSFdtfu.s 			page 6


  76 0006 0138     		subs	r0, r0, #1
  77 0008 431E     		subs	r3, r0, #1
  78 000a 9841     		sbcs	r0, r0, r3
 212:Middlewares/Third_Party/FreeRTOS/Source/CMSIS_RTOS/cmsis_os.c ****     return 0;
 213:Middlewares/Third_Party/FreeRTOS/Source/CMSIS_RTOS/cmsis_os.c ****   else
 214:Middlewares/Third_Party/FreeRTOS/Source/CMSIS_RTOS/cmsis_os.c ****     return 1;
 215:Middlewares/Third_Party/FreeRTOS/Source/CMSIS_RTOS/cmsis_os.c **** #else
 216:Middlewares/Third_Party/FreeRTOS/Source/CMSIS_RTOS/cmsis_os.c **** 	return (-1);
 217:Middlewares/Third_Party/FreeRTOS/Source/CMSIS_RTOS/cmsis_os.c **** #endif	
 218:Middlewares/Third_Party/FreeRTOS/Source/CMSIS_RTOS/cmsis_os.c **** }
  79              		.loc 1 218 1 view .LVU11
  80              		@ sp needed
  81 000c 10BD     		pop	{r4, pc}
  82              		.cfi_endproc
  83              	.LFE41:
  85 000e C046     		.section	.text.osKernelSysTick,"ax",%progbits
  86              		.align	1
  87              		.p2align 2,,3
  88              		.global	osKernelSysTick
  89              		.syntax unified
  90              		.code	16
  91              		.thumb_func
  92              		.fpu softvfp
  94              	osKernelSysTick:
  95              	.LFB42:
 219:Middlewares/Third_Party/FreeRTOS/Source/CMSIS_RTOS/cmsis_os.c **** 
 220:Middlewares/Third_Party/FreeRTOS/Source/CMSIS_RTOS/cmsis_os.c **** #if (defined (osFeature_SysTick)  &&  (osFeature_SysTick != 0))     // System Timer available
 221:Middlewares/Third_Party/FreeRTOS/Source/CMSIS_RTOS/cmsis_os.c **** /**
 222:Middlewares/Third_Party/FreeRTOS/Source/CMSIS_RTOS/cmsis_os.c **** * @brief  Get the value of the Kernel SysTick timer
 223:Middlewares/Third_Party/FreeRTOS/Source/CMSIS_RTOS/cmsis_os.c **** * @param  None
 224:Middlewares/Third_Party/FreeRTOS/Source/CMSIS_RTOS/cmsis_os.c **** * @retval None
 225:Middlewares/Third_Party/FreeRTOS/Source/CMSIS_RTOS/cmsis_os.c **** * @note   MUST REMAIN UNCHANGED: \b osKernelSysTick shall be consistent in every CMSIS-RTOS.
 226:Middlewares/Third_Party/FreeRTOS/Source/CMSIS_RTOS/cmsis_os.c **** */
 227:Middlewares/Third_Party/FreeRTOS/Source/CMSIS_RTOS/cmsis_os.c **** uint32_t osKernelSysTick(void)
 228:Middlewares/Third_Party/FreeRTOS/Source/CMSIS_RTOS/cmsis_os.c **** {
  96              		.loc 1 228 1 is_stmt 1 view -0
  97              		.cfi_startproc
  98              		@ args = 0, pretend = 0, frame = 0
  99              		@ frame_needed = 0, uses_anonymous_args = 0
 229:Middlewares/Third_Party/FreeRTOS/Source/CMSIS_RTOS/cmsis_os.c ****   if (inHandlerMode()) {
 100              		.loc 1 229 3 view .LVU13
 101              	.LBB92:
 102              	.LBI92:
 173:Middlewares/Third_Party/FreeRTOS/Source/CMSIS_RTOS/cmsis_os.c **** {
 103              		.loc 1 173 12 view .LVU14
 104              	.LBE92:
 175:Middlewares/Third_Party/FreeRTOS/Source/CMSIS_RTOS/cmsis_os.c **** }
 105              		.loc 1 175 3 view .LVU15
 106              	.LBB97:
 107              	.LBB93:
 108              	.LBI93:
 109              		.file 2 "Drivers/CMSIS/Include/cmsis_gcc.h"
   1:Drivers/CMSIS/Include/cmsis_gcc.h **** /**************************************************************************//**
   2:Drivers/CMSIS/Include/cmsis_gcc.h ****  * @file     cmsis_gcc.h
   3:Drivers/CMSIS/Include/cmsis_gcc.h ****  * @brief    CMSIS Cortex-M Core Function/Instruction Header File
   4:Drivers/CMSIS/Include/cmsis_gcc.h ****  * @version  V4.30
   5:Drivers/CMSIS/Include/cmsis_gcc.h ****  * @date     20. October 2015
ARM GAS  /tmp/ccSFdtfu.s 			page 7


   6:Drivers/CMSIS/Include/cmsis_gcc.h ****  ******************************************************************************/
   7:Drivers/CMSIS/Include/cmsis_gcc.h **** /* Copyright (c) 2009 - 2015 ARM LIMITED
   8:Drivers/CMSIS/Include/cmsis_gcc.h **** 
   9:Drivers/CMSIS/Include/cmsis_gcc.h ****    All rights reserved.
  10:Drivers/CMSIS/Include/cmsis_gcc.h ****    Redistribution and use in source and binary forms, with or without
  11:Drivers/CMSIS/Include/cmsis_gcc.h ****    modification, are permitted provided that the following conditions are met:
  12:Drivers/CMSIS/Include/cmsis_gcc.h ****    - Redistributions of source code must retain the above copyright
  13:Drivers/CMSIS/Include/cmsis_gcc.h ****      notice, this list of conditions and the following disclaimer.
  14:Drivers/CMSIS/Include/cmsis_gcc.h ****    - Redistributions in binary form must reproduce the above copyright
  15:Drivers/CMSIS/Include/cmsis_gcc.h ****      notice, this list of conditions and the following disclaimer in the
  16:Drivers/CMSIS/Include/cmsis_gcc.h ****      documentation and/or other materials provided with the distribution.
  17:Drivers/CMSIS/Include/cmsis_gcc.h ****    - Neither the name of ARM nor the names of its contributors may be used
  18:Drivers/CMSIS/Include/cmsis_gcc.h ****      to endorse or promote products derived from this software without
  19:Drivers/CMSIS/Include/cmsis_gcc.h ****      specific prior written permission.
  20:Drivers/CMSIS/Include/cmsis_gcc.h ****    *
  21:Drivers/CMSIS/Include/cmsis_gcc.h ****    THIS SOFTWARE IS PROVIDED BY THE COPYRIGHT HOLDERS AND CONTRIBUTORS "AS IS"
  22:Drivers/CMSIS/Include/cmsis_gcc.h ****    AND ANY EXPRESS OR IMPLIED WARRANTIES, INCLUDING, BUT NOT LIMITED TO, THE
  23:Drivers/CMSIS/Include/cmsis_gcc.h ****    IMPLIED WARRANTIES OF MERCHANTABILITY AND FITNESS FOR A PARTICULAR PURPOSE
  24:Drivers/CMSIS/Include/cmsis_gcc.h ****    ARE DISCLAIMED. IN NO EVENT SHALL COPYRIGHT HOLDERS AND CONTRIBUTORS BE
  25:Drivers/CMSIS/Include/cmsis_gcc.h ****    LIABLE FOR ANY DIRECT, INDIRECT, INCIDENTAL, SPECIAL, EXEMPLARY, OR
  26:Drivers/CMSIS/Include/cmsis_gcc.h ****    CONSEQUENTIAL DAMAGES (INCLUDING, BUT NOT LIMITED TO, PROCUREMENT OF
  27:Drivers/CMSIS/Include/cmsis_gcc.h ****    SUBSTITUTE GOODS OR SERVICES; LOSS OF USE, DATA, OR PROFITS; OR BUSINESS
  28:Drivers/CMSIS/Include/cmsis_gcc.h ****    INTERRUPTION) HOWEVER CAUSED AND ON ANY THEORY OF LIABILITY, WHETHER IN
  29:Drivers/CMSIS/Include/cmsis_gcc.h ****    CONTRACT, STRICT LIABILITY, OR TORT (INCLUDING NEGLIGENCE OR OTHERWISE)
  30:Drivers/CMSIS/Include/cmsis_gcc.h ****    ARISING IN ANY WAY OUT OF THE USE OF THIS SOFTWARE, EVEN IF ADVISED OF THE
  31:Drivers/CMSIS/Include/cmsis_gcc.h ****    POSSIBILITY OF SUCH DAMAGE.
  32:Drivers/CMSIS/Include/cmsis_gcc.h ****    ---------------------------------------------------------------------------*/
  33:Drivers/CMSIS/Include/cmsis_gcc.h **** 
  34:Drivers/CMSIS/Include/cmsis_gcc.h **** 
  35:Drivers/CMSIS/Include/cmsis_gcc.h **** #ifndef __CMSIS_GCC_H
  36:Drivers/CMSIS/Include/cmsis_gcc.h **** #define __CMSIS_GCC_H
  37:Drivers/CMSIS/Include/cmsis_gcc.h **** 
  38:Drivers/CMSIS/Include/cmsis_gcc.h **** /* ignore some GCC warnings */
  39:Drivers/CMSIS/Include/cmsis_gcc.h **** #if defined ( __GNUC__ )
  40:Drivers/CMSIS/Include/cmsis_gcc.h **** #pragma GCC diagnostic push
  41:Drivers/CMSIS/Include/cmsis_gcc.h **** #pragma GCC diagnostic ignored "-Wsign-conversion"
  42:Drivers/CMSIS/Include/cmsis_gcc.h **** #pragma GCC diagnostic ignored "-Wconversion"
  43:Drivers/CMSIS/Include/cmsis_gcc.h **** #pragma GCC diagnostic ignored "-Wunused-parameter"
  44:Drivers/CMSIS/Include/cmsis_gcc.h **** #endif
  45:Drivers/CMSIS/Include/cmsis_gcc.h **** 
  46:Drivers/CMSIS/Include/cmsis_gcc.h **** 
  47:Drivers/CMSIS/Include/cmsis_gcc.h **** /* ###########################  Core Function Access  ########################### */
  48:Drivers/CMSIS/Include/cmsis_gcc.h **** /** \ingroup  CMSIS_Core_FunctionInterface
  49:Drivers/CMSIS/Include/cmsis_gcc.h ****     \defgroup CMSIS_Core_RegAccFunctions CMSIS Core Register Access Functions
  50:Drivers/CMSIS/Include/cmsis_gcc.h ****   @{
  51:Drivers/CMSIS/Include/cmsis_gcc.h ****  */
  52:Drivers/CMSIS/Include/cmsis_gcc.h **** 
  53:Drivers/CMSIS/Include/cmsis_gcc.h **** /**
  54:Drivers/CMSIS/Include/cmsis_gcc.h ****   \brief   Enable IRQ Interrupts
  55:Drivers/CMSIS/Include/cmsis_gcc.h ****   \details Enables IRQ interrupts by clearing the I-bit in the CPSR.
  56:Drivers/CMSIS/Include/cmsis_gcc.h ****            Can only be executed in Privileged modes.
  57:Drivers/CMSIS/Include/cmsis_gcc.h ****  */
  58:Drivers/CMSIS/Include/cmsis_gcc.h **** __attribute__( ( always_inline ) ) __STATIC_INLINE void __enable_irq(void)
  59:Drivers/CMSIS/Include/cmsis_gcc.h **** {
  60:Drivers/CMSIS/Include/cmsis_gcc.h ****   __ASM volatile ("cpsie i" : : : "memory");
  61:Drivers/CMSIS/Include/cmsis_gcc.h **** }
  62:Drivers/CMSIS/Include/cmsis_gcc.h **** 
ARM GAS  /tmp/ccSFdtfu.s 			page 8


  63:Drivers/CMSIS/Include/cmsis_gcc.h **** 
  64:Drivers/CMSIS/Include/cmsis_gcc.h **** /**
  65:Drivers/CMSIS/Include/cmsis_gcc.h ****   \brief   Disable IRQ Interrupts
  66:Drivers/CMSIS/Include/cmsis_gcc.h ****   \details Disables IRQ interrupts by setting the I-bit in the CPSR.
  67:Drivers/CMSIS/Include/cmsis_gcc.h ****   Can only be executed in Privileged modes.
  68:Drivers/CMSIS/Include/cmsis_gcc.h ****  */
  69:Drivers/CMSIS/Include/cmsis_gcc.h **** __attribute__( ( always_inline ) ) __STATIC_INLINE void __disable_irq(void)
  70:Drivers/CMSIS/Include/cmsis_gcc.h **** {
  71:Drivers/CMSIS/Include/cmsis_gcc.h ****   __ASM volatile ("cpsid i" : : : "memory");
  72:Drivers/CMSIS/Include/cmsis_gcc.h **** }
  73:Drivers/CMSIS/Include/cmsis_gcc.h **** 
  74:Drivers/CMSIS/Include/cmsis_gcc.h **** 
  75:Drivers/CMSIS/Include/cmsis_gcc.h **** /**
  76:Drivers/CMSIS/Include/cmsis_gcc.h ****   \brief   Get Control Register
  77:Drivers/CMSIS/Include/cmsis_gcc.h ****   \details Returns the content of the Control Register.
  78:Drivers/CMSIS/Include/cmsis_gcc.h ****   \return               Control Register value
  79:Drivers/CMSIS/Include/cmsis_gcc.h ****  */
  80:Drivers/CMSIS/Include/cmsis_gcc.h **** __attribute__( ( always_inline ) ) __STATIC_INLINE uint32_t __get_CONTROL(void)
  81:Drivers/CMSIS/Include/cmsis_gcc.h **** {
  82:Drivers/CMSIS/Include/cmsis_gcc.h ****   uint32_t result;
  83:Drivers/CMSIS/Include/cmsis_gcc.h **** 
  84:Drivers/CMSIS/Include/cmsis_gcc.h ****   __ASM volatile ("MRS %0, control" : "=r" (result) );
  85:Drivers/CMSIS/Include/cmsis_gcc.h ****   return(result);
  86:Drivers/CMSIS/Include/cmsis_gcc.h **** }
  87:Drivers/CMSIS/Include/cmsis_gcc.h **** 
  88:Drivers/CMSIS/Include/cmsis_gcc.h **** 
  89:Drivers/CMSIS/Include/cmsis_gcc.h **** /**
  90:Drivers/CMSIS/Include/cmsis_gcc.h ****   \brief   Set Control Register
  91:Drivers/CMSIS/Include/cmsis_gcc.h ****   \details Writes the given value to the Control Register.
  92:Drivers/CMSIS/Include/cmsis_gcc.h ****   \param [in]    control  Control Register value to set
  93:Drivers/CMSIS/Include/cmsis_gcc.h ****  */
  94:Drivers/CMSIS/Include/cmsis_gcc.h **** __attribute__( ( always_inline ) ) __STATIC_INLINE void __set_CONTROL(uint32_t control)
  95:Drivers/CMSIS/Include/cmsis_gcc.h **** {
  96:Drivers/CMSIS/Include/cmsis_gcc.h ****   __ASM volatile ("MSR control, %0" : : "r" (control) : "memory");
  97:Drivers/CMSIS/Include/cmsis_gcc.h **** }
  98:Drivers/CMSIS/Include/cmsis_gcc.h **** 
  99:Drivers/CMSIS/Include/cmsis_gcc.h **** 
 100:Drivers/CMSIS/Include/cmsis_gcc.h **** /**
 101:Drivers/CMSIS/Include/cmsis_gcc.h ****   \brief   Get IPSR Register
 102:Drivers/CMSIS/Include/cmsis_gcc.h ****   \details Returns the content of the IPSR Register.
 103:Drivers/CMSIS/Include/cmsis_gcc.h ****   \return               IPSR Register value
 104:Drivers/CMSIS/Include/cmsis_gcc.h ****  */
 105:Drivers/CMSIS/Include/cmsis_gcc.h **** __attribute__( ( always_inline ) ) __STATIC_INLINE uint32_t __get_IPSR(void)
 110              		.loc 2 105 61 view .LVU16
 111              	.LBB94:
 106:Drivers/CMSIS/Include/cmsis_gcc.h **** {
 107:Drivers/CMSIS/Include/cmsis_gcc.h ****   uint32_t result;
 112              		.loc 2 107 3 view .LVU17
 108:Drivers/CMSIS/Include/cmsis_gcc.h **** 
 109:Drivers/CMSIS/Include/cmsis_gcc.h ****   __ASM volatile ("MRS %0, ipsr" : "=r" (result) );
 113              		.loc 2 109 3 view .LVU18
 114              	.LBE94:
 115              	.LBE93:
 116              	.LBE97:
 228:Middlewares/Third_Party/FreeRTOS/Source/CMSIS_RTOS/cmsis_os.c ****   if (inHandlerMode()) {
 117              		.loc 1 228 1 is_stmt 0 view .LVU19
 118 0000 10B5     		push	{r4, lr}
ARM GAS  /tmp/ccSFdtfu.s 			page 9


 119              	.LCFI2:
 120              		.cfi_def_cfa_offset 8
 121              		.cfi_offset 4, -8
 122              		.cfi_offset 14, -4
 123              	.LBB98:
 124              	.LBB96:
 125              	.LBB95:
 126              		.loc 2 109 3 view .LVU20
 127              		.syntax divided
 128              	@ 109 "Drivers/CMSIS/Include/cmsis_gcc.h" 1
 129 0002 EFF30583 		MRS r3, ipsr
 130              	@ 0 "" 2
 131              	.LVL2:
 110:Drivers/CMSIS/Include/cmsis_gcc.h ****   return(result);
 132              		.loc 2 110 3 is_stmt 1 view .LVU21
 133              		.loc 2 110 3 is_stmt 0 view .LVU22
 134              		.thumb
 135              		.syntax unified
 136              	.LBE95:
 137              	.LBE96:
 138              	.LBE98:
 139              		.loc 1 229 6 view .LVU23
 140 0006 002B     		cmp	r3, #0
 141 0008 02D0     		beq	.L5
 230:Middlewares/Third_Party/FreeRTOS/Source/CMSIS_RTOS/cmsis_os.c ****     return xTaskGetTickCountFromISR();
 142              		.loc 1 230 5 is_stmt 1 view .LVU24
 143              		.loc 1 230 12 is_stmt 0 view .LVU25
 144 000a FFF7FEFF 		bl	xTaskGetTickCountFromISR
 145              	.LVL3:
 146              	.L4:
 231:Middlewares/Third_Party/FreeRTOS/Source/CMSIS_RTOS/cmsis_os.c ****   }
 232:Middlewares/Third_Party/FreeRTOS/Source/CMSIS_RTOS/cmsis_os.c ****   else {
 233:Middlewares/Third_Party/FreeRTOS/Source/CMSIS_RTOS/cmsis_os.c ****     return xTaskGetTickCount();
 234:Middlewares/Third_Party/FreeRTOS/Source/CMSIS_RTOS/cmsis_os.c ****   }
 235:Middlewares/Third_Party/FreeRTOS/Source/CMSIS_RTOS/cmsis_os.c **** }
 147              		.loc 1 235 1 view .LVU26
 148              		@ sp needed
 149 000e 10BD     		pop	{r4, pc}
 150              	.L5:
 233:Middlewares/Third_Party/FreeRTOS/Source/CMSIS_RTOS/cmsis_os.c ****   }
 151              		.loc 1 233 5 is_stmt 1 view .LVU27
 233:Middlewares/Third_Party/FreeRTOS/Source/CMSIS_RTOS/cmsis_os.c ****   }
 152              		.loc 1 233 12 is_stmt 0 view .LVU28
 153 0010 FFF7FEFF 		bl	xTaskGetTickCount
 154              	.LVL4:
 155 0014 FBE7     		b	.L4
 156              		.cfi_endproc
 157              	.LFE42:
 159              		.section	.text.osThreadCreate,"ax",%progbits
 160              		.align	1
 161              		.p2align 2,,3
 162              		.global	osThreadCreate
 163              		.syntax unified
 164              		.code	16
 165              		.thumb_func
 166              		.fpu softvfp
 168              	osThreadCreate:
ARM GAS  /tmp/ccSFdtfu.s 			page 10


 169              	.LVL5:
 170              	.LFB43:
 236:Middlewares/Third_Party/FreeRTOS/Source/CMSIS_RTOS/cmsis_os.c **** #endif    // System Timer available
 237:Middlewares/Third_Party/FreeRTOS/Source/CMSIS_RTOS/cmsis_os.c **** /*********************** Thread Management *****************************/
 238:Middlewares/Third_Party/FreeRTOS/Source/CMSIS_RTOS/cmsis_os.c **** /**
 239:Middlewares/Third_Party/FreeRTOS/Source/CMSIS_RTOS/cmsis_os.c **** * @brief  Create a thread and add it to Active Threads and set it to state READY.
 240:Middlewares/Third_Party/FreeRTOS/Source/CMSIS_RTOS/cmsis_os.c **** * @param  thread_def    thread definition referenced with \ref osThread.
 241:Middlewares/Third_Party/FreeRTOS/Source/CMSIS_RTOS/cmsis_os.c **** * @param  argument      pointer that is passed to the thread function as start argument.
 242:Middlewares/Third_Party/FreeRTOS/Source/CMSIS_RTOS/cmsis_os.c **** * @retval thread ID for reference by other functions or NULL in case of error.
 243:Middlewares/Third_Party/FreeRTOS/Source/CMSIS_RTOS/cmsis_os.c **** * @note   MUST REMAIN UNCHANGED: \b osThreadCreate shall be consistent in every CMSIS-RTOS.
 244:Middlewares/Third_Party/FreeRTOS/Source/CMSIS_RTOS/cmsis_os.c **** */
 245:Middlewares/Third_Party/FreeRTOS/Source/CMSIS_RTOS/cmsis_os.c **** osThreadId osThreadCreate (const osThreadDef_t *thread_def, void *argument)
 246:Middlewares/Third_Party/FreeRTOS/Source/CMSIS_RTOS/cmsis_os.c **** {
 171              		.loc 1 246 1 is_stmt 1 view -0
 172              		.cfi_startproc
 173              		@ args = 0, pretend = 0, frame = 8
 174              		@ frame_needed = 0, uses_anonymous_args = 0
 247:Middlewares/Third_Party/FreeRTOS/Source/CMSIS_RTOS/cmsis_os.c ****   TaskHandle_t handle;
 175              		.loc 1 247 3 view .LVU30
 248:Middlewares/Third_Party/FreeRTOS/Source/CMSIS_RTOS/cmsis_os.c ****   
 249:Middlewares/Third_Party/FreeRTOS/Source/CMSIS_RTOS/cmsis_os.c **** #if( configSUPPORT_STATIC_ALLOCATION == 1 ) &&  ( configSUPPORT_DYNAMIC_ALLOCATION == 1 )
 250:Middlewares/Third_Party/FreeRTOS/Source/CMSIS_RTOS/cmsis_os.c ****   if((thread_def->buffer != NULL) && (thread_def->controlblock != NULL)) {
 251:Middlewares/Third_Party/FreeRTOS/Source/CMSIS_RTOS/cmsis_os.c ****     handle = xTaskCreateStatic((TaskFunction_t)thread_def->pthread,(const portCHAR *)thread_def->na
 252:Middlewares/Third_Party/FreeRTOS/Source/CMSIS_RTOS/cmsis_os.c ****               thread_def->stacksize, argument, makeFreeRtosPriority(thread_def->tpriority),
 253:Middlewares/Third_Party/FreeRTOS/Source/CMSIS_RTOS/cmsis_os.c ****               thread_def->buffer, thread_def->controlblock);
 254:Middlewares/Third_Party/FreeRTOS/Source/CMSIS_RTOS/cmsis_os.c ****   }
 255:Middlewares/Third_Party/FreeRTOS/Source/CMSIS_RTOS/cmsis_os.c ****   else {
 256:Middlewares/Third_Party/FreeRTOS/Source/CMSIS_RTOS/cmsis_os.c ****     if (xTaskCreate((TaskFunction_t)thread_def->pthread,(const portCHAR *)thread_def->name,
 257:Middlewares/Third_Party/FreeRTOS/Source/CMSIS_RTOS/cmsis_os.c ****               thread_def->stacksize, argument, makeFreeRtosPriority(thread_def->tpriority),
 258:Middlewares/Third_Party/FreeRTOS/Source/CMSIS_RTOS/cmsis_os.c ****               &handle) != pdPASS)  {
 259:Middlewares/Third_Party/FreeRTOS/Source/CMSIS_RTOS/cmsis_os.c ****       return NULL;
 260:Middlewares/Third_Party/FreeRTOS/Source/CMSIS_RTOS/cmsis_os.c ****     } 
 261:Middlewares/Third_Party/FreeRTOS/Source/CMSIS_RTOS/cmsis_os.c ****   }
 262:Middlewares/Third_Party/FreeRTOS/Source/CMSIS_RTOS/cmsis_os.c **** #elif( configSUPPORT_STATIC_ALLOCATION == 1 )
 263:Middlewares/Third_Party/FreeRTOS/Source/CMSIS_RTOS/cmsis_os.c **** 
 264:Middlewares/Third_Party/FreeRTOS/Source/CMSIS_RTOS/cmsis_os.c ****     handle = xTaskCreateStatic((TaskFunction_t)thread_def->pthread,(const portCHAR *)thread_def->na
 265:Middlewares/Third_Party/FreeRTOS/Source/CMSIS_RTOS/cmsis_os.c ****               thread_def->stacksize, argument, makeFreeRtosPriority(thread_def->tpriority),
 266:Middlewares/Third_Party/FreeRTOS/Source/CMSIS_RTOS/cmsis_os.c ****               thread_def->buffer, thread_def->controlblock);
 267:Middlewares/Third_Party/FreeRTOS/Source/CMSIS_RTOS/cmsis_os.c **** #else
 268:Middlewares/Third_Party/FreeRTOS/Source/CMSIS_RTOS/cmsis_os.c ****   if (xTaskCreate((TaskFunction_t)thread_def->pthread,(const portCHAR *)thread_def->name,
 176              		.loc 1 268 3 view .LVU31
 246:Middlewares/Third_Party/FreeRTOS/Source/CMSIS_RTOS/cmsis_os.c ****   TaskHandle_t handle;
 177              		.loc 1 246 1 is_stmt 0 view .LVU32
 178 0000 30B5     		push	{r4, r5, lr}
 179              	.LCFI3:
 180              		.cfi_def_cfa_offset 12
 181              		.cfi_offset 4, -12
 182              		.cfi_offset 5, -8
 183              		.cfi_offset 14, -4
 184 0002 0B00     		movs	r3, r1
 185              		.loc 1 268 45 view .LVU33
 186 0004 4568     		ldr	r5, [r0, #4]
 187              		.loc 1 268 83 view .LVU34
 188 0006 0168     		ldr	r1, [r0]
 189              	.LVL6:
 190              		.loc 1 268 7 view .LVU35
 191 0008 028A     		ldrh	r2, [r0, #16]
ARM GAS  /tmp/ccSFdtfu.s 			page 11


 192 000a 0824     		movs	r4, #8
 193 000c 045F     		ldrsh	r4, [r0, r4]
 194              	.LVL7:
 195              	.LBB99:
 196              	.LBI99:
 146:Middlewares/Third_Party/FreeRTOS/Source/CMSIS_RTOS/cmsis_os.c **** {
 197              		.loc 1 146 31 is_stmt 1 view .LVU36
 198              	.LBB100:
 148:Middlewares/Third_Party/FreeRTOS/Source/CMSIS_RTOS/cmsis_os.c ****   
 199              		.loc 1 148 3 view .LVU37
 150:Middlewares/Third_Party/FreeRTOS/Source/CMSIS_RTOS/cmsis_os.c ****     fpriority += (priority - osPriorityIdle);
 200              		.loc 1 150 3 view .LVU38
 201              	.LBE100:
 202              	.LBE99:
 246:Middlewares/Third_Party/FreeRTOS/Source/CMSIS_RTOS/cmsis_os.c ****   TaskHandle_t handle;
 203              		.loc 1 246 1 is_stmt 0 view .LVU39
 204 000e 85B0     		sub	sp, sp, #20
 205              	.LCFI4:
 206              		.cfi_def_cfa_offset 32
 207              	.LBB104:
 208              	.LBB101:
 150:Middlewares/Third_Party/FreeRTOS/Source/CMSIS_RTOS/cmsis_os.c ****     fpriority += (priority - osPriorityIdle);
 209              		.loc 1 150 6 view .LVU40
 210 0010 842C     		cmp	r4, #132
 211 0012 0BD0     		beq	.L10
 151:Middlewares/Third_Party/FreeRTOS/Source/CMSIS_RTOS/cmsis_os.c ****   }
 212              		.loc 1 151 5 is_stmt 1 view .LVU41
 213              	.LBE101:
 214              	.LBE104:
 215              		.loc 1 268 7 is_stmt 0 view .LVU42
 216 0014 03A8     		add	r0, sp, #12
 217              	.LBB105:
 218              	.LBB102:
 151:Middlewares/Third_Party/FreeRTOS/Source/CMSIS_RTOS/cmsis_os.c ****   }
 219              		.loc 1 151 15 view .LVU43
 220 0016 0334     		adds	r4, r4, #3
 221              	.LVL8:
 154:Middlewares/Third_Party/FreeRTOS/Source/CMSIS_RTOS/cmsis_os.c **** }
 222              		.loc 1 154 3 is_stmt 1 view .LVU44
 154:Middlewares/Third_Party/FreeRTOS/Source/CMSIS_RTOS/cmsis_os.c **** }
 223              		.loc 1 154 3 is_stmt 0 view .LVU45
 224              	.LBE102:
 225              	.LBE105:
 226              		.loc 1 268 7 view .LVU46
 227 0018 0190     		str	r0, [sp, #4]
 228 001a 0094     		str	r4, [sp]
 229 001c 2800     		movs	r0, r5
 230 001e FFF7FEFF 		bl	xTaskCreate
 231              	.LVL9:
 232              		.loc 1 268 6 view .LVU47
 233 0022 0128     		cmp	r0, #1
 234 0024 0BD1     		bne	.L11
 235              	.L12:
 269:Middlewares/Third_Party/FreeRTOS/Source/CMSIS_RTOS/cmsis_os.c ****                    thread_def->stacksize, argument, makeFreeRtosPriority(thread_def->tpriority),
 270:Middlewares/Third_Party/FreeRTOS/Source/CMSIS_RTOS/cmsis_os.c ****                    &handle) != pdPASS)  {
 271:Middlewares/Third_Party/FreeRTOS/Source/CMSIS_RTOS/cmsis_os.c ****     return NULL;
 272:Middlewares/Third_Party/FreeRTOS/Source/CMSIS_RTOS/cmsis_os.c ****   }     
ARM GAS  /tmp/ccSFdtfu.s 			page 12


 273:Middlewares/Third_Party/FreeRTOS/Source/CMSIS_RTOS/cmsis_os.c **** #endif
 274:Middlewares/Third_Party/FreeRTOS/Source/CMSIS_RTOS/cmsis_os.c ****   
 275:Middlewares/Third_Party/FreeRTOS/Source/CMSIS_RTOS/cmsis_os.c ****   return handle;
 236              		.loc 1 275 3 is_stmt 1 view .LVU48
 237              		.loc 1 275 10 is_stmt 0 view .LVU49
 238 0026 0398     		ldr	r0, [sp, #12]
 239              	.L7:
 276:Middlewares/Third_Party/FreeRTOS/Source/CMSIS_RTOS/cmsis_os.c **** }
 240              		.loc 1 276 1 view .LVU50
 241 0028 05B0     		add	sp, sp, #20
 242              		@ sp needed
 243 002a 30BD     		pop	{r4, r5, pc}
 244              	.LVL10:
 245              	.L10:
 246              	.LBB106:
 247              	.LBB103:
 148:Middlewares/Third_Party/FreeRTOS/Source/CMSIS_RTOS/cmsis_os.c ****   
 248              		.loc 1 148 26 view .LVU51
 249 002c 0024     		movs	r4, #0
 250              	.LVL11:
 154:Middlewares/Third_Party/FreeRTOS/Source/CMSIS_RTOS/cmsis_os.c **** }
 251              		.loc 1 154 3 is_stmt 1 view .LVU52
 154:Middlewares/Third_Party/FreeRTOS/Source/CMSIS_RTOS/cmsis_os.c **** }
 252              		.loc 1 154 3 is_stmt 0 view .LVU53
 253              	.LBE103:
 254              	.LBE106:
 268:Middlewares/Third_Party/FreeRTOS/Source/CMSIS_RTOS/cmsis_os.c ****                    thread_def->stacksize, argument, makeFreeRtosPriority(thread_def->tpriority),
 255              		.loc 1 268 7 view .LVU54
 256 002e 03A8     		add	r0, sp, #12
 257 0030 0190     		str	r0, [sp, #4]
 258 0032 0094     		str	r4, [sp]
 259 0034 2800     		movs	r0, r5
 260 0036 FFF7FEFF 		bl	xTaskCreate
 261              	.LVL12:
 268:Middlewares/Third_Party/FreeRTOS/Source/CMSIS_RTOS/cmsis_os.c ****                    thread_def->stacksize, argument, makeFreeRtosPriority(thread_def->tpriority),
 262              		.loc 1 268 6 view .LVU55
 263 003a 0128     		cmp	r0, #1
 264 003c F3D0     		beq	.L12
 265              	.L11:
 271:Middlewares/Third_Party/FreeRTOS/Source/CMSIS_RTOS/cmsis_os.c ****   }     
 266              		.loc 1 271 12 view .LVU56
 267 003e 0020     		movs	r0, #0
 268 0040 F2E7     		b	.L7
 269              		.cfi_endproc
 270              	.LFE43:
 272 0042 C046     		.section	.text.osThreadGetId,"ax",%progbits
 273              		.align	1
 274              		.p2align 2,,3
 275              		.global	osThreadGetId
 276              		.syntax unified
 277              		.code	16
 278              		.thumb_func
 279              		.fpu softvfp
 281              	osThreadGetId:
 282              	.LFB44:
 277:Middlewares/Third_Party/FreeRTOS/Source/CMSIS_RTOS/cmsis_os.c **** 
 278:Middlewares/Third_Party/FreeRTOS/Source/CMSIS_RTOS/cmsis_os.c **** /**
ARM GAS  /tmp/ccSFdtfu.s 			page 13


 279:Middlewares/Third_Party/FreeRTOS/Source/CMSIS_RTOS/cmsis_os.c **** * @brief  Return the thread ID of the current running thread.
 280:Middlewares/Third_Party/FreeRTOS/Source/CMSIS_RTOS/cmsis_os.c **** * @retval thread ID for reference by other functions or NULL in case of error.
 281:Middlewares/Third_Party/FreeRTOS/Source/CMSIS_RTOS/cmsis_os.c **** * @note   MUST REMAIN UNCHANGED: \b osThreadGetId shall be consistent in every CMSIS-RTOS.
 282:Middlewares/Third_Party/FreeRTOS/Source/CMSIS_RTOS/cmsis_os.c **** */
 283:Middlewares/Third_Party/FreeRTOS/Source/CMSIS_RTOS/cmsis_os.c **** osThreadId osThreadGetId (void)
 284:Middlewares/Third_Party/FreeRTOS/Source/CMSIS_RTOS/cmsis_os.c **** {
 283              		.loc 1 284 1 is_stmt 1 view -0
 284              		.cfi_startproc
 285              		@ args = 0, pretend = 0, frame = 0
 286              		@ frame_needed = 0, uses_anonymous_args = 0
 285:Middlewares/Third_Party/FreeRTOS/Source/CMSIS_RTOS/cmsis_os.c **** #if ( ( INCLUDE_xTaskGetCurrentTaskHandle == 1 ) || ( configUSE_MUTEXES == 1 ) )
 286:Middlewares/Third_Party/FreeRTOS/Source/CMSIS_RTOS/cmsis_os.c ****   return xTaskGetCurrentTaskHandle();
 287              		.loc 1 286 3 view .LVU58
 284:Middlewares/Third_Party/FreeRTOS/Source/CMSIS_RTOS/cmsis_os.c **** #if ( ( INCLUDE_xTaskGetCurrentTaskHandle == 1 ) || ( configUSE_MUTEXES == 1 ) )
 288              		.loc 1 284 1 is_stmt 0 view .LVU59
 289 0000 10B5     		push	{r4, lr}
 290              	.LCFI5:
 291              		.cfi_def_cfa_offset 8
 292              		.cfi_offset 4, -8
 293              		.cfi_offset 14, -4
 294              		.loc 1 286 10 view .LVU60
 295 0002 FFF7FEFF 		bl	xTaskGetCurrentTaskHandle
 296              	.LVL13:
 287:Middlewares/Third_Party/FreeRTOS/Source/CMSIS_RTOS/cmsis_os.c **** #else
 288:Middlewares/Third_Party/FreeRTOS/Source/CMSIS_RTOS/cmsis_os.c **** 	return NULL;
 289:Middlewares/Third_Party/FreeRTOS/Source/CMSIS_RTOS/cmsis_os.c **** #endif
 290:Middlewares/Third_Party/FreeRTOS/Source/CMSIS_RTOS/cmsis_os.c **** }
 297              		.loc 1 290 1 view .LVU61
 298              		@ sp needed
 299 0006 10BD     		pop	{r4, pc}
 300              		.cfi_endproc
 301              	.LFE44:
 303              		.section	.text.osThreadTerminate,"ax",%progbits
 304              		.align	1
 305              		.p2align 2,,3
 306              		.global	osThreadTerminate
 307              		.syntax unified
 308              		.code	16
 309              		.thumb_func
 310              		.fpu softvfp
 312              	osThreadTerminate:
 313              	.LVL14:
 314              	.LFB45:
 291:Middlewares/Third_Party/FreeRTOS/Source/CMSIS_RTOS/cmsis_os.c **** 
 292:Middlewares/Third_Party/FreeRTOS/Source/CMSIS_RTOS/cmsis_os.c **** /**
 293:Middlewares/Third_Party/FreeRTOS/Source/CMSIS_RTOS/cmsis_os.c **** * @brief  Terminate execution of a thread and remove it from Active Threads.
 294:Middlewares/Third_Party/FreeRTOS/Source/CMSIS_RTOS/cmsis_os.c **** * @param   thread_id   thread ID obtained by \ref osThreadCreate or \ref osThreadGetId.
 295:Middlewares/Third_Party/FreeRTOS/Source/CMSIS_RTOS/cmsis_os.c **** * @retval  status code that indicates the execution status of the function.
 296:Middlewares/Third_Party/FreeRTOS/Source/CMSIS_RTOS/cmsis_os.c **** * @note   MUST REMAIN UNCHANGED: \b osThreadTerminate shall be consistent in every CMSIS-RTOS.
 297:Middlewares/Third_Party/FreeRTOS/Source/CMSIS_RTOS/cmsis_os.c **** */
 298:Middlewares/Third_Party/FreeRTOS/Source/CMSIS_RTOS/cmsis_os.c **** osStatus osThreadTerminate (osThreadId thread_id)
 299:Middlewares/Third_Party/FreeRTOS/Source/CMSIS_RTOS/cmsis_os.c **** {
 315              		.loc 1 299 1 is_stmt 1 view -0
 316              		.cfi_startproc
 317              		@ args = 0, pretend = 0, frame = 0
 318              		@ frame_needed = 0, uses_anonymous_args = 0
 300:Middlewares/Third_Party/FreeRTOS/Source/CMSIS_RTOS/cmsis_os.c **** #if (INCLUDE_vTaskDelete == 1)
ARM GAS  /tmp/ccSFdtfu.s 			page 14


 301:Middlewares/Third_Party/FreeRTOS/Source/CMSIS_RTOS/cmsis_os.c ****   vTaskDelete(thread_id);
 319              		.loc 1 301 3 view .LVU63
 299:Middlewares/Third_Party/FreeRTOS/Source/CMSIS_RTOS/cmsis_os.c **** #if (INCLUDE_vTaskDelete == 1)
 320              		.loc 1 299 1 is_stmt 0 view .LVU64
 321 0000 10B5     		push	{r4, lr}
 322              	.LCFI6:
 323              		.cfi_def_cfa_offset 8
 324              		.cfi_offset 4, -8
 325              		.cfi_offset 14, -4
 326              		.loc 1 301 3 view .LVU65
 327 0002 FFF7FEFF 		bl	vTaskDelete
 328              	.LVL15:
 302:Middlewares/Third_Party/FreeRTOS/Source/CMSIS_RTOS/cmsis_os.c ****   return osOK;
 329              		.loc 1 302 3 is_stmt 1 view .LVU66
 303:Middlewares/Third_Party/FreeRTOS/Source/CMSIS_RTOS/cmsis_os.c **** #else
 304:Middlewares/Third_Party/FreeRTOS/Source/CMSIS_RTOS/cmsis_os.c ****   return osErrorOS;
 305:Middlewares/Third_Party/FreeRTOS/Source/CMSIS_RTOS/cmsis_os.c **** #endif
 306:Middlewares/Third_Party/FreeRTOS/Source/CMSIS_RTOS/cmsis_os.c **** }
 330              		.loc 1 306 1 is_stmt 0 view .LVU67
 331              		@ sp needed
 332 0006 0020     		movs	r0, #0
 333 0008 10BD     		pop	{r4, pc}
 334              		.cfi_endproc
 335              	.LFE45:
 337 000a C046     		.section	.text.osThreadYield,"ax",%progbits
 338              		.align	1
 339              		.p2align 2,,3
 340              		.global	osThreadYield
 341              		.syntax unified
 342              		.code	16
 343              		.thumb_func
 344              		.fpu softvfp
 346              	osThreadYield:
 347              	.LFB46:
 307:Middlewares/Third_Party/FreeRTOS/Source/CMSIS_RTOS/cmsis_os.c **** 
 308:Middlewares/Third_Party/FreeRTOS/Source/CMSIS_RTOS/cmsis_os.c **** /**
 309:Middlewares/Third_Party/FreeRTOS/Source/CMSIS_RTOS/cmsis_os.c **** * @brief  Pass control to next thread that is in state \b READY.
 310:Middlewares/Third_Party/FreeRTOS/Source/CMSIS_RTOS/cmsis_os.c **** * @retval status code that indicates the execution status of the function.
 311:Middlewares/Third_Party/FreeRTOS/Source/CMSIS_RTOS/cmsis_os.c **** * @note   MUST REMAIN UNCHANGED: \b osThreadYield shall be consistent in every CMSIS-RTOS.
 312:Middlewares/Third_Party/FreeRTOS/Source/CMSIS_RTOS/cmsis_os.c **** */
 313:Middlewares/Third_Party/FreeRTOS/Source/CMSIS_RTOS/cmsis_os.c **** osStatus osThreadYield (void)
 314:Middlewares/Third_Party/FreeRTOS/Source/CMSIS_RTOS/cmsis_os.c **** {
 348              		.loc 1 314 1 is_stmt 1 view -0
 349              		.cfi_startproc
 350              		@ args = 0, pretend = 0, frame = 0
 351              		@ frame_needed = 0, uses_anonymous_args = 0
 315:Middlewares/Third_Party/FreeRTOS/Source/CMSIS_RTOS/cmsis_os.c ****   taskYIELD();
 352              		.loc 1 315 3 view .LVU69
 314:Middlewares/Third_Party/FreeRTOS/Source/CMSIS_RTOS/cmsis_os.c ****   taskYIELD();
 353              		.loc 1 314 1 is_stmt 0 view .LVU70
 354 0000 10B5     		push	{r4, lr}
 355              	.LCFI7:
 356              		.cfi_def_cfa_offset 8
 357              		.cfi_offset 4, -8
 358              		.cfi_offset 14, -4
 359              		.loc 1 315 3 view .LVU71
 360 0002 FFF7FEFF 		bl	vPortYield
ARM GAS  /tmp/ccSFdtfu.s 			page 15


 361              	.LVL16:
 316:Middlewares/Third_Party/FreeRTOS/Source/CMSIS_RTOS/cmsis_os.c ****   
 317:Middlewares/Third_Party/FreeRTOS/Source/CMSIS_RTOS/cmsis_os.c ****   return osOK;
 362              		.loc 1 317 3 is_stmt 1 view .LVU72
 318:Middlewares/Third_Party/FreeRTOS/Source/CMSIS_RTOS/cmsis_os.c **** }
 363              		.loc 1 318 1 is_stmt 0 view .LVU73
 364              		@ sp needed
 365 0006 0020     		movs	r0, #0
 366 0008 10BD     		pop	{r4, pc}
 367              		.cfi_endproc
 368              	.LFE46:
 370 000a C046     		.section	.text.osThreadSetPriority,"ax",%progbits
 371              		.align	1
 372              		.p2align 2,,3
 373              		.global	osThreadSetPriority
 374              		.syntax unified
 375              		.code	16
 376              		.thumb_func
 377              		.fpu softvfp
 379              	osThreadSetPriority:
 380              	.LVL17:
 381              	.LFB47:
 319:Middlewares/Third_Party/FreeRTOS/Source/CMSIS_RTOS/cmsis_os.c **** 
 320:Middlewares/Third_Party/FreeRTOS/Source/CMSIS_RTOS/cmsis_os.c **** /**
 321:Middlewares/Third_Party/FreeRTOS/Source/CMSIS_RTOS/cmsis_os.c **** * @brief   Change priority of an active thread.
 322:Middlewares/Third_Party/FreeRTOS/Source/CMSIS_RTOS/cmsis_os.c **** * @param   thread_id     thread ID obtained by \ref osThreadCreate or \ref osThreadGetId.
 323:Middlewares/Third_Party/FreeRTOS/Source/CMSIS_RTOS/cmsis_os.c **** * @param   priority      new priority value for the thread function.
 324:Middlewares/Third_Party/FreeRTOS/Source/CMSIS_RTOS/cmsis_os.c **** * @retval  status code that indicates the execution status of the function.
 325:Middlewares/Third_Party/FreeRTOS/Source/CMSIS_RTOS/cmsis_os.c **** * @note   MUST REMAIN UNCHANGED: \b osThreadSetPriority shall be consistent in every CMSIS-RTOS.
 326:Middlewares/Third_Party/FreeRTOS/Source/CMSIS_RTOS/cmsis_os.c **** */
 327:Middlewares/Third_Party/FreeRTOS/Source/CMSIS_RTOS/cmsis_os.c **** osStatus osThreadSetPriority (osThreadId thread_id, osPriority priority)
 328:Middlewares/Third_Party/FreeRTOS/Source/CMSIS_RTOS/cmsis_os.c **** {
 382              		.loc 1 328 1 is_stmt 1 view -0
 383              		.cfi_startproc
 384              		@ args = 0, pretend = 0, frame = 0
 385              		@ frame_needed = 0, uses_anonymous_args = 0
 329:Middlewares/Third_Party/FreeRTOS/Source/CMSIS_RTOS/cmsis_os.c **** #if (INCLUDE_vTaskPrioritySet == 1)
 330:Middlewares/Third_Party/FreeRTOS/Source/CMSIS_RTOS/cmsis_os.c ****   vTaskPrioritySet(thread_id, makeFreeRtosPriority(priority));
 386              		.loc 1 330 3 view .LVU75
 387              	.LBB107:
 388              	.LBI107:
 146:Middlewares/Third_Party/FreeRTOS/Source/CMSIS_RTOS/cmsis_os.c **** {
 389              		.loc 1 146 31 view .LVU76
 390              	.LBB108:
 148:Middlewares/Third_Party/FreeRTOS/Source/CMSIS_RTOS/cmsis_os.c ****   
 391              		.loc 1 148 3 view .LVU77
 150:Middlewares/Third_Party/FreeRTOS/Source/CMSIS_RTOS/cmsis_os.c ****     fpriority += (priority - osPriorityIdle);
 392              		.loc 1 150 3 view .LVU78
 393              	.LBE108:
 394              	.LBE107:
 328:Middlewares/Third_Party/FreeRTOS/Source/CMSIS_RTOS/cmsis_os.c **** #if (INCLUDE_vTaskPrioritySet == 1)
 395              		.loc 1 328 1 is_stmt 0 view .LVU79
 396 0000 10B5     		push	{r4, lr}
 397              	.LCFI8:
 398              		.cfi_def_cfa_offset 8
 399              		.cfi_offset 4, -8
 400              		.cfi_offset 14, -4
ARM GAS  /tmp/ccSFdtfu.s 			page 16


 401              	.LBB111:
 402              	.LBB109:
 150:Middlewares/Third_Party/FreeRTOS/Source/CMSIS_RTOS/cmsis_os.c ****     fpriority += (priority - osPriorityIdle);
 403              		.loc 1 150 6 view .LVU80
 404 0002 8429     		cmp	r1, #132
 405 0004 04D0     		beq	.L18
 151:Middlewares/Third_Party/FreeRTOS/Source/CMSIS_RTOS/cmsis_os.c ****   }
 406              		.loc 1 151 5 is_stmt 1 view .LVU81
 151:Middlewares/Third_Party/FreeRTOS/Source/CMSIS_RTOS/cmsis_os.c ****   }
 407              		.loc 1 151 15 is_stmt 0 view .LVU82
 408 0006 0331     		adds	r1, r1, #3
 409              	.LVL18:
 410              	.L17:
 154:Middlewares/Third_Party/FreeRTOS/Source/CMSIS_RTOS/cmsis_os.c **** }
 411              		.loc 1 154 3 is_stmt 1 view .LVU83
 154:Middlewares/Third_Party/FreeRTOS/Source/CMSIS_RTOS/cmsis_os.c **** }
 412              		.loc 1 154 3 is_stmt 0 view .LVU84
 413              	.LBE109:
 414              	.LBE111:
 415              		.loc 1 330 3 view .LVU85
 416 0008 FFF7FEFF 		bl	vTaskPrioritySet
 417              	.LVL19:
 331:Middlewares/Third_Party/FreeRTOS/Source/CMSIS_RTOS/cmsis_os.c ****   return osOK;
 418              		.loc 1 331 3 is_stmt 1 view .LVU86
 332:Middlewares/Third_Party/FreeRTOS/Source/CMSIS_RTOS/cmsis_os.c **** #else
 333:Middlewares/Third_Party/FreeRTOS/Source/CMSIS_RTOS/cmsis_os.c ****   return osErrorOS;
 334:Middlewares/Third_Party/FreeRTOS/Source/CMSIS_RTOS/cmsis_os.c **** #endif
 335:Middlewares/Third_Party/FreeRTOS/Source/CMSIS_RTOS/cmsis_os.c **** }
 419              		.loc 1 335 1 is_stmt 0 view .LVU87
 420              		@ sp needed
 421 000c 0020     		movs	r0, #0
 422 000e 10BD     		pop	{r4, pc}
 423              	.LVL20:
 424              	.L18:
 425              	.LBB112:
 426              	.LBB110:
 148:Middlewares/Third_Party/FreeRTOS/Source/CMSIS_RTOS/cmsis_os.c ****   
 427              		.loc 1 148 26 view .LVU88
 428 0010 0021     		movs	r1, #0
 429              	.LVL21:
 148:Middlewares/Third_Party/FreeRTOS/Source/CMSIS_RTOS/cmsis_os.c ****   
 430              		.loc 1 148 26 view .LVU89
 431 0012 F9E7     		b	.L17
 432              	.LBE110:
 433              	.LBE112:
 434              		.cfi_endproc
 435              	.LFE47:
 437              		.section	.text.osThreadGetPriority,"ax",%progbits
 438              		.align	1
 439              		.p2align 2,,3
 440              		.global	osThreadGetPriority
 441              		.syntax unified
 442              		.code	16
 443              		.thumb_func
 444              		.fpu softvfp
 446              	osThreadGetPriority:
 447              	.LVL22:
ARM GAS  /tmp/ccSFdtfu.s 			page 17


 448              	.LFB48:
 336:Middlewares/Third_Party/FreeRTOS/Source/CMSIS_RTOS/cmsis_os.c **** 
 337:Middlewares/Third_Party/FreeRTOS/Source/CMSIS_RTOS/cmsis_os.c **** /**
 338:Middlewares/Third_Party/FreeRTOS/Source/CMSIS_RTOS/cmsis_os.c **** * @brief   Get current priority of an active thread.
 339:Middlewares/Third_Party/FreeRTOS/Source/CMSIS_RTOS/cmsis_os.c **** * @param   thread_id     thread ID obtained by \ref osThreadCreate or \ref osThreadGetId.
 340:Middlewares/Third_Party/FreeRTOS/Source/CMSIS_RTOS/cmsis_os.c **** * @retval  current priority value of the thread function.
 341:Middlewares/Third_Party/FreeRTOS/Source/CMSIS_RTOS/cmsis_os.c **** * @note   MUST REMAIN UNCHANGED: \b osThreadGetPriority shall be consistent in every CMSIS-RTOS.
 342:Middlewares/Third_Party/FreeRTOS/Source/CMSIS_RTOS/cmsis_os.c **** */
 343:Middlewares/Third_Party/FreeRTOS/Source/CMSIS_RTOS/cmsis_os.c **** osPriority osThreadGetPriority (osThreadId thread_id)
 344:Middlewares/Third_Party/FreeRTOS/Source/CMSIS_RTOS/cmsis_os.c **** {
 449              		.loc 1 344 1 is_stmt 1 view -0
 450              		.cfi_startproc
 451              		@ args = 0, pretend = 0, frame = 0
 452              		@ frame_needed = 0, uses_anonymous_args = 0
 345:Middlewares/Third_Party/FreeRTOS/Source/CMSIS_RTOS/cmsis_os.c **** #if (INCLUDE_uxTaskPriorityGet == 1)
 346:Middlewares/Third_Party/FreeRTOS/Source/CMSIS_RTOS/cmsis_os.c ****   if (inHandlerMode())
 453              		.loc 1 346 3 view .LVU91
 454              	.LBB113:
 455              	.LBI113:
 173:Middlewares/Third_Party/FreeRTOS/Source/CMSIS_RTOS/cmsis_os.c **** {
 456              		.loc 1 173 12 view .LVU92
 457              	.LBE113:
 175:Middlewares/Third_Party/FreeRTOS/Source/CMSIS_RTOS/cmsis_os.c **** }
 458              		.loc 1 175 3 view .LVU93
 459              	.LBB118:
 460              	.LBB114:
 461              	.LBI114:
 105:Drivers/CMSIS/Include/cmsis_gcc.h **** {
 462              		.loc 2 105 61 view .LVU94
 463              	.LBB115:
 107:Drivers/CMSIS/Include/cmsis_gcc.h **** 
 464              		.loc 2 107 3 view .LVU95
 109:Drivers/CMSIS/Include/cmsis_gcc.h ****   return(result);
 465              		.loc 2 109 3 view .LVU96
 466              	.LBE115:
 467              	.LBE114:
 468              	.LBE118:
 344:Middlewares/Third_Party/FreeRTOS/Source/CMSIS_RTOS/cmsis_os.c **** #if (INCLUDE_uxTaskPriorityGet == 1)
 469              		.loc 1 344 1 is_stmt 0 view .LVU97
 470 0000 10B5     		push	{r4, lr}
 471              	.LCFI9:
 472              		.cfi_def_cfa_offset 8
 473              		.cfi_offset 4, -8
 474              		.cfi_offset 14, -4
 475              	.LBB119:
 476              	.LBB117:
 477              	.LBB116:
 109:Drivers/CMSIS/Include/cmsis_gcc.h ****   return(result);
 478              		.loc 2 109 3 view .LVU98
 479              		.syntax divided
 480              	@ 109 "Drivers/CMSIS/Include/cmsis_gcc.h" 1
 481 0002 EFF30583 		MRS r3, ipsr
 482              	@ 0 "" 2
 483              	.LVL23:
 484              		.loc 2 110 3 is_stmt 1 view .LVU99
 485              		.loc 2 110 3 is_stmt 0 view .LVU100
 486              		.thumb
ARM GAS  /tmp/ccSFdtfu.s 			page 18


 487              		.syntax unified
 488              	.LBE116:
 489              	.LBE117:
 490              	.LBE119:
 491              		.loc 1 346 6 view .LVU101
 492 0006 002B     		cmp	r3, #0
 493 0008 06D0     		beq	.L20
 347:Middlewares/Third_Party/FreeRTOS/Source/CMSIS_RTOS/cmsis_os.c ****   {
 348:Middlewares/Third_Party/FreeRTOS/Source/CMSIS_RTOS/cmsis_os.c ****     return makeCmsisPriority(uxTaskPriorityGetFromISR(thread_id));  
 494              		.loc 1 348 5 is_stmt 1 view .LVU102
 495              		.loc 1 348 12 is_stmt 0 view .LVU103
 496 000a FFF7FEFF 		bl	uxTaskPriorityGetFromISR
 497              	.LVL24:
 498              	.LBB120:
 499              	.LBI120:
 159:Middlewares/Third_Party/FreeRTOS/Source/CMSIS_RTOS/cmsis_os.c **** {
 500              		.loc 1 159 19 is_stmt 1 view .LVU104
 501              	.LBB121:
 161:Middlewares/Third_Party/FreeRTOS/Source/CMSIS_RTOS/cmsis_os.c ****   
 502              		.loc 1 161 3 view .LVU105
 163:Middlewares/Third_Party/FreeRTOS/Source/CMSIS_RTOS/cmsis_os.c ****     priority = (osPriority)((int)osPriorityIdle + (int)(fpriority - tskIDLE_PRIORITY));
 503              		.loc 1 163 3 view .LVU106
 163:Middlewares/Third_Party/FreeRTOS/Source/CMSIS_RTOS/cmsis_os.c ****     priority = (osPriority)((int)osPriorityIdle + (int)(fpriority - tskIDLE_PRIORITY));
 504              		.loc 1 163 6 is_stmt 0 view .LVU107
 505 000e 0628     		cmp	r0, #6
 506 0010 06D8     		bhi	.L23
 507              	.LVL25:
 508              	.L24:
 163:Middlewares/Third_Party/FreeRTOS/Source/CMSIS_RTOS/cmsis_os.c ****     priority = (osPriority)((int)osPriorityIdle + (int)(fpriority - tskIDLE_PRIORITY));
 509              		.loc 1 163 6 view .LVU108
 510              	.LBE121:
 511              	.LBE120:
 512              	.LBB123:
 513              	.LBB124:
 164:Middlewares/Third_Party/FreeRTOS/Source/CMSIS_RTOS/cmsis_os.c ****   }
 514              		.loc 1 164 5 is_stmt 1 view .LVU109
 164:Middlewares/Third_Party/FreeRTOS/Source/CMSIS_RTOS/cmsis_os.c ****   }
 515              		.loc 1 164 49 is_stmt 0 view .LVU110
 516 0012 0338     		subs	r0, r0, #3
 164:Middlewares/Third_Party/FreeRTOS/Source/CMSIS_RTOS/cmsis_os.c ****   }
 517              		.loc 1 164 14 view .LVU111
 518 0014 00B2     		sxth	r0, r0
 519              	.LVL26:
 520              	.L22:
 164:Middlewares/Third_Party/FreeRTOS/Source/CMSIS_RTOS/cmsis_os.c ****   }
 521              		.loc 1 164 14 view .LVU112
 522              	.LBE124:
 523              	.LBE123:
 349:Middlewares/Third_Party/FreeRTOS/Source/CMSIS_RTOS/cmsis_os.c ****   }
 350:Middlewares/Third_Party/FreeRTOS/Source/CMSIS_RTOS/cmsis_os.c ****   else
 351:Middlewares/Third_Party/FreeRTOS/Source/CMSIS_RTOS/cmsis_os.c ****   {  
 352:Middlewares/Third_Party/FreeRTOS/Source/CMSIS_RTOS/cmsis_os.c ****     return makeCmsisPriority(uxTaskPriorityGet(thread_id));
 353:Middlewares/Third_Party/FreeRTOS/Source/CMSIS_RTOS/cmsis_os.c ****   }
 354:Middlewares/Third_Party/FreeRTOS/Source/CMSIS_RTOS/cmsis_os.c **** #else
 355:Middlewares/Third_Party/FreeRTOS/Source/CMSIS_RTOS/cmsis_os.c ****   return osPriorityError;
 356:Middlewares/Third_Party/FreeRTOS/Source/CMSIS_RTOS/cmsis_os.c **** #endif
 357:Middlewares/Third_Party/FreeRTOS/Source/CMSIS_RTOS/cmsis_os.c **** }
ARM GAS  /tmp/ccSFdtfu.s 			page 19


 524              		.loc 1 357 1 view .LVU113
 525              		@ sp needed
 526 0016 10BD     		pop	{r4, pc}
 527              	.LVL27:
 528              	.L20:
 352:Middlewares/Third_Party/FreeRTOS/Source/CMSIS_RTOS/cmsis_os.c ****   }
 529              		.loc 1 352 5 is_stmt 1 view .LVU114
 352:Middlewares/Third_Party/FreeRTOS/Source/CMSIS_RTOS/cmsis_os.c ****   }
 530              		.loc 1 352 12 is_stmt 0 view .LVU115
 531 0018 FFF7FEFF 		bl	uxTaskPriorityGet
 532              	.LVL28:
 533              	.LBB126:
 534              	.LBI123:
 159:Middlewares/Third_Party/FreeRTOS/Source/CMSIS_RTOS/cmsis_os.c **** {
 535              		.loc 1 159 19 is_stmt 1 view .LVU116
 536              	.LBB125:
 161:Middlewares/Third_Party/FreeRTOS/Source/CMSIS_RTOS/cmsis_os.c ****   
 537              		.loc 1 161 3 view .LVU117
 163:Middlewares/Third_Party/FreeRTOS/Source/CMSIS_RTOS/cmsis_os.c ****     priority = (osPriority)((int)osPriorityIdle + (int)(fpriority - tskIDLE_PRIORITY));
 538              		.loc 1 163 3 view .LVU118
 163:Middlewares/Third_Party/FreeRTOS/Source/CMSIS_RTOS/cmsis_os.c ****     priority = (osPriority)((int)osPriorityIdle + (int)(fpriority - tskIDLE_PRIORITY));
 539              		.loc 1 163 6 is_stmt 0 view .LVU119
 540 001c 0628     		cmp	r0, #6
 541 001e F8D9     		bls	.L24
 542              	.LVL29:
 543              	.L23:
 163:Middlewares/Third_Party/FreeRTOS/Source/CMSIS_RTOS/cmsis_os.c ****     priority = (osPriority)((int)osPriorityIdle + (int)(fpriority - tskIDLE_PRIORITY));
 544              		.loc 1 163 6 view .LVU120
 545              	.LBE125:
 546              	.LBE126:
 547              	.LBB127:
 548              	.LBB122:
 161:Middlewares/Third_Party/FreeRTOS/Source/CMSIS_RTOS/cmsis_os.c ****   
 549              		.loc 1 161 14 view .LVU121
 550 0020 8420     		movs	r0, #132
 551 0022 F8E7     		b	.L22
 552              	.LBE122:
 553              	.LBE127:
 554              		.cfi_endproc
 555              	.LFE48:
 557              		.section	.text.osDelay,"ax",%progbits
 558              		.align	1
 559              		.p2align 2,,3
 560              		.global	osDelay
 561              		.syntax unified
 562              		.code	16
 563              		.thumb_func
 564              		.fpu softvfp
 566              	osDelay:
 567              	.LVL30:
 568              	.LFB49:
 358:Middlewares/Third_Party/FreeRTOS/Source/CMSIS_RTOS/cmsis_os.c **** 
 359:Middlewares/Third_Party/FreeRTOS/Source/CMSIS_RTOS/cmsis_os.c **** /*********************** Generic Wait Functions *******************************/
 360:Middlewares/Third_Party/FreeRTOS/Source/CMSIS_RTOS/cmsis_os.c **** /**
 361:Middlewares/Third_Party/FreeRTOS/Source/CMSIS_RTOS/cmsis_os.c **** * @brief   Wait for Timeout (Time Delay)
 362:Middlewares/Third_Party/FreeRTOS/Source/CMSIS_RTOS/cmsis_os.c **** * @param   millisec      time delay value
 363:Middlewares/Third_Party/FreeRTOS/Source/CMSIS_RTOS/cmsis_os.c **** * @retval  status code that indicates the execution status of the function.
ARM GAS  /tmp/ccSFdtfu.s 			page 20


 364:Middlewares/Third_Party/FreeRTOS/Source/CMSIS_RTOS/cmsis_os.c **** */
 365:Middlewares/Third_Party/FreeRTOS/Source/CMSIS_RTOS/cmsis_os.c **** osStatus osDelay (uint32_t millisec)
 366:Middlewares/Third_Party/FreeRTOS/Source/CMSIS_RTOS/cmsis_os.c **** {
 569              		.loc 1 366 1 is_stmt 1 view -0
 570              		.cfi_startproc
 571              		@ args = 0, pretend = 0, frame = 0
 572              		@ frame_needed = 0, uses_anonymous_args = 0
 367:Middlewares/Third_Party/FreeRTOS/Source/CMSIS_RTOS/cmsis_os.c **** #if INCLUDE_vTaskDelay
 368:Middlewares/Third_Party/FreeRTOS/Source/CMSIS_RTOS/cmsis_os.c ****   TickType_t ticks = millisec / portTICK_PERIOD_MS;
 573              		.loc 1 368 3 view .LVU123
 369:Middlewares/Third_Party/FreeRTOS/Source/CMSIS_RTOS/cmsis_os.c ****   
 370:Middlewares/Third_Party/FreeRTOS/Source/CMSIS_RTOS/cmsis_os.c ****   vTaskDelay(ticks ? ticks : 1);          /* Minimum delay = 1 tick */
 574              		.loc 1 370 3 view .LVU124
 366:Middlewares/Third_Party/FreeRTOS/Source/CMSIS_RTOS/cmsis_os.c **** #if INCLUDE_vTaskDelay
 575              		.loc 1 366 1 is_stmt 0 view .LVU125
 576 0000 10B5     		push	{r4, lr}
 577              	.LCFI10:
 578              		.cfi_def_cfa_offset 8
 579              		.cfi_offset 4, -8
 580              		.cfi_offset 14, -4
 581              		.loc 1 370 3 view .LVU126
 582 0002 0028     		cmp	r0, #0
 583 0004 00D1     		bne	.L26
 584 0006 0130     		adds	r0, r0, #1
 585              	.LVL31:
 586              	.L26:
 587              		.loc 1 370 3 discriminator 4 view .LVU127
 588 0008 FFF7FEFF 		bl	vTaskDelay
 589              	.LVL32:
 371:Middlewares/Third_Party/FreeRTOS/Source/CMSIS_RTOS/cmsis_os.c ****   
 372:Middlewares/Third_Party/FreeRTOS/Source/CMSIS_RTOS/cmsis_os.c ****   return osOK;
 590              		.loc 1 372 3 is_stmt 1 discriminator 4 view .LVU128
 373:Middlewares/Third_Party/FreeRTOS/Source/CMSIS_RTOS/cmsis_os.c **** #else
 374:Middlewares/Third_Party/FreeRTOS/Source/CMSIS_RTOS/cmsis_os.c ****   (void) millisec;
 375:Middlewares/Third_Party/FreeRTOS/Source/CMSIS_RTOS/cmsis_os.c ****   
 376:Middlewares/Third_Party/FreeRTOS/Source/CMSIS_RTOS/cmsis_os.c ****   return osErrorResource;
 377:Middlewares/Third_Party/FreeRTOS/Source/CMSIS_RTOS/cmsis_os.c **** #endif
 378:Middlewares/Third_Party/FreeRTOS/Source/CMSIS_RTOS/cmsis_os.c **** }
 591              		.loc 1 378 1 is_stmt 0 discriminator 4 view .LVU129
 592              		@ sp needed
 593 000c 0020     		movs	r0, #0
 594 000e 10BD     		pop	{r4, pc}
 595              		.cfi_endproc
 596              	.LFE49:
 598              		.section	.text.osTimerCreate,"ax",%progbits
 599              		.align	1
 600              		.p2align 2,,3
 601              		.global	osTimerCreate
 602              		.syntax unified
 603              		.code	16
 604              		.thumb_func
 605              		.fpu softvfp
 607              	osTimerCreate:
 608              	.LVL33:
 609              	.LFB50:
 379:Middlewares/Third_Party/FreeRTOS/Source/CMSIS_RTOS/cmsis_os.c **** 
 380:Middlewares/Third_Party/FreeRTOS/Source/CMSIS_RTOS/cmsis_os.c **** #if (defined (osFeature_Wait)  &&  (osFeature_Wait != 0)) /* Generic Wait available */
ARM GAS  /tmp/ccSFdtfu.s 			page 21


 381:Middlewares/Third_Party/FreeRTOS/Source/CMSIS_RTOS/cmsis_os.c **** /**
 382:Middlewares/Third_Party/FreeRTOS/Source/CMSIS_RTOS/cmsis_os.c **** * @brief  Wait for Signal, Message, Mail, or Timeout
 383:Middlewares/Third_Party/FreeRTOS/Source/CMSIS_RTOS/cmsis_os.c **** * @param   millisec  timeout value or 0 in case of no time-out
 384:Middlewares/Third_Party/FreeRTOS/Source/CMSIS_RTOS/cmsis_os.c **** * @retval  event that contains signal, message, or mail information or error code.
 385:Middlewares/Third_Party/FreeRTOS/Source/CMSIS_RTOS/cmsis_os.c **** * @note   MUST REMAIN UNCHANGED: \b osWait shall be consistent in every CMSIS-RTOS.
 386:Middlewares/Third_Party/FreeRTOS/Source/CMSIS_RTOS/cmsis_os.c **** */
 387:Middlewares/Third_Party/FreeRTOS/Source/CMSIS_RTOS/cmsis_os.c **** osEvent osWait (uint32_t millisec);
 388:Middlewares/Third_Party/FreeRTOS/Source/CMSIS_RTOS/cmsis_os.c **** 
 389:Middlewares/Third_Party/FreeRTOS/Source/CMSIS_RTOS/cmsis_os.c **** #endif  /* Generic Wait available */
 390:Middlewares/Third_Party/FreeRTOS/Source/CMSIS_RTOS/cmsis_os.c **** 
 391:Middlewares/Third_Party/FreeRTOS/Source/CMSIS_RTOS/cmsis_os.c **** /***********************  Timer Management Functions ***************************/
 392:Middlewares/Third_Party/FreeRTOS/Source/CMSIS_RTOS/cmsis_os.c **** /**
 393:Middlewares/Third_Party/FreeRTOS/Source/CMSIS_RTOS/cmsis_os.c **** * @brief  Create a timer.
 394:Middlewares/Third_Party/FreeRTOS/Source/CMSIS_RTOS/cmsis_os.c **** * @param  timer_def     timer object referenced with \ref osTimer.
 395:Middlewares/Third_Party/FreeRTOS/Source/CMSIS_RTOS/cmsis_os.c **** * @param  type          osTimerOnce for one-shot or osTimerPeriodic for periodic behavior.
 396:Middlewares/Third_Party/FreeRTOS/Source/CMSIS_RTOS/cmsis_os.c **** * @param  argument      argument to the timer call back function.
 397:Middlewares/Third_Party/FreeRTOS/Source/CMSIS_RTOS/cmsis_os.c **** * @retval  timer ID for reference by other functions or NULL in case of error.
 398:Middlewares/Third_Party/FreeRTOS/Source/CMSIS_RTOS/cmsis_os.c **** * @note   MUST REMAIN UNCHANGED: \b osTimerCreate shall be consistent in every CMSIS-RTOS.
 399:Middlewares/Third_Party/FreeRTOS/Source/CMSIS_RTOS/cmsis_os.c **** */
 400:Middlewares/Third_Party/FreeRTOS/Source/CMSIS_RTOS/cmsis_os.c **** osTimerId osTimerCreate (const osTimerDef_t *timer_def, os_timer_type type, void *argument)
 401:Middlewares/Third_Party/FreeRTOS/Source/CMSIS_RTOS/cmsis_os.c **** {
 610              		.loc 1 401 1 is_stmt 1 view -0
 611              		.cfi_startproc
 612              		@ args = 0, pretend = 0, frame = 0
 613              		@ frame_needed = 0, uses_anonymous_args = 0
 614              		@ link register save eliminated.
 402:Middlewares/Third_Party/FreeRTOS/Source/CMSIS_RTOS/cmsis_os.c **** #if (configUSE_TIMERS == 1)
 403:Middlewares/Third_Party/FreeRTOS/Source/CMSIS_RTOS/cmsis_os.c **** 
 404:Middlewares/Third_Party/FreeRTOS/Source/CMSIS_RTOS/cmsis_os.c **** #if( ( configSUPPORT_STATIC_ALLOCATION == 1 ) && ( configSUPPORT_DYNAMIC_ALLOCATION == 1 ) ) 
 405:Middlewares/Third_Party/FreeRTOS/Source/CMSIS_RTOS/cmsis_os.c ****   if(timer_def->controlblock != NULL) {
 406:Middlewares/Third_Party/FreeRTOS/Source/CMSIS_RTOS/cmsis_os.c ****     return xTimerCreateStatic((const char *)"",
 407:Middlewares/Third_Party/FreeRTOS/Source/CMSIS_RTOS/cmsis_os.c ****                       1, // period should be filled when starting the Timer using osTimerStart
 408:Middlewares/Third_Party/FreeRTOS/Source/CMSIS_RTOS/cmsis_os.c ****                       (type == osTimerPeriodic) ? pdTRUE : pdFALSE,
 409:Middlewares/Third_Party/FreeRTOS/Source/CMSIS_RTOS/cmsis_os.c ****                       (void *) argument,
 410:Middlewares/Third_Party/FreeRTOS/Source/CMSIS_RTOS/cmsis_os.c ****                       (TaskFunction_t)timer_def->ptimer,
 411:Middlewares/Third_Party/FreeRTOS/Source/CMSIS_RTOS/cmsis_os.c ****                       (StaticTimer_t *)timer_def->controlblock);
 412:Middlewares/Third_Party/FreeRTOS/Source/CMSIS_RTOS/cmsis_os.c ****   }
 413:Middlewares/Third_Party/FreeRTOS/Source/CMSIS_RTOS/cmsis_os.c ****   else {
 414:Middlewares/Third_Party/FreeRTOS/Source/CMSIS_RTOS/cmsis_os.c ****     return xTimerCreate((const char *)"",
 415:Middlewares/Third_Party/FreeRTOS/Source/CMSIS_RTOS/cmsis_os.c ****                       1, // period should be filled when starting the Timer using osTimerStart
 416:Middlewares/Third_Party/FreeRTOS/Source/CMSIS_RTOS/cmsis_os.c ****                       (type == osTimerPeriodic) ? pdTRUE : pdFALSE,
 417:Middlewares/Third_Party/FreeRTOS/Source/CMSIS_RTOS/cmsis_os.c ****                       (void *) argument,
 418:Middlewares/Third_Party/FreeRTOS/Source/CMSIS_RTOS/cmsis_os.c ****                       (TaskFunction_t)timer_def->ptimer);
 419:Middlewares/Third_Party/FreeRTOS/Source/CMSIS_RTOS/cmsis_os.c ****  }
 420:Middlewares/Third_Party/FreeRTOS/Source/CMSIS_RTOS/cmsis_os.c **** #elif( configSUPPORT_STATIC_ALLOCATION == 1 )
 421:Middlewares/Third_Party/FreeRTOS/Source/CMSIS_RTOS/cmsis_os.c ****   return xTimerCreateStatic((const char *)"",
 422:Middlewares/Third_Party/FreeRTOS/Source/CMSIS_RTOS/cmsis_os.c ****                       1, // period should be filled when starting the Timer using osTimerStart
 423:Middlewares/Third_Party/FreeRTOS/Source/CMSIS_RTOS/cmsis_os.c ****                       (type == osTimerPeriodic) ? pdTRUE : pdFALSE,
 424:Middlewares/Third_Party/FreeRTOS/Source/CMSIS_RTOS/cmsis_os.c ****                       (void *) argument,
 425:Middlewares/Third_Party/FreeRTOS/Source/CMSIS_RTOS/cmsis_os.c ****                       (TaskFunction_t)timer_def->ptimer,
 426:Middlewares/Third_Party/FreeRTOS/Source/CMSIS_RTOS/cmsis_os.c ****                       (StaticTimer_t *)timer_def->controlblock);  
 427:Middlewares/Third_Party/FreeRTOS/Source/CMSIS_RTOS/cmsis_os.c **** #else
 428:Middlewares/Third_Party/FreeRTOS/Source/CMSIS_RTOS/cmsis_os.c ****   return xTimerCreate((const char *)"",
 429:Middlewares/Third_Party/FreeRTOS/Source/CMSIS_RTOS/cmsis_os.c ****                       1, // period should be filled when starting the Timer using osTimerStart
 430:Middlewares/Third_Party/FreeRTOS/Source/CMSIS_RTOS/cmsis_os.c ****                       (type == osTimerPeriodic) ? pdTRUE : pdFALSE,
 431:Middlewares/Third_Party/FreeRTOS/Source/CMSIS_RTOS/cmsis_os.c ****                       (void *) argument,
 432:Middlewares/Third_Party/FreeRTOS/Source/CMSIS_RTOS/cmsis_os.c ****                       (TaskFunction_t)timer_def->ptimer);
ARM GAS  /tmp/ccSFdtfu.s 			page 22


 433:Middlewares/Third_Party/FreeRTOS/Source/CMSIS_RTOS/cmsis_os.c **** #endif
 434:Middlewares/Third_Party/FreeRTOS/Source/CMSIS_RTOS/cmsis_os.c **** 
 435:Middlewares/Third_Party/FreeRTOS/Source/CMSIS_RTOS/cmsis_os.c **** #else 
 436:Middlewares/Third_Party/FreeRTOS/Source/CMSIS_RTOS/cmsis_os.c **** 	return NULL;
 615              		.loc 1 436 2 view .LVU131
 437:Middlewares/Third_Party/FreeRTOS/Source/CMSIS_RTOS/cmsis_os.c **** #endif
 438:Middlewares/Third_Party/FreeRTOS/Source/CMSIS_RTOS/cmsis_os.c **** }
 616              		.loc 1 438 1 is_stmt 0 view .LVU132
 617 0000 0020     		movs	r0, #0
 618              	.LVL34:
 619              		.loc 1 438 1 view .LVU133
 620              		@ sp needed
 621 0002 7047     		bx	lr
 622              		.cfi_endproc
 623              	.LFE50:
 625              		.section	.text.osTimerStart,"ax",%progbits
 626              		.align	1
 627              		.p2align 2,,3
 628              		.global	osTimerStart
 629              		.syntax unified
 630              		.code	16
 631              		.thumb_func
 632              		.fpu softvfp
 634              	osTimerStart:
 635              	.LVL35:
 636              	.LFB51:
 439:Middlewares/Third_Party/FreeRTOS/Source/CMSIS_RTOS/cmsis_os.c **** 
 440:Middlewares/Third_Party/FreeRTOS/Source/CMSIS_RTOS/cmsis_os.c **** /**
 441:Middlewares/Third_Party/FreeRTOS/Source/CMSIS_RTOS/cmsis_os.c **** * @brief  Start or restart a timer.
 442:Middlewares/Third_Party/FreeRTOS/Source/CMSIS_RTOS/cmsis_os.c **** * @param  timer_id      timer ID obtained by \ref osTimerCreate.
 443:Middlewares/Third_Party/FreeRTOS/Source/CMSIS_RTOS/cmsis_os.c **** * @param  millisec      time delay value of the timer.
 444:Middlewares/Third_Party/FreeRTOS/Source/CMSIS_RTOS/cmsis_os.c **** * @retval  status code that indicates the execution status of the function
 445:Middlewares/Third_Party/FreeRTOS/Source/CMSIS_RTOS/cmsis_os.c **** * @note   MUST REMAIN UNCHANGED: \b osTimerStart shall be consistent in every CMSIS-RTOS.
 446:Middlewares/Third_Party/FreeRTOS/Source/CMSIS_RTOS/cmsis_os.c **** */
 447:Middlewares/Third_Party/FreeRTOS/Source/CMSIS_RTOS/cmsis_os.c **** osStatus osTimerStart (osTimerId timer_id, uint32_t millisec)
 448:Middlewares/Third_Party/FreeRTOS/Source/CMSIS_RTOS/cmsis_os.c **** {
 637              		.loc 1 448 1 is_stmt 1 view -0
 638              		.cfi_startproc
 639              		@ args = 0, pretend = 0, frame = 0
 640              		@ frame_needed = 0, uses_anonymous_args = 0
 641              		@ link register save eliminated.
 449:Middlewares/Third_Party/FreeRTOS/Source/CMSIS_RTOS/cmsis_os.c ****   osStatus result = osOK;
 642              		.loc 1 449 3 view .LVU135
 450:Middlewares/Third_Party/FreeRTOS/Source/CMSIS_RTOS/cmsis_os.c **** #if (configUSE_TIMERS == 1)  
 451:Middlewares/Third_Party/FreeRTOS/Source/CMSIS_RTOS/cmsis_os.c ****   portBASE_TYPE taskWoken = pdFALSE;
 452:Middlewares/Third_Party/FreeRTOS/Source/CMSIS_RTOS/cmsis_os.c ****   TickType_t ticks = millisec / portTICK_PERIOD_MS;
 453:Middlewares/Third_Party/FreeRTOS/Source/CMSIS_RTOS/cmsis_os.c **** 
 454:Middlewares/Third_Party/FreeRTOS/Source/CMSIS_RTOS/cmsis_os.c ****   if (ticks == 0)
 455:Middlewares/Third_Party/FreeRTOS/Source/CMSIS_RTOS/cmsis_os.c ****     ticks = 1;
 456:Middlewares/Third_Party/FreeRTOS/Source/CMSIS_RTOS/cmsis_os.c ****     
 457:Middlewares/Third_Party/FreeRTOS/Source/CMSIS_RTOS/cmsis_os.c ****   if (inHandlerMode()) 
 458:Middlewares/Third_Party/FreeRTOS/Source/CMSIS_RTOS/cmsis_os.c ****   {
 459:Middlewares/Third_Party/FreeRTOS/Source/CMSIS_RTOS/cmsis_os.c ****     if (xTimerChangePeriodFromISR(timer_id, ticks, &taskWoken) != pdPASS)
 460:Middlewares/Third_Party/FreeRTOS/Source/CMSIS_RTOS/cmsis_os.c ****     {
 461:Middlewares/Third_Party/FreeRTOS/Source/CMSIS_RTOS/cmsis_os.c ****       result = osErrorOS;
 462:Middlewares/Third_Party/FreeRTOS/Source/CMSIS_RTOS/cmsis_os.c ****     }
 463:Middlewares/Third_Party/FreeRTOS/Source/CMSIS_RTOS/cmsis_os.c ****     else
ARM GAS  /tmp/ccSFdtfu.s 			page 23


 464:Middlewares/Third_Party/FreeRTOS/Source/CMSIS_RTOS/cmsis_os.c ****     {
 465:Middlewares/Third_Party/FreeRTOS/Source/CMSIS_RTOS/cmsis_os.c ****       portEND_SWITCHING_ISR(taskWoken);     
 466:Middlewares/Third_Party/FreeRTOS/Source/CMSIS_RTOS/cmsis_os.c ****     }
 467:Middlewares/Third_Party/FreeRTOS/Source/CMSIS_RTOS/cmsis_os.c ****   }
 468:Middlewares/Third_Party/FreeRTOS/Source/CMSIS_RTOS/cmsis_os.c ****   else 
 469:Middlewares/Third_Party/FreeRTOS/Source/CMSIS_RTOS/cmsis_os.c ****   {
 470:Middlewares/Third_Party/FreeRTOS/Source/CMSIS_RTOS/cmsis_os.c ****     if (xTimerChangePeriod(timer_id, ticks, 0) != pdPASS)
 471:Middlewares/Third_Party/FreeRTOS/Source/CMSIS_RTOS/cmsis_os.c ****       result = osErrorOS;
 472:Middlewares/Third_Party/FreeRTOS/Source/CMSIS_RTOS/cmsis_os.c ****   }
 473:Middlewares/Third_Party/FreeRTOS/Source/CMSIS_RTOS/cmsis_os.c **** 
 474:Middlewares/Third_Party/FreeRTOS/Source/CMSIS_RTOS/cmsis_os.c **** #else 
 475:Middlewares/Third_Party/FreeRTOS/Source/CMSIS_RTOS/cmsis_os.c ****   result = osErrorOS;
 643              		.loc 1 475 3 view .LVU136
 476:Middlewares/Third_Party/FreeRTOS/Source/CMSIS_RTOS/cmsis_os.c **** #endif
 477:Middlewares/Third_Party/FreeRTOS/Source/CMSIS_RTOS/cmsis_os.c ****   return result;
 644              		.loc 1 477 3 view .LVU137
 478:Middlewares/Third_Party/FreeRTOS/Source/CMSIS_RTOS/cmsis_os.c **** }
 645              		.loc 1 478 1 is_stmt 0 view .LVU138
 646 0000 FF20     		movs	r0, #255
 647              	.LVL36:
 648              		.loc 1 478 1 view .LVU139
 649              		@ sp needed
 650 0002 7047     		bx	lr
 651              		.cfi_endproc
 652              	.LFE51:
 654              		.section	.text.osTimerStop,"ax",%progbits
 655              		.align	1
 656              		.p2align 2,,3
 657              		.global	osTimerStop
 658              		.syntax unified
 659              		.code	16
 660              		.thumb_func
 661              		.fpu softvfp
 663              	osTimerStop:
 664              	.LVL37:
 665              	.LFB52:
 479:Middlewares/Third_Party/FreeRTOS/Source/CMSIS_RTOS/cmsis_os.c **** 
 480:Middlewares/Third_Party/FreeRTOS/Source/CMSIS_RTOS/cmsis_os.c **** /**
 481:Middlewares/Third_Party/FreeRTOS/Source/CMSIS_RTOS/cmsis_os.c **** * @brief  Stop a timer.
 482:Middlewares/Third_Party/FreeRTOS/Source/CMSIS_RTOS/cmsis_os.c **** * @param  timer_id      timer ID obtained by \ref osTimerCreate
 483:Middlewares/Third_Party/FreeRTOS/Source/CMSIS_RTOS/cmsis_os.c **** * @retval  status code that indicates the execution status of the function.
 484:Middlewares/Third_Party/FreeRTOS/Source/CMSIS_RTOS/cmsis_os.c **** * @note   MUST REMAIN UNCHANGED: \b osTimerStop shall be consistent in every CMSIS-RTOS.
 485:Middlewares/Third_Party/FreeRTOS/Source/CMSIS_RTOS/cmsis_os.c **** */
 486:Middlewares/Third_Party/FreeRTOS/Source/CMSIS_RTOS/cmsis_os.c **** osStatus osTimerStop (osTimerId timer_id)
 487:Middlewares/Third_Party/FreeRTOS/Source/CMSIS_RTOS/cmsis_os.c **** {
 666              		.loc 1 487 1 is_stmt 1 view -0
 667              		.cfi_startproc
 668              		@ args = 0, pretend = 0, frame = 0
 669              		@ frame_needed = 0, uses_anonymous_args = 0
 670              		@ link register save eliminated.
 488:Middlewares/Third_Party/FreeRTOS/Source/CMSIS_RTOS/cmsis_os.c ****   osStatus result = osOK;
 671              		.loc 1 488 3 view .LVU141
 489:Middlewares/Third_Party/FreeRTOS/Source/CMSIS_RTOS/cmsis_os.c **** #if (configUSE_TIMERS == 1)  
 490:Middlewares/Third_Party/FreeRTOS/Source/CMSIS_RTOS/cmsis_os.c ****   portBASE_TYPE taskWoken = pdFALSE;
 491:Middlewares/Third_Party/FreeRTOS/Source/CMSIS_RTOS/cmsis_os.c **** 
 492:Middlewares/Third_Party/FreeRTOS/Source/CMSIS_RTOS/cmsis_os.c ****   if (inHandlerMode()) {
 493:Middlewares/Third_Party/FreeRTOS/Source/CMSIS_RTOS/cmsis_os.c ****     if (xTimerStopFromISR(timer_id, &taskWoken) != pdPASS) {
ARM GAS  /tmp/ccSFdtfu.s 			page 24


 494:Middlewares/Third_Party/FreeRTOS/Source/CMSIS_RTOS/cmsis_os.c ****       return osErrorOS;
 495:Middlewares/Third_Party/FreeRTOS/Source/CMSIS_RTOS/cmsis_os.c ****     }
 496:Middlewares/Third_Party/FreeRTOS/Source/CMSIS_RTOS/cmsis_os.c ****     portEND_SWITCHING_ISR(taskWoken);
 497:Middlewares/Third_Party/FreeRTOS/Source/CMSIS_RTOS/cmsis_os.c ****   }
 498:Middlewares/Third_Party/FreeRTOS/Source/CMSIS_RTOS/cmsis_os.c ****   else {
 499:Middlewares/Third_Party/FreeRTOS/Source/CMSIS_RTOS/cmsis_os.c ****     if (xTimerStop(timer_id, 0) != pdPASS) {
 500:Middlewares/Third_Party/FreeRTOS/Source/CMSIS_RTOS/cmsis_os.c ****       result = osErrorOS;
 501:Middlewares/Third_Party/FreeRTOS/Source/CMSIS_RTOS/cmsis_os.c ****     }
 502:Middlewares/Third_Party/FreeRTOS/Source/CMSIS_RTOS/cmsis_os.c ****   }
 503:Middlewares/Third_Party/FreeRTOS/Source/CMSIS_RTOS/cmsis_os.c **** #else 
 504:Middlewares/Third_Party/FreeRTOS/Source/CMSIS_RTOS/cmsis_os.c ****   result = osErrorOS;
 672              		.loc 1 504 3 view .LVU142
 505:Middlewares/Third_Party/FreeRTOS/Source/CMSIS_RTOS/cmsis_os.c **** #endif 
 506:Middlewares/Third_Party/FreeRTOS/Source/CMSIS_RTOS/cmsis_os.c ****   return result;
 673              		.loc 1 506 3 view .LVU143
 507:Middlewares/Third_Party/FreeRTOS/Source/CMSIS_RTOS/cmsis_os.c **** }
 674              		.loc 1 507 1 is_stmt 0 view .LVU144
 675 0000 FF20     		movs	r0, #255
 676              	.LVL38:
 677              		.loc 1 507 1 view .LVU145
 678              		@ sp needed
 679 0002 7047     		bx	lr
 680              		.cfi_endproc
 681              	.LFE52:
 683              		.section	.text.osTimerDelete,"ax",%progbits
 684              		.align	1
 685              		.p2align 2,,3
 686              		.global	osTimerDelete
 687              		.syntax unified
 688              		.code	16
 689              		.thumb_func
 690              		.fpu softvfp
 692              	osTimerDelete:
 693              	.LFB94:
 694              		.cfi_startproc
 695              		@ args = 0, pretend = 0, frame = 0
 696              		@ frame_needed = 0, uses_anonymous_args = 0
 697              		@ link register save eliminated.
 698 0000 FF20     		movs	r0, #255
 699              		@ sp needed
 700 0002 7047     		bx	lr
 701              		.cfi_endproc
 702              	.LFE94:
 704              		.section	.text.osSignalSet,"ax",%progbits
 705              		.align	1
 706              		.p2align 2,,3
 707              		.global	osSignalSet
 708              		.syntax unified
 709              		.code	16
 710              		.thumb_func
 711              		.fpu softvfp
 713              	osSignalSet:
 714              	.LVL39:
 715              	.LFB54:
 508:Middlewares/Third_Party/FreeRTOS/Source/CMSIS_RTOS/cmsis_os.c **** 
 509:Middlewares/Third_Party/FreeRTOS/Source/CMSIS_RTOS/cmsis_os.c **** /**
 510:Middlewares/Third_Party/FreeRTOS/Source/CMSIS_RTOS/cmsis_os.c **** * @brief  Delete a timer.
ARM GAS  /tmp/ccSFdtfu.s 			page 25


 511:Middlewares/Third_Party/FreeRTOS/Source/CMSIS_RTOS/cmsis_os.c **** * @param  timer_id      timer ID obtained by \ref osTimerCreate
 512:Middlewares/Third_Party/FreeRTOS/Source/CMSIS_RTOS/cmsis_os.c **** * @retval  status code that indicates the execution status of the function.
 513:Middlewares/Third_Party/FreeRTOS/Source/CMSIS_RTOS/cmsis_os.c **** * @note   MUST REMAIN UNCHANGED: \b osTimerDelete shall be consistent in every CMSIS-RTOS.
 514:Middlewares/Third_Party/FreeRTOS/Source/CMSIS_RTOS/cmsis_os.c **** */
 515:Middlewares/Third_Party/FreeRTOS/Source/CMSIS_RTOS/cmsis_os.c **** osStatus osTimerDelete (osTimerId timer_id)
 516:Middlewares/Third_Party/FreeRTOS/Source/CMSIS_RTOS/cmsis_os.c **** {
 517:Middlewares/Third_Party/FreeRTOS/Source/CMSIS_RTOS/cmsis_os.c **** osStatus result = osOK;
 518:Middlewares/Third_Party/FreeRTOS/Source/CMSIS_RTOS/cmsis_os.c **** 
 519:Middlewares/Third_Party/FreeRTOS/Source/CMSIS_RTOS/cmsis_os.c **** #if (configUSE_TIMERS == 1)
 520:Middlewares/Third_Party/FreeRTOS/Source/CMSIS_RTOS/cmsis_os.c **** 
 521:Middlewares/Third_Party/FreeRTOS/Source/CMSIS_RTOS/cmsis_os.c ****    if (inHandlerMode()) {
 522:Middlewares/Third_Party/FreeRTOS/Source/CMSIS_RTOS/cmsis_os.c ****      return osErrorISR;
 523:Middlewares/Third_Party/FreeRTOS/Source/CMSIS_RTOS/cmsis_os.c ****   }
 524:Middlewares/Third_Party/FreeRTOS/Source/CMSIS_RTOS/cmsis_os.c ****   else { 
 525:Middlewares/Third_Party/FreeRTOS/Source/CMSIS_RTOS/cmsis_os.c ****     if ((xTimerDelete(timer_id, osWaitForever )) != pdPASS) {
 526:Middlewares/Third_Party/FreeRTOS/Source/CMSIS_RTOS/cmsis_os.c ****       result = osErrorOS;
 527:Middlewares/Third_Party/FreeRTOS/Source/CMSIS_RTOS/cmsis_os.c ****     }
 528:Middlewares/Third_Party/FreeRTOS/Source/CMSIS_RTOS/cmsis_os.c ****   } 
 529:Middlewares/Third_Party/FreeRTOS/Source/CMSIS_RTOS/cmsis_os.c ****     
 530:Middlewares/Third_Party/FreeRTOS/Source/CMSIS_RTOS/cmsis_os.c **** #else 
 531:Middlewares/Third_Party/FreeRTOS/Source/CMSIS_RTOS/cmsis_os.c ****   result = osErrorOS;
 532:Middlewares/Third_Party/FreeRTOS/Source/CMSIS_RTOS/cmsis_os.c **** #endif 
 533:Middlewares/Third_Party/FreeRTOS/Source/CMSIS_RTOS/cmsis_os.c ****  
 534:Middlewares/Third_Party/FreeRTOS/Source/CMSIS_RTOS/cmsis_os.c ****   return result;
 535:Middlewares/Third_Party/FreeRTOS/Source/CMSIS_RTOS/cmsis_os.c **** }
 536:Middlewares/Third_Party/FreeRTOS/Source/CMSIS_RTOS/cmsis_os.c **** 
 537:Middlewares/Third_Party/FreeRTOS/Source/CMSIS_RTOS/cmsis_os.c **** /***************************  Signal Management ********************************/
 538:Middlewares/Third_Party/FreeRTOS/Source/CMSIS_RTOS/cmsis_os.c **** /**
 539:Middlewares/Third_Party/FreeRTOS/Source/CMSIS_RTOS/cmsis_os.c **** * @brief  Set the specified Signal Flags of an active thread.
 540:Middlewares/Third_Party/FreeRTOS/Source/CMSIS_RTOS/cmsis_os.c **** * @param  thread_id     thread ID obtained by \ref osThreadCreate or \ref osThreadGetId.
 541:Middlewares/Third_Party/FreeRTOS/Source/CMSIS_RTOS/cmsis_os.c **** * @param  signals       specifies the signal flags of the thread that should be set.
 542:Middlewares/Third_Party/FreeRTOS/Source/CMSIS_RTOS/cmsis_os.c **** * @retval previous signal flags of the specified thread or 0x80000000 in case of incorrect paramete
 543:Middlewares/Third_Party/FreeRTOS/Source/CMSIS_RTOS/cmsis_os.c **** * @note   MUST REMAIN UNCHANGED: \b osSignalSet shall be consistent in every CMSIS-RTOS.
 544:Middlewares/Third_Party/FreeRTOS/Source/CMSIS_RTOS/cmsis_os.c **** */
 545:Middlewares/Third_Party/FreeRTOS/Source/CMSIS_RTOS/cmsis_os.c **** int32_t osSignalSet (osThreadId thread_id, int32_t signal)
 546:Middlewares/Third_Party/FreeRTOS/Source/CMSIS_RTOS/cmsis_os.c **** {
 716              		.loc 1 546 1 is_stmt 1 view -0
 717              		.cfi_startproc
 718              		@ args = 0, pretend = 0, frame = 8
 719              		@ frame_needed = 0, uses_anonymous_args = 0
 547:Middlewares/Third_Party/FreeRTOS/Source/CMSIS_RTOS/cmsis_os.c **** #if( configUSE_TASK_NOTIFICATIONS == 1 )	
 548:Middlewares/Third_Party/FreeRTOS/Source/CMSIS_RTOS/cmsis_os.c ****   BaseType_t xHigherPriorityTaskWoken = pdFALSE;
 720              		.loc 1 548 3 view .LVU147
 721              		.loc 1 548 14 is_stmt 0 view .LVU148
 722 0000 0023     		movs	r3, #0
 546:Middlewares/Third_Party/FreeRTOS/Source/CMSIS_RTOS/cmsis_os.c **** #if( configUSE_TASK_NOTIFICATIONS == 1 )	
 723              		.loc 1 546 1 view .LVU149
 724 0002 00B5     		push	{lr}
 725              	.LCFI11:
 726              		.cfi_def_cfa_offset 4
 727              		.cfi_offset 14, -4
 728 0004 85B0     		sub	sp, sp, #20
 729              	.LCFI12:
 730              		.cfi_def_cfa_offset 24
 731              		.loc 1 548 14 view .LVU150
 732 0006 0293     		str	r3, [sp, #8]
 549:Middlewares/Third_Party/FreeRTOS/Source/CMSIS_RTOS/cmsis_os.c ****   uint32_t ulPreviousNotificationValue = 0;
ARM GAS  /tmp/ccSFdtfu.s 			page 26


 733              		.loc 1 549 3 is_stmt 1 view .LVU151
 734              		.loc 1 549 12 is_stmt 0 view .LVU152
 735 0008 0393     		str	r3, [sp, #12]
 550:Middlewares/Third_Party/FreeRTOS/Source/CMSIS_RTOS/cmsis_os.c ****   
 551:Middlewares/Third_Party/FreeRTOS/Source/CMSIS_RTOS/cmsis_os.c ****   if (inHandlerMode())
 736              		.loc 1 551 3 is_stmt 1 view .LVU153
 737              	.LBB128:
 738              	.LBI128:
 173:Middlewares/Third_Party/FreeRTOS/Source/CMSIS_RTOS/cmsis_os.c **** {
 739              		.loc 1 173 12 view .LVU154
 740              	.LBE128:
 175:Middlewares/Third_Party/FreeRTOS/Source/CMSIS_RTOS/cmsis_os.c **** }
 741              		.loc 1 175 3 view .LVU155
 742              	.LBB131:
 743              	.LBB129:
 744              	.LBI129:
 105:Drivers/CMSIS/Include/cmsis_gcc.h **** {
 745              		.loc 2 105 61 view .LVU156
 746              	.LBB130:
 107:Drivers/CMSIS/Include/cmsis_gcc.h **** 
 747              		.loc 2 107 3 view .LVU157
 109:Drivers/CMSIS/Include/cmsis_gcc.h ****   return(result);
 748              		.loc 2 109 3 view .LVU158
 749              		.syntax divided
 750              	@ 109 "Drivers/CMSIS/Include/cmsis_gcc.h" 1
 751 000a EFF30583 		MRS r3, ipsr
 752              	@ 0 "" 2
 753              	.LVL40:
 754              		.loc 2 110 3 view .LVU159
 755              		.loc 2 110 3 is_stmt 0 view .LVU160
 756              		.thumb
 757              		.syntax unified
 758              	.LBE130:
 759              	.LBE129:
 760              	.LBE131:
 761              		.loc 1 551 6 view .LVU161
 762 000e 002B     		cmp	r3, #0
 763 0010 11D0     		beq	.L32
 552:Middlewares/Third_Party/FreeRTOS/Source/CMSIS_RTOS/cmsis_os.c ****   {
 553:Middlewares/Third_Party/FreeRTOS/Source/CMSIS_RTOS/cmsis_os.c ****     if(xTaskGenericNotifyFromISR( thread_id , (uint32_t)signal, eSetBits, &ulPreviousNotificationVa
 764              		.loc 1 553 5 is_stmt 1 view .LVU162
 765              		.loc 1 553 8 is_stmt 0 view .LVU163
 766 0012 02AB     		add	r3, sp, #8
 767 0014 0093     		str	r3, [sp]
 768 0016 0122     		movs	r2, #1
 769 0018 03AB     		add	r3, sp, #12
 770 001a FFF7FEFF 		bl	xTaskGenericNotifyFromISR
 771              	.LVL41:
 772              		.loc 1 553 7 view .LVU164
 773 001e 0128     		cmp	r0, #1
 774 0020 0FD1     		bne	.L37
 554:Middlewares/Third_Party/FreeRTOS/Source/CMSIS_RTOS/cmsis_os.c ****       return 0x80000000;
 555:Middlewares/Third_Party/FreeRTOS/Source/CMSIS_RTOS/cmsis_os.c ****     
 556:Middlewares/Third_Party/FreeRTOS/Source/CMSIS_RTOS/cmsis_os.c ****     portYIELD_FROM_ISR( xHigherPriorityTaskWoken );
 775              		.loc 1 556 5 is_stmt 1 view .LVU165
 776 0022 029B     		ldr	r3, [sp, #8]
 777 0024 002B     		cmp	r3, #0
ARM GAS  /tmp/ccSFdtfu.s 			page 27


 778 0026 03D0     		beq	.L36
 779              		.loc 1 556 5 discriminator 1 view .LVU166
 780 0028 8022     		movs	r2, #128
 781 002a 074B     		ldr	r3, .L39
 782 002c 5205     		lsls	r2, r2, #21
 783 002e 1A60     		str	r2, [r3]
 784              	.L36:
 557:Middlewares/Third_Party/FreeRTOS/Source/CMSIS_RTOS/cmsis_os.c ****   }  
 558:Middlewares/Third_Party/FreeRTOS/Source/CMSIS_RTOS/cmsis_os.c ****   else if(xTaskGenericNotify( thread_id , (uint32_t)signal, eSetBits, &ulPreviousNotificationValue)
 559:Middlewares/Third_Party/FreeRTOS/Source/CMSIS_RTOS/cmsis_os.c ****     return 0x80000000;
 560:Middlewares/Third_Party/FreeRTOS/Source/CMSIS_RTOS/cmsis_os.c ****   
 561:Middlewares/Third_Party/FreeRTOS/Source/CMSIS_RTOS/cmsis_os.c ****   return ulPreviousNotificationValue;
 785              		.loc 1 561 3 view .LVU167
 786              		.loc 1 561 10 is_stmt 0 view .LVU168
 787 0030 0398     		ldr	r0, [sp, #12]
 788              	.L31:
 562:Middlewares/Third_Party/FreeRTOS/Source/CMSIS_RTOS/cmsis_os.c **** #else
 563:Middlewares/Third_Party/FreeRTOS/Source/CMSIS_RTOS/cmsis_os.c ****   (void) thread_id;
 564:Middlewares/Third_Party/FreeRTOS/Source/CMSIS_RTOS/cmsis_os.c ****   (void) signal;
 565:Middlewares/Third_Party/FreeRTOS/Source/CMSIS_RTOS/cmsis_os.c **** 
 566:Middlewares/Third_Party/FreeRTOS/Source/CMSIS_RTOS/cmsis_os.c ****   return 0x80000000; /* Task Notification not supported */ 	
 567:Middlewares/Third_Party/FreeRTOS/Source/CMSIS_RTOS/cmsis_os.c **** #endif
 568:Middlewares/Third_Party/FreeRTOS/Source/CMSIS_RTOS/cmsis_os.c **** }
 789              		.loc 1 568 1 view .LVU169
 790 0032 05B0     		add	sp, sp, #20
 791              		@ sp needed
 792 0034 00BD     		pop	{pc}
 793              	.LVL42:
 794              	.L32:
 558:Middlewares/Third_Party/FreeRTOS/Source/CMSIS_RTOS/cmsis_os.c ****     return 0x80000000;
 795              		.loc 1 558 8 is_stmt 1 view .LVU170
 558:Middlewares/Third_Party/FreeRTOS/Source/CMSIS_RTOS/cmsis_os.c ****     return 0x80000000;
 796              		.loc 1 558 11 is_stmt 0 view .LVU171
 797 0036 03AB     		add	r3, sp, #12
 798 0038 0122     		movs	r2, #1
 799 003a FFF7FEFF 		bl	xTaskGenericNotify
 800              	.LVL43:
 558:Middlewares/Third_Party/FreeRTOS/Source/CMSIS_RTOS/cmsis_os.c ****     return 0x80000000;
 801              		.loc 1 558 10 view .LVU172
 802 003e 0128     		cmp	r0, #1
 803 0040 F6D0     		beq	.L36
 804              	.L37:
 554:Middlewares/Third_Party/FreeRTOS/Source/CMSIS_RTOS/cmsis_os.c ****     
 805              		.loc 1 554 14 view .LVU173
 806 0042 8020     		movs	r0, #128
 807 0044 0006     		lsls	r0, r0, #24
 808 0046 F4E7     		b	.L31
 809              	.L40:
 810              		.align	2
 811              	.L39:
 812 0048 04ED00E0 		.word	-536810236
 813              		.cfi_endproc
 814              	.LFE54:
 816              		.section	.text.osSignalWait,"ax",%progbits
 817              		.align	1
 818              		.p2align 2,,3
 819              		.global	osSignalWait
ARM GAS  /tmp/ccSFdtfu.s 			page 28


 820              		.syntax unified
 821              		.code	16
 822              		.thumb_func
 823              		.fpu softvfp
 825              	osSignalWait:
 826              	.LVL44:
 827              	.LFB55:
 569:Middlewares/Third_Party/FreeRTOS/Source/CMSIS_RTOS/cmsis_os.c **** 
 570:Middlewares/Third_Party/FreeRTOS/Source/CMSIS_RTOS/cmsis_os.c **** /**
 571:Middlewares/Third_Party/FreeRTOS/Source/CMSIS_RTOS/cmsis_os.c **** * @brief  Clear the specified Signal Flags of an active thread.
 572:Middlewares/Third_Party/FreeRTOS/Source/CMSIS_RTOS/cmsis_os.c **** * @param  thread_id  thread ID obtained by \ref osThreadCreate or \ref osThreadGetId.
 573:Middlewares/Third_Party/FreeRTOS/Source/CMSIS_RTOS/cmsis_os.c **** * @param  signals    specifies the signal flags of the thread that shall be cleared.
 574:Middlewares/Third_Party/FreeRTOS/Source/CMSIS_RTOS/cmsis_os.c **** * @retval  previous signal flags of the specified thread or 0x80000000 in case of incorrect paramet
 575:Middlewares/Third_Party/FreeRTOS/Source/CMSIS_RTOS/cmsis_os.c **** * @note   MUST REMAIN UNCHANGED: \b osSignalClear shall be consistent in every CMSIS-RTOS.
 576:Middlewares/Third_Party/FreeRTOS/Source/CMSIS_RTOS/cmsis_os.c **** */
 577:Middlewares/Third_Party/FreeRTOS/Source/CMSIS_RTOS/cmsis_os.c **** int32_t osSignalClear (osThreadId thread_id, int32_t signal);
 578:Middlewares/Third_Party/FreeRTOS/Source/CMSIS_RTOS/cmsis_os.c **** 
 579:Middlewares/Third_Party/FreeRTOS/Source/CMSIS_RTOS/cmsis_os.c **** /**
 580:Middlewares/Third_Party/FreeRTOS/Source/CMSIS_RTOS/cmsis_os.c **** * @brief  Wait for one or more Signal Flags to become signaled for the current \b RUNNING thread.
 581:Middlewares/Third_Party/FreeRTOS/Source/CMSIS_RTOS/cmsis_os.c **** * @param  signals   wait until all specified signal flags set or 0 for any single signal flag.
 582:Middlewares/Third_Party/FreeRTOS/Source/CMSIS_RTOS/cmsis_os.c **** * @param  millisec  timeout value or 0 in case of no time-out.
 583:Middlewares/Third_Party/FreeRTOS/Source/CMSIS_RTOS/cmsis_os.c **** * @retval  event flag information or error code.
 584:Middlewares/Third_Party/FreeRTOS/Source/CMSIS_RTOS/cmsis_os.c **** * @note   MUST REMAIN UNCHANGED: \b osSignalWait shall be consistent in every CMSIS-RTOS.
 585:Middlewares/Third_Party/FreeRTOS/Source/CMSIS_RTOS/cmsis_os.c **** */
 586:Middlewares/Third_Party/FreeRTOS/Source/CMSIS_RTOS/cmsis_os.c **** osEvent osSignalWait (int32_t signals, uint32_t millisec)
 587:Middlewares/Third_Party/FreeRTOS/Source/CMSIS_RTOS/cmsis_os.c **** {
 828              		.loc 1 587 1 is_stmt 1 view -0
 829              		.cfi_startproc
 830              		@ args = 0, pretend = 0, frame = 16
 831              		@ frame_needed = 0, uses_anonymous_args = 0
 588:Middlewares/Third_Party/FreeRTOS/Source/CMSIS_RTOS/cmsis_os.c ****   osEvent ret;
 832              		.loc 1 588 3 view .LVU175
 589:Middlewares/Third_Party/FreeRTOS/Source/CMSIS_RTOS/cmsis_os.c **** 
 590:Middlewares/Third_Party/FreeRTOS/Source/CMSIS_RTOS/cmsis_os.c **** #if( configUSE_TASK_NOTIFICATIONS == 1 )
 591:Middlewares/Third_Party/FreeRTOS/Source/CMSIS_RTOS/cmsis_os.c **** 	
 592:Middlewares/Third_Party/FreeRTOS/Source/CMSIS_RTOS/cmsis_os.c ****   TickType_t ticks;
 833              		.loc 1 592 3 view .LVU176
 593:Middlewares/Third_Party/FreeRTOS/Source/CMSIS_RTOS/cmsis_os.c **** 
 594:Middlewares/Third_Party/FreeRTOS/Source/CMSIS_RTOS/cmsis_os.c ****   ret.value.signals = 0;  
 834              		.loc 1 594 3 view .LVU177
 835              		.loc 1 594 21 is_stmt 0 view .LVU178
 836 0000 0023     		movs	r3, #0
 587:Middlewares/Third_Party/FreeRTOS/Source/CMSIS_RTOS/cmsis_os.c ****   osEvent ret;
 837              		.loc 1 587 1 view .LVU179
 838 0002 70B5     		push	{r4, r5, r6, lr}
 839              	.LCFI13:
 840              		.cfi_def_cfa_offset 16
 841              		.cfi_offset 4, -16
 842              		.cfi_offset 5, -12
 843              		.cfi_offset 6, -8
 844              		.cfi_offset 14, -4
 845 0004 84B0     		sub	sp, sp, #16
 846              	.LCFI14:
 847              		.cfi_def_cfa_offset 32
 848              		.loc 1 594 21 view .LVU180
 849 0006 01AC     		add	r4, sp, #4
 587:Middlewares/Third_Party/FreeRTOS/Source/CMSIS_RTOS/cmsis_os.c ****   osEvent ret;
ARM GAS  /tmp/ccSFdtfu.s 			page 29


 850              		.loc 1 587 1 view .LVU181
 851 0008 0500     		movs	r5, r0
 852 000a 1600     		movs	r6, r2
 853              		.loc 1 594 21 view .LVU182
 854 000c 6360     		str	r3, [r4, #4]
 595:Middlewares/Third_Party/FreeRTOS/Source/CMSIS_RTOS/cmsis_os.c ****   ticks = 0;
 855              		.loc 1 595 3 is_stmt 1 view .LVU183
 856              	.LVL45:
 596:Middlewares/Third_Party/FreeRTOS/Source/CMSIS_RTOS/cmsis_os.c ****   if (millisec == osWaitForever) {
 857              		.loc 1 596 3 view .LVU184
 597:Middlewares/Third_Party/FreeRTOS/Source/CMSIS_RTOS/cmsis_os.c ****     ticks = portMAX_DELAY;
 598:Middlewares/Third_Party/FreeRTOS/Source/CMSIS_RTOS/cmsis_os.c ****   }
 599:Middlewares/Third_Party/FreeRTOS/Source/CMSIS_RTOS/cmsis_os.c ****   else if (millisec != 0) {
 600:Middlewares/Third_Party/FreeRTOS/Source/CMSIS_RTOS/cmsis_os.c ****     ticks = millisec / portTICK_PERIOD_MS;
 601:Middlewares/Third_Party/FreeRTOS/Source/CMSIS_RTOS/cmsis_os.c ****     if (ticks == 0) {
 602:Middlewares/Third_Party/FreeRTOS/Source/CMSIS_RTOS/cmsis_os.c ****       ticks = 1;
 603:Middlewares/Third_Party/FreeRTOS/Source/CMSIS_RTOS/cmsis_os.c ****     }
 604:Middlewares/Third_Party/FreeRTOS/Source/CMSIS_RTOS/cmsis_os.c ****   }  
 605:Middlewares/Third_Party/FreeRTOS/Source/CMSIS_RTOS/cmsis_os.c ****   
 606:Middlewares/Third_Party/FreeRTOS/Source/CMSIS_RTOS/cmsis_os.c ****   if (inHandlerMode())
 858              		.loc 1 606 3 view .LVU185
 859              	.LBB132:
 860              	.LBI132:
 173:Middlewares/Third_Party/FreeRTOS/Source/CMSIS_RTOS/cmsis_os.c **** {
 861              		.loc 1 173 12 view .LVU186
 862              	.LBE132:
 175:Middlewares/Third_Party/FreeRTOS/Source/CMSIS_RTOS/cmsis_os.c **** }
 863              		.loc 1 175 3 view .LVU187
 864              	.LBB135:
 865              	.LBB133:
 866              	.LBI133:
 105:Drivers/CMSIS/Include/cmsis_gcc.h **** {
 867              		.loc 2 105 61 view .LVU188
 868              	.LBB134:
 107:Drivers/CMSIS/Include/cmsis_gcc.h **** 
 869              		.loc 2 107 3 view .LVU189
 109:Drivers/CMSIS/Include/cmsis_gcc.h ****   return(result);
 870              		.loc 2 109 3 view .LVU190
 871              		.syntax divided
 872              	@ 109 "Drivers/CMSIS/Include/cmsis_gcc.h" 1
 873 000e EFF30583 		MRS r3, ipsr
 874              	@ 0 "" 2
 875              	.LVL46:
 876              		.loc 2 110 3 view .LVU191
 877              		.loc 2 110 3 is_stmt 0 view .LVU192
 878              		.thumb
 879              		.syntax unified
 880              	.LBE134:
 881              	.LBE133:
 882              	.LBE135:
 883              		.loc 1 606 6 view .LVU193
 884 0012 002B     		cmp	r3, #0
 885 0014 07D0     		beq	.L42
 607:Middlewares/Third_Party/FreeRTOS/Source/CMSIS_RTOS/cmsis_os.c ****   {
 608:Middlewares/Third_Party/FreeRTOS/Source/CMSIS_RTOS/cmsis_os.c ****     ret.status = osErrorISR;  /*Not allowed in ISR*/
 886              		.loc 1 608 5 is_stmt 1 view .LVU194
 887              		.loc 1 608 16 is_stmt 0 view .LVU195
ARM GAS  /tmp/ccSFdtfu.s 			page 30


 888 0016 8223     		movs	r3, #130
 889 0018 0193     		str	r3, [sp, #4]
 890              	.LVL47:
 891              	.L43:
 609:Middlewares/Third_Party/FreeRTOS/Source/CMSIS_RTOS/cmsis_os.c ****   }
 610:Middlewares/Third_Party/FreeRTOS/Source/CMSIS_RTOS/cmsis_os.c ****   else
 611:Middlewares/Third_Party/FreeRTOS/Source/CMSIS_RTOS/cmsis_os.c ****   {
 612:Middlewares/Third_Party/FreeRTOS/Source/CMSIS_RTOS/cmsis_os.c ****     if(xTaskNotifyWait( 0,(uint32_t) signals, (uint32_t *)&ret.value.signals, ticks) != pdTRUE)
 613:Middlewares/Third_Party/FreeRTOS/Source/CMSIS_RTOS/cmsis_os.c ****     {
 614:Middlewares/Third_Party/FreeRTOS/Source/CMSIS_RTOS/cmsis_os.c ****       if(ticks == 0)  ret.status = osOK;
 615:Middlewares/Third_Party/FreeRTOS/Source/CMSIS_RTOS/cmsis_os.c ****       else  ret.status = osEventTimeout;
 616:Middlewares/Third_Party/FreeRTOS/Source/CMSIS_RTOS/cmsis_os.c ****     }
 617:Middlewares/Third_Party/FreeRTOS/Source/CMSIS_RTOS/cmsis_os.c ****     else if(ret.value.signals < 0)
 618:Middlewares/Third_Party/FreeRTOS/Source/CMSIS_RTOS/cmsis_os.c ****     {
 619:Middlewares/Third_Party/FreeRTOS/Source/CMSIS_RTOS/cmsis_os.c ****       ret.status =  osErrorValue;     
 620:Middlewares/Third_Party/FreeRTOS/Source/CMSIS_RTOS/cmsis_os.c ****     }
 621:Middlewares/Third_Party/FreeRTOS/Source/CMSIS_RTOS/cmsis_os.c ****     else  ret.status =  osEventSignal;
 622:Middlewares/Third_Party/FreeRTOS/Source/CMSIS_RTOS/cmsis_os.c ****   }
 623:Middlewares/Third_Party/FreeRTOS/Source/CMSIS_RTOS/cmsis_os.c **** #else
 624:Middlewares/Third_Party/FreeRTOS/Source/CMSIS_RTOS/cmsis_os.c ****   (void) signals;
 625:Middlewares/Third_Party/FreeRTOS/Source/CMSIS_RTOS/cmsis_os.c ****   (void) millisec;
 626:Middlewares/Third_Party/FreeRTOS/Source/CMSIS_RTOS/cmsis_os.c **** 	
 627:Middlewares/Third_Party/FreeRTOS/Source/CMSIS_RTOS/cmsis_os.c ****   ret.status =  osErrorOS;	/* Task Notification not supported */
 628:Middlewares/Third_Party/FreeRTOS/Source/CMSIS_RTOS/cmsis_os.c **** #endif
 629:Middlewares/Third_Party/FreeRTOS/Source/CMSIS_RTOS/cmsis_os.c ****   
 630:Middlewares/Third_Party/FreeRTOS/Source/CMSIS_RTOS/cmsis_os.c ****   return ret;
 892              		.loc 1 630 3 is_stmt 1 view .LVU196
 893              		.loc 1 630 10 is_stmt 0 view .LVU197
 894 001a 2B00     		movs	r3, r5
 895 001c 07CC     		ldmia	r4!, {r0, r1, r2}
 896 001e 07C3     		stmia	r3!, {r0, r1, r2}
 631:Middlewares/Third_Party/FreeRTOS/Source/CMSIS_RTOS/cmsis_os.c **** }
 897              		.loc 1 631 1 view .LVU198
 898 0020 2800     		movs	r0, r5
 899 0022 04B0     		add	sp, sp, #16
 900              		@ sp needed
 901              	.LVL48:
 902              	.LVL49:
 903              		.loc 1 631 1 view .LVU199
 904 0024 70BD     		pop	{r4, r5, r6, pc}
 905              	.LVL50:
 906              	.L42:
 612:Middlewares/Third_Party/FreeRTOS/Source/CMSIS_RTOS/cmsis_os.c ****     {
 907              		.loc 1 612 5 is_stmt 1 view .LVU200
 612:Middlewares/Third_Party/FreeRTOS/Source/CMSIS_RTOS/cmsis_os.c ****     {
 908              		.loc 1 612 8 is_stmt 0 view .LVU201
 909 0026 1300     		movs	r3, r2
 910 0028 0020     		movs	r0, #0
 911              	.LVL51:
 612:Middlewares/Third_Party/FreeRTOS/Source/CMSIS_RTOS/cmsis_os.c ****     {
 912              		.loc 1 612 8 view .LVU202
 913 002a 02AA     		add	r2, sp, #8
 914              	.LVL52:
 612:Middlewares/Third_Party/FreeRTOS/Source/CMSIS_RTOS/cmsis_os.c ****     {
 915              		.loc 1 612 8 view .LVU203
 916 002c FFF7FEFF 		bl	xTaskNotifyWait
 917              	.LVL53:
ARM GAS  /tmp/ccSFdtfu.s 			page 31


 612:Middlewares/Third_Party/FreeRTOS/Source/CMSIS_RTOS/cmsis_os.c ****     {
 918              		.loc 1 612 7 view .LVU204
 919 0030 0128     		cmp	r0, #1
 920 0032 06D0     		beq	.L44
 614:Middlewares/Third_Party/FreeRTOS/Source/CMSIS_RTOS/cmsis_os.c ****       else  ret.status = osEventTimeout;
 921              		.loc 1 614 7 is_stmt 1 view .LVU205
 614:Middlewares/Third_Party/FreeRTOS/Source/CMSIS_RTOS/cmsis_os.c ****       else  ret.status = osEventTimeout;
 922              		.loc 1 614 9 is_stmt 0 view .LVU206
 923 0034 002E     		cmp	r6, #0
 924 0036 01D1     		bne	.L45
 614:Middlewares/Third_Party/FreeRTOS/Source/CMSIS_RTOS/cmsis_os.c ****       else  ret.status = osEventTimeout;
 925              		.loc 1 614 23 is_stmt 1 discriminator 1 view .LVU207
 614:Middlewares/Third_Party/FreeRTOS/Source/CMSIS_RTOS/cmsis_os.c ****       else  ret.status = osEventTimeout;
 926              		.loc 1 614 34 is_stmt 0 discriminator 1 view .LVU208
 927 0038 2660     		str	r6, [r4]
 928 003a EEE7     		b	.L43
 929              	.L45:
 615:Middlewares/Third_Party/FreeRTOS/Source/CMSIS_RTOS/cmsis_os.c ****     }
 930              		.loc 1 615 13 is_stmt 1 view .LVU209
 615:Middlewares/Third_Party/FreeRTOS/Source/CMSIS_RTOS/cmsis_os.c ****     }
 931              		.loc 1 615 24 is_stmt 0 view .LVU210
 932 003c 4023     		movs	r3, #64
 933 003e 2360     		str	r3, [r4]
 934 0040 EBE7     		b	.L43
 935              	.L44:
 617:Middlewares/Third_Party/FreeRTOS/Source/CMSIS_RTOS/cmsis_os.c ****     {
 936              		.loc 1 617 10 is_stmt 1 view .LVU211
 617:Middlewares/Third_Party/FreeRTOS/Source/CMSIS_RTOS/cmsis_os.c ****     {
 937              		.loc 1 617 12 is_stmt 0 view .LVU212
 938 0042 6368     		ldr	r3, [r4, #4]
 939 0044 002B     		cmp	r3, #0
 940 0046 02DB     		blt	.L47
 621:Middlewares/Third_Party/FreeRTOS/Source/CMSIS_RTOS/cmsis_os.c ****   }
 941              		.loc 1 621 11 is_stmt 1 view .LVU213
 621:Middlewares/Third_Party/FreeRTOS/Source/CMSIS_RTOS/cmsis_os.c ****   }
 942              		.loc 1 621 22 is_stmt 0 view .LVU214
 943 0048 0823     		movs	r3, #8
 944 004a 2360     		str	r3, [r4]
 945 004c E5E7     		b	.L43
 946              	.L47:
 619:Middlewares/Third_Party/FreeRTOS/Source/CMSIS_RTOS/cmsis_os.c ****     }
 947              		.loc 1 619 7 is_stmt 1 view .LVU215
 619:Middlewares/Third_Party/FreeRTOS/Source/CMSIS_RTOS/cmsis_os.c ****     }
 948              		.loc 1 619 18 is_stmt 0 view .LVU216
 949 004e 8623     		movs	r3, #134
 950 0050 2360     		str	r3, [r4]
 951 0052 E2E7     		b	.L43
 952              		.cfi_endproc
 953              	.LFE55:
 955              		.section	.text.osMutexCreate,"ax",%progbits
 956              		.align	1
 957              		.p2align 2,,3
 958              		.global	osMutexCreate
 959              		.syntax unified
 960              		.code	16
 961              		.thumb_func
 962              		.fpu softvfp
ARM GAS  /tmp/ccSFdtfu.s 			page 32


 964              	osMutexCreate:
 965              	.LVL54:
 966              	.LFB56:
 632:Middlewares/Third_Party/FreeRTOS/Source/CMSIS_RTOS/cmsis_os.c **** 
 633:Middlewares/Third_Party/FreeRTOS/Source/CMSIS_RTOS/cmsis_os.c **** /****************************  Mutex Management ********************************/
 634:Middlewares/Third_Party/FreeRTOS/Source/CMSIS_RTOS/cmsis_os.c **** /**
 635:Middlewares/Third_Party/FreeRTOS/Source/CMSIS_RTOS/cmsis_os.c **** * @brief  Create and Initialize a Mutex object
 636:Middlewares/Third_Party/FreeRTOS/Source/CMSIS_RTOS/cmsis_os.c **** * @param  mutex_def     mutex definition referenced with \ref osMutex.
 637:Middlewares/Third_Party/FreeRTOS/Source/CMSIS_RTOS/cmsis_os.c **** * @retval  mutex ID for reference by other functions or NULL in case of error.
 638:Middlewares/Third_Party/FreeRTOS/Source/CMSIS_RTOS/cmsis_os.c **** * @note   MUST REMAIN UNCHANGED: \b osMutexCreate shall be consistent in every CMSIS-RTOS.
 639:Middlewares/Third_Party/FreeRTOS/Source/CMSIS_RTOS/cmsis_os.c **** */
 640:Middlewares/Third_Party/FreeRTOS/Source/CMSIS_RTOS/cmsis_os.c **** osMutexId osMutexCreate (const osMutexDef_t *mutex_def)
 641:Middlewares/Third_Party/FreeRTOS/Source/CMSIS_RTOS/cmsis_os.c **** {
 967              		.loc 1 641 1 is_stmt 1 view -0
 968              		.cfi_startproc
 969              		@ args = 0, pretend = 0, frame = 0
 970              		@ frame_needed = 0, uses_anonymous_args = 0
 642:Middlewares/Third_Party/FreeRTOS/Source/CMSIS_RTOS/cmsis_os.c **** #if ( configUSE_MUTEXES == 1)
 643:Middlewares/Third_Party/FreeRTOS/Source/CMSIS_RTOS/cmsis_os.c **** 
 644:Middlewares/Third_Party/FreeRTOS/Source/CMSIS_RTOS/cmsis_os.c **** #if( configSUPPORT_STATIC_ALLOCATION == 1 ) && ( configSUPPORT_DYNAMIC_ALLOCATION == 1 )
 645:Middlewares/Third_Party/FreeRTOS/Source/CMSIS_RTOS/cmsis_os.c **** 
 646:Middlewares/Third_Party/FreeRTOS/Source/CMSIS_RTOS/cmsis_os.c ****   if (mutex_def->controlblock != NULL) {
 647:Middlewares/Third_Party/FreeRTOS/Source/CMSIS_RTOS/cmsis_os.c ****     return xSemaphoreCreateMutexStatic( mutex_def->controlblock );
 648:Middlewares/Third_Party/FreeRTOS/Source/CMSIS_RTOS/cmsis_os.c ****      }
 649:Middlewares/Third_Party/FreeRTOS/Source/CMSIS_RTOS/cmsis_os.c ****   else {
 650:Middlewares/Third_Party/FreeRTOS/Source/CMSIS_RTOS/cmsis_os.c ****     return xSemaphoreCreateMutex(); 
 651:Middlewares/Third_Party/FreeRTOS/Source/CMSIS_RTOS/cmsis_os.c ****   }
 652:Middlewares/Third_Party/FreeRTOS/Source/CMSIS_RTOS/cmsis_os.c **** #elif ( configSUPPORT_STATIC_ALLOCATION == 1 )
 653:Middlewares/Third_Party/FreeRTOS/Source/CMSIS_RTOS/cmsis_os.c ****   return xSemaphoreCreateMutexStatic( mutex_def->controlblock );
 654:Middlewares/Third_Party/FreeRTOS/Source/CMSIS_RTOS/cmsis_os.c **** #else  
 655:Middlewares/Third_Party/FreeRTOS/Source/CMSIS_RTOS/cmsis_os.c ****     return xSemaphoreCreateMutex(); 
 971              		.loc 1 655 5 view .LVU218
 641:Middlewares/Third_Party/FreeRTOS/Source/CMSIS_RTOS/cmsis_os.c **** #if ( configUSE_MUTEXES == 1)
 972              		.loc 1 641 1 is_stmt 0 view .LVU219
 973 0000 10B5     		push	{r4, lr}
 974              	.LCFI15:
 975              		.cfi_def_cfa_offset 8
 976              		.cfi_offset 4, -8
 977              		.cfi_offset 14, -4
 978              		.loc 1 655 12 view .LVU220
 979 0002 0120     		movs	r0, #1
 980              	.LVL55:
 981              		.loc 1 655 12 view .LVU221
 982 0004 FFF7FEFF 		bl	xQueueCreateMutex
 983              	.LVL56:
 656:Middlewares/Third_Party/FreeRTOS/Source/CMSIS_RTOS/cmsis_os.c **** #endif
 657:Middlewares/Third_Party/FreeRTOS/Source/CMSIS_RTOS/cmsis_os.c **** #else
 658:Middlewares/Third_Party/FreeRTOS/Source/CMSIS_RTOS/cmsis_os.c ****   return NULL;
 659:Middlewares/Third_Party/FreeRTOS/Source/CMSIS_RTOS/cmsis_os.c **** #endif
 660:Middlewares/Third_Party/FreeRTOS/Source/CMSIS_RTOS/cmsis_os.c **** }
 984              		.loc 1 660 1 view .LVU222
 985              		@ sp needed
 986 0008 10BD     		pop	{r4, pc}
 987              		.cfi_endproc
 988              	.LFE56:
 990 000a C046     		.section	.text.osMutexWait,"ax",%progbits
 991              		.align	1
ARM GAS  /tmp/ccSFdtfu.s 			page 33


 992              		.p2align 2,,3
 993              		.global	osMutexWait
 994              		.syntax unified
 995              		.code	16
 996              		.thumb_func
 997              		.fpu softvfp
 999              	osMutexWait:
 1000              	.LVL57:
 1001              	.LFB57:
 661:Middlewares/Third_Party/FreeRTOS/Source/CMSIS_RTOS/cmsis_os.c **** 
 662:Middlewares/Third_Party/FreeRTOS/Source/CMSIS_RTOS/cmsis_os.c **** /**
 663:Middlewares/Third_Party/FreeRTOS/Source/CMSIS_RTOS/cmsis_os.c **** * @brief Wait until a Mutex becomes available
 664:Middlewares/Third_Party/FreeRTOS/Source/CMSIS_RTOS/cmsis_os.c **** * @param mutex_id      mutex ID obtained by \ref osMutexCreate.
 665:Middlewares/Third_Party/FreeRTOS/Source/CMSIS_RTOS/cmsis_os.c **** * @param millisec      timeout value or 0 in case of no time-out.
 666:Middlewares/Third_Party/FreeRTOS/Source/CMSIS_RTOS/cmsis_os.c **** * @retval  status code that indicates the execution status of the function.
 667:Middlewares/Third_Party/FreeRTOS/Source/CMSIS_RTOS/cmsis_os.c **** * @note   MUST REMAIN UNCHANGED: \b osMutexWait shall be consistent in every CMSIS-RTOS.
 668:Middlewares/Third_Party/FreeRTOS/Source/CMSIS_RTOS/cmsis_os.c **** */
 669:Middlewares/Third_Party/FreeRTOS/Source/CMSIS_RTOS/cmsis_os.c **** osStatus osMutexWait (osMutexId mutex_id, uint32_t millisec)
 670:Middlewares/Third_Party/FreeRTOS/Source/CMSIS_RTOS/cmsis_os.c **** {
 1002              		.loc 1 670 1 is_stmt 1 view -0
 1003              		.cfi_startproc
 1004              		@ args = 0, pretend = 0, frame = 8
 1005              		@ frame_needed = 0, uses_anonymous_args = 0
 671:Middlewares/Third_Party/FreeRTOS/Source/CMSIS_RTOS/cmsis_os.c ****   TickType_t ticks;
 1006              		.loc 1 671 3 view .LVU224
 672:Middlewares/Third_Party/FreeRTOS/Source/CMSIS_RTOS/cmsis_os.c ****   portBASE_TYPE taskWoken = pdFALSE;  
 1007              		.loc 1 672 3 view .LVU225
 1008              		.loc 1 672 17 is_stmt 0 view .LVU226
 1009 0000 0023     		movs	r3, #0
 670:Middlewares/Third_Party/FreeRTOS/Source/CMSIS_RTOS/cmsis_os.c ****   TickType_t ticks;
 1010              		.loc 1 670 1 view .LVU227
 1011 0002 00B5     		push	{lr}
 1012              	.LCFI16:
 1013              		.cfi_def_cfa_offset 4
 1014              		.cfi_offset 14, -4
 1015 0004 83B0     		sub	sp, sp, #12
 1016              	.LCFI17:
 1017              		.cfi_def_cfa_offset 16
 1018              		.loc 1 672 17 view .LVU228
 1019 0006 0193     		str	r3, [sp, #4]
 673:Middlewares/Third_Party/FreeRTOS/Source/CMSIS_RTOS/cmsis_os.c ****   
 674:Middlewares/Third_Party/FreeRTOS/Source/CMSIS_RTOS/cmsis_os.c ****   
 675:Middlewares/Third_Party/FreeRTOS/Source/CMSIS_RTOS/cmsis_os.c ****   if (mutex_id == NULL) {
 1020              		.loc 1 675 3 is_stmt 1 view .LVU229
 1021              		.loc 1 675 6 is_stmt 0 view .LVU230
 1022 0008 0028     		cmp	r0, #0
 1023 000a 1DD0     		beq	.L55
 676:Middlewares/Third_Party/FreeRTOS/Source/CMSIS_RTOS/cmsis_os.c ****     return osErrorParameter;
 677:Middlewares/Third_Party/FreeRTOS/Source/CMSIS_RTOS/cmsis_os.c ****   }
 678:Middlewares/Third_Party/FreeRTOS/Source/CMSIS_RTOS/cmsis_os.c ****   
 679:Middlewares/Third_Party/FreeRTOS/Source/CMSIS_RTOS/cmsis_os.c ****   ticks = 0;
 1024              		.loc 1 679 3 is_stmt 1 view .LVU231
 1025              	.LVL58:
 680:Middlewares/Third_Party/FreeRTOS/Source/CMSIS_RTOS/cmsis_os.c ****   if (millisec == osWaitForever) {
 1026              		.loc 1 680 3 view .LVU232
 681:Middlewares/Third_Party/FreeRTOS/Source/CMSIS_RTOS/cmsis_os.c ****     ticks = portMAX_DELAY;
 682:Middlewares/Third_Party/FreeRTOS/Source/CMSIS_RTOS/cmsis_os.c ****   }
ARM GAS  /tmp/ccSFdtfu.s 			page 34


 683:Middlewares/Third_Party/FreeRTOS/Source/CMSIS_RTOS/cmsis_os.c ****   else if (millisec != 0) {
 684:Middlewares/Third_Party/FreeRTOS/Source/CMSIS_RTOS/cmsis_os.c ****     ticks = millisec / portTICK_PERIOD_MS;
 685:Middlewares/Third_Party/FreeRTOS/Source/CMSIS_RTOS/cmsis_os.c ****     if (ticks == 0) {
 686:Middlewares/Third_Party/FreeRTOS/Source/CMSIS_RTOS/cmsis_os.c ****       ticks = 1;
 687:Middlewares/Third_Party/FreeRTOS/Source/CMSIS_RTOS/cmsis_os.c ****     }
 688:Middlewares/Third_Party/FreeRTOS/Source/CMSIS_RTOS/cmsis_os.c ****   }
 689:Middlewares/Third_Party/FreeRTOS/Source/CMSIS_RTOS/cmsis_os.c ****   
 690:Middlewares/Third_Party/FreeRTOS/Source/CMSIS_RTOS/cmsis_os.c ****   if (inHandlerMode()) {
 1027              		.loc 1 690 3 view .LVU233
 1028              	.LBB136:
 1029              	.LBI136:
 173:Middlewares/Third_Party/FreeRTOS/Source/CMSIS_RTOS/cmsis_os.c **** {
 1030              		.loc 1 173 12 view .LVU234
 1031              	.LBE136:
 175:Middlewares/Third_Party/FreeRTOS/Source/CMSIS_RTOS/cmsis_os.c **** }
 1032              		.loc 1 175 3 view .LVU235
 1033              	.LBB139:
 1034              	.LBB137:
 1035              	.LBI137:
 105:Drivers/CMSIS/Include/cmsis_gcc.h **** {
 1036              		.loc 2 105 61 view .LVU236
 1037              	.LBB138:
 107:Drivers/CMSIS/Include/cmsis_gcc.h **** 
 1038              		.loc 2 107 3 view .LVU237
 109:Drivers/CMSIS/Include/cmsis_gcc.h ****   return(result);
 1039              		.loc 2 109 3 view .LVU238
 1040              		.syntax divided
 1041              	@ 109 "Drivers/CMSIS/Include/cmsis_gcc.h" 1
 1042 000c EFF30583 		MRS r3, ipsr
 1043              	@ 0 "" 2
 1044              	.LVL59:
 1045              		.loc 2 110 3 view .LVU239
 1046              		.loc 2 110 3 is_stmt 0 view .LVU240
 1047              		.thumb
 1048              		.syntax unified
 1049              	.LBE138:
 1050              	.LBE137:
 1051              	.LBE139:
 1052              		.loc 1 690 6 view .LVU241
 1053 0010 002B     		cmp	r3, #0
 1054 0012 0BD0     		beq	.L51
 691:Middlewares/Third_Party/FreeRTOS/Source/CMSIS_RTOS/cmsis_os.c ****     if (xSemaphoreTakeFromISR(mutex_id, &taskWoken) != pdTRUE) {
 1055              		.loc 1 691 5 is_stmt 1 view .LVU242
 1056              		.loc 1 691 9 is_stmt 0 view .LVU243
 1057 0014 01AA     		add	r2, sp, #4
 1058 0016 0021     		movs	r1, #0
 1059              	.LVL60:
 1060              		.loc 1 691 9 view .LVU244
 1061 0018 FFF7FEFF 		bl	xQueueReceiveFromISR
 1062              	.LVL61:
 1063              		.loc 1 691 8 view .LVU245
 1064 001c 0128     		cmp	r0, #1
 1065 001e 0CD1     		bne	.L52
 692:Middlewares/Third_Party/FreeRTOS/Source/CMSIS_RTOS/cmsis_os.c ****       return osErrorOS;
 693:Middlewares/Third_Party/FreeRTOS/Source/CMSIS_RTOS/cmsis_os.c ****     }
 694:Middlewares/Third_Party/FreeRTOS/Source/CMSIS_RTOS/cmsis_os.c **** 	portEND_SWITCHING_ISR(taskWoken);
 1066              		.loc 1 694 2 is_stmt 1 view .LVU246
ARM GAS  /tmp/ccSFdtfu.s 			page 35


 1067 0020 019B     		ldr	r3, [sp, #4]
 1068 0022 002B     		cmp	r3, #0
 1069 0024 0BD1     		bne	.L53
 1070              	.L59:
 695:Middlewares/Third_Party/FreeRTOS/Source/CMSIS_RTOS/cmsis_os.c ****   } 
 696:Middlewares/Third_Party/FreeRTOS/Source/CMSIS_RTOS/cmsis_os.c ****   else if (xSemaphoreTake(mutex_id, ticks) != pdTRUE) {
 697:Middlewares/Third_Party/FreeRTOS/Source/CMSIS_RTOS/cmsis_os.c ****     return osErrorOS;
 698:Middlewares/Third_Party/FreeRTOS/Source/CMSIS_RTOS/cmsis_os.c ****   }
 699:Middlewares/Third_Party/FreeRTOS/Source/CMSIS_RTOS/cmsis_os.c ****   
 700:Middlewares/Third_Party/FreeRTOS/Source/CMSIS_RTOS/cmsis_os.c ****   return osOK;
 1071              		.loc 1 700 10 is_stmt 0 discriminator 1 view .LVU247
 1072 0026 0020     		movs	r0, #0
 1073              	.LVL62:
 1074              	.L49:
 701:Middlewares/Third_Party/FreeRTOS/Source/CMSIS_RTOS/cmsis_os.c **** }
 1075              		.loc 1 701 1 view .LVU248
 1076 0028 03B0     		add	sp, sp, #12
 1077              		@ sp needed
 1078 002a 00BD     		pop	{pc}
 1079              	.LVL63:
 1080              	.L51:
 696:Middlewares/Third_Party/FreeRTOS/Source/CMSIS_RTOS/cmsis_os.c ****     return osErrorOS;
 1081              		.loc 1 696 8 is_stmt 1 view .LVU249
 696:Middlewares/Third_Party/FreeRTOS/Source/CMSIS_RTOS/cmsis_os.c ****     return osErrorOS;
 1082              		.loc 1 696 12 is_stmt 0 view .LVU250
 1083 002c 0A00     		movs	r2, r1
 1084 002e 0023     		movs	r3, #0
 1085 0030 0021     		movs	r1, #0
 1086              	.LVL64:
 696:Middlewares/Third_Party/FreeRTOS/Source/CMSIS_RTOS/cmsis_os.c ****     return osErrorOS;
 1087              		.loc 1 696 12 view .LVU251
 1088 0032 FFF7FEFF 		bl	xQueueGenericReceive
 1089              	.LVL65:
 696:Middlewares/Third_Party/FreeRTOS/Source/CMSIS_RTOS/cmsis_os.c ****     return osErrorOS;
 1090              		.loc 1 696 11 view .LVU252
 1091 0036 0128     		cmp	r0, #1
 1092 0038 F5D0     		beq	.L59
 1093              	.L52:
 697:Middlewares/Third_Party/FreeRTOS/Source/CMSIS_RTOS/cmsis_os.c ****   }
 1094              		.loc 1 697 5 is_stmt 1 view .LVU253
 697:Middlewares/Third_Party/FreeRTOS/Source/CMSIS_RTOS/cmsis_os.c ****   }
 1095              		.loc 1 697 12 is_stmt 0 view .LVU254
 1096 003a FF20     		movs	r0, #255
 1097 003c F4E7     		b	.L49
 1098              	.L53:
 694:Middlewares/Third_Party/FreeRTOS/Source/CMSIS_RTOS/cmsis_os.c ****   } 
 1099              		.loc 1 694 2 is_stmt 1 discriminator 1 view .LVU255
 1100 003e 8022     		movs	r2, #128
 1101 0040 024B     		ldr	r3, .L60
 1102 0042 5205     		lsls	r2, r2, #21
 1103 0044 1A60     		str	r2, [r3]
 1104 0046 EEE7     		b	.L59
 1105              	.LVL66:
 1106              	.L55:
 676:Middlewares/Third_Party/FreeRTOS/Source/CMSIS_RTOS/cmsis_os.c ****   }
 1107              		.loc 1 676 12 is_stmt 0 view .LVU256
 1108 0048 8020     		movs	r0, #128
ARM GAS  /tmp/ccSFdtfu.s 			page 36


 1109              	.LVL67:
 676:Middlewares/Third_Party/FreeRTOS/Source/CMSIS_RTOS/cmsis_os.c ****   }
 1110              		.loc 1 676 12 view .LVU257
 1111 004a EDE7     		b	.L49
 1112              	.L61:
 1113              		.align	2
 1114              	.L60:
 1115 004c 04ED00E0 		.word	-536810236
 1116              		.cfi_endproc
 1117              	.LFE57:
 1119              		.section	.text.osMutexRelease,"ax",%progbits
 1120              		.align	1
 1121              		.p2align 2,,3
 1122              		.global	osMutexRelease
 1123              		.syntax unified
 1124              		.code	16
 1125              		.thumb_func
 1126              		.fpu softvfp
 1128              	osMutexRelease:
 1129              	.LVL68:
 1130              	.LFB58:
 702:Middlewares/Third_Party/FreeRTOS/Source/CMSIS_RTOS/cmsis_os.c **** 
 703:Middlewares/Third_Party/FreeRTOS/Source/CMSIS_RTOS/cmsis_os.c **** /**
 704:Middlewares/Third_Party/FreeRTOS/Source/CMSIS_RTOS/cmsis_os.c **** * @brief Release a Mutex that was obtained by \ref osMutexWait
 705:Middlewares/Third_Party/FreeRTOS/Source/CMSIS_RTOS/cmsis_os.c **** * @param mutex_id      mutex ID obtained by \ref osMutexCreate.
 706:Middlewares/Third_Party/FreeRTOS/Source/CMSIS_RTOS/cmsis_os.c **** * @retval  status code that indicates the execution status of the function.
 707:Middlewares/Third_Party/FreeRTOS/Source/CMSIS_RTOS/cmsis_os.c **** * @note   MUST REMAIN UNCHANGED: \b osMutexRelease shall be consistent in every CMSIS-RTOS.
 708:Middlewares/Third_Party/FreeRTOS/Source/CMSIS_RTOS/cmsis_os.c **** */
 709:Middlewares/Third_Party/FreeRTOS/Source/CMSIS_RTOS/cmsis_os.c **** osStatus osMutexRelease (osMutexId mutex_id)
 710:Middlewares/Third_Party/FreeRTOS/Source/CMSIS_RTOS/cmsis_os.c **** {
 1131              		.loc 1 710 1 is_stmt 1 view -0
 1132              		.cfi_startproc
 1133              		@ args = 0, pretend = 0, frame = 8
 1134              		@ frame_needed = 0, uses_anonymous_args = 0
 711:Middlewares/Third_Party/FreeRTOS/Source/CMSIS_RTOS/cmsis_os.c ****   osStatus result = osOK;
 1135              		.loc 1 711 3 view .LVU259
 712:Middlewares/Third_Party/FreeRTOS/Source/CMSIS_RTOS/cmsis_os.c ****   portBASE_TYPE taskWoken = pdFALSE;
 1136              		.loc 1 712 3 view .LVU260
 1137              		.loc 1 712 17 is_stmt 0 view .LVU261
 1138 0000 0023     		movs	r3, #0
 710:Middlewares/Third_Party/FreeRTOS/Source/CMSIS_RTOS/cmsis_os.c ****   osStatus result = osOK;
 1139              		.loc 1 710 1 view .LVU262
 1140 0002 00B5     		push	{lr}
 1141              	.LCFI18:
 1142              		.cfi_def_cfa_offset 4
 1143              		.cfi_offset 14, -4
 1144 0004 83B0     		sub	sp, sp, #12
 1145              	.LCFI19:
 1146              		.cfi_def_cfa_offset 16
 1147              		.loc 1 712 17 view .LVU263
 1148 0006 0193     		str	r3, [sp, #4]
 713:Middlewares/Third_Party/FreeRTOS/Source/CMSIS_RTOS/cmsis_os.c ****   
 714:Middlewares/Third_Party/FreeRTOS/Source/CMSIS_RTOS/cmsis_os.c ****   if (inHandlerMode()) {
 1149              		.loc 1 714 3 is_stmt 1 view .LVU264
 1150              	.LBB143:
 1151              	.LBI143:
 173:Middlewares/Third_Party/FreeRTOS/Source/CMSIS_RTOS/cmsis_os.c **** {
ARM GAS  /tmp/ccSFdtfu.s 			page 37


 1152              		.loc 1 173 12 view .LVU265
 1153              	.LBE143:
 175:Middlewares/Third_Party/FreeRTOS/Source/CMSIS_RTOS/cmsis_os.c **** }
 1154              		.loc 1 175 3 view .LVU266
 1155              	.LBB146:
 1156              	.LBB144:
 1157              	.LBI144:
 105:Drivers/CMSIS/Include/cmsis_gcc.h **** {
 1158              		.loc 2 105 61 view .LVU267
 1159              	.LBB145:
 107:Drivers/CMSIS/Include/cmsis_gcc.h **** 
 1160              		.loc 2 107 3 view .LVU268
 109:Drivers/CMSIS/Include/cmsis_gcc.h ****   return(result);
 1161              		.loc 2 109 3 view .LVU269
 1162              		.syntax divided
 1163              	@ 109 "Drivers/CMSIS/Include/cmsis_gcc.h" 1
 1164 0008 EFF30583 		MRS r3, ipsr
 1165              	@ 0 "" 2
 1166              	.LVL69:
 1167              		.loc 2 110 3 view .LVU270
 1168              		.loc 2 110 3 is_stmt 0 view .LVU271
 1169              		.thumb
 1170              		.syntax unified
 1171              	.LBE145:
 1172              	.LBE144:
 1173              	.LBE146:
 1174              		.loc 1 714 6 view .LVU272
 1175 000c 002B     		cmp	r3, #0
 1176 000e 0DD0     		beq	.L63
 715:Middlewares/Third_Party/FreeRTOS/Source/CMSIS_RTOS/cmsis_os.c ****     if (xSemaphoreGiveFromISR(mutex_id, &taskWoken) != pdTRUE) {
 1177              		.loc 1 715 5 is_stmt 1 view .LVU273
 1178              		.loc 1 715 9 is_stmt 0 view .LVU274
 1179 0010 01A9     		add	r1, sp, #4
 1180 0012 FFF7FEFF 		bl	xQueueGiveFromISR
 1181              	.LVL70:
 1182              		.loc 1 715 8 view .LVU275
 1183 0016 0128     		cmp	r0, #1
 1184 0018 0FD1     		bne	.L64
 716:Middlewares/Third_Party/FreeRTOS/Source/CMSIS_RTOS/cmsis_os.c ****       return osErrorOS;
 717:Middlewares/Third_Party/FreeRTOS/Source/CMSIS_RTOS/cmsis_os.c ****     }
 718:Middlewares/Third_Party/FreeRTOS/Source/CMSIS_RTOS/cmsis_os.c ****     portEND_SWITCHING_ISR(taskWoken);
 1185              		.loc 1 718 5 is_stmt 1 view .LVU276
 1186 001a 019B     		ldr	r3, [sp, #4]
 1187 001c 002B     		cmp	r3, #0
 1188 001e 03D0     		beq	.L71
 1189              		.loc 1 718 5 discriminator 1 view .LVU277
 1190 0020 8022     		movs	r2, #128
 1191 0022 074B     		ldr	r3, .L72
 1192 0024 5205     		lsls	r2, r2, #21
 1193 0026 1A60     		str	r2, [r3]
 1194              	.L71:
 711:Middlewares/Third_Party/FreeRTOS/Source/CMSIS_RTOS/cmsis_os.c ****   portBASE_TYPE taskWoken = pdFALSE;
 1195              		.loc 1 711 12 is_stmt 0 discriminator 1 view .LVU278
 1196 0028 0020     		movs	r0, #0
 1197 002a 07E0     		b	.L62
 1198              	.LVL71:
 1199              	.L63:
ARM GAS  /tmp/ccSFdtfu.s 			page 38


 719:Middlewares/Third_Party/FreeRTOS/Source/CMSIS_RTOS/cmsis_os.c ****   }
 720:Middlewares/Third_Party/FreeRTOS/Source/CMSIS_RTOS/cmsis_os.c ****   else if (xSemaphoreGive(mutex_id) != pdTRUE) 
 1200              		.loc 1 720 8 is_stmt 1 view .LVU279
 1201              		.loc 1 720 12 is_stmt 0 view .LVU280
 1202 002c 0023     		movs	r3, #0
 1203 002e 0022     		movs	r2, #0
 1204 0030 0021     		movs	r1, #0
 1205 0032 FFF7FEFF 		bl	xQueueGenericSend
 1206              	.LVL72:
 1207              		.loc 1 720 11 view .LVU281
 1208 0036 0128     		cmp	r0, #1
 1209 0038 F6D0     		beq	.L71
 1210              	.L64:
 721:Middlewares/Third_Party/FreeRTOS/Source/CMSIS_RTOS/cmsis_os.c ****   {
 722:Middlewares/Third_Party/FreeRTOS/Source/CMSIS_RTOS/cmsis_os.c ****     result = osErrorOS;
 1211              		.loc 1 722 5 is_stmt 1 view .LVU282
 1212              	.LVL73:
 1213              		.loc 1 722 12 is_stmt 0 view .LVU283
 1214 003a FF20     		movs	r0, #255
 1215              	.LVL74:
 1216              	.L62:
 723:Middlewares/Third_Party/FreeRTOS/Source/CMSIS_RTOS/cmsis_os.c ****   }
 724:Middlewares/Third_Party/FreeRTOS/Source/CMSIS_RTOS/cmsis_os.c ****   return result;
 725:Middlewares/Third_Party/FreeRTOS/Source/CMSIS_RTOS/cmsis_os.c **** }
 1217              		.loc 1 725 1 view .LVU284
 1218 003c 03B0     		add	sp, sp, #12
 1219              		@ sp needed
 1220 003e 00BD     		pop	{pc}
 1221              	.L73:
 1222              		.align	2
 1223              	.L72:
 1224 0040 04ED00E0 		.word	-536810236
 1225              		.cfi_endproc
 1226              	.LFE58:
 1228              		.section	.text.osMutexDelete,"ax",%progbits
 1229              		.align	1
 1230              		.p2align 2,,3
 1231              		.global	osMutexDelete
 1232              		.syntax unified
 1233              		.code	16
 1234              		.thumb_func
 1235              		.fpu softvfp
 1237              	osMutexDelete:
 1238              	.LVL75:
 1239              	.LFB59:
 726:Middlewares/Third_Party/FreeRTOS/Source/CMSIS_RTOS/cmsis_os.c **** 
 727:Middlewares/Third_Party/FreeRTOS/Source/CMSIS_RTOS/cmsis_os.c **** /**
 728:Middlewares/Third_Party/FreeRTOS/Source/CMSIS_RTOS/cmsis_os.c **** * @brief Delete a Mutex
 729:Middlewares/Third_Party/FreeRTOS/Source/CMSIS_RTOS/cmsis_os.c **** * @param mutex_id  mutex ID obtained by \ref osMutexCreate.
 730:Middlewares/Third_Party/FreeRTOS/Source/CMSIS_RTOS/cmsis_os.c **** * @retval  status code that indicates the execution status of the function.
 731:Middlewares/Third_Party/FreeRTOS/Source/CMSIS_RTOS/cmsis_os.c **** * @note   MUST REMAIN UNCHANGED: \b osMutexDelete shall be consistent in every CMSIS-RTOS.
 732:Middlewares/Third_Party/FreeRTOS/Source/CMSIS_RTOS/cmsis_os.c **** */
 733:Middlewares/Third_Party/FreeRTOS/Source/CMSIS_RTOS/cmsis_os.c **** osStatus osMutexDelete (osMutexId mutex_id)
 734:Middlewares/Third_Party/FreeRTOS/Source/CMSIS_RTOS/cmsis_os.c **** {
 1240              		.loc 1 734 1 is_stmt 1 view -0
 1241              		.cfi_startproc
 1242              		@ args = 0, pretend = 0, frame = 0
ARM GAS  /tmp/ccSFdtfu.s 			page 39


 1243              		@ frame_needed = 0, uses_anonymous_args = 0
 735:Middlewares/Third_Party/FreeRTOS/Source/CMSIS_RTOS/cmsis_os.c ****   if (inHandlerMode()) {
 1244              		.loc 1 735 3 view .LVU286
 1245              	.LBB150:
 1246              	.LBI150:
 173:Middlewares/Third_Party/FreeRTOS/Source/CMSIS_RTOS/cmsis_os.c **** {
 1247              		.loc 1 173 12 view .LVU287
 1248              	.LBE150:
 175:Middlewares/Third_Party/FreeRTOS/Source/CMSIS_RTOS/cmsis_os.c **** }
 1249              		.loc 1 175 3 view .LVU288
 1250              	.LBB155:
 1251              	.LBB151:
 1252              	.LBI151:
 105:Drivers/CMSIS/Include/cmsis_gcc.h **** {
 1253              		.loc 2 105 61 view .LVU289
 1254              	.LBB152:
 107:Drivers/CMSIS/Include/cmsis_gcc.h **** 
 1255              		.loc 2 107 3 view .LVU290
 109:Drivers/CMSIS/Include/cmsis_gcc.h ****   return(result);
 1256              		.loc 2 109 3 view .LVU291
 1257              	.LBE152:
 1258              	.LBE151:
 1259              	.LBE155:
 734:Middlewares/Third_Party/FreeRTOS/Source/CMSIS_RTOS/cmsis_os.c ****   if (inHandlerMode()) {
 1260              		.loc 1 734 1 is_stmt 0 view .LVU292
 1261 0000 10B5     		push	{r4, lr}
 1262              	.LCFI20:
 1263              		.cfi_def_cfa_offset 8
 1264              		.cfi_offset 4, -8
 1265              		.cfi_offset 14, -4
 1266              	.LBB156:
 1267              	.LBB154:
 1268              	.LBB153:
 109:Drivers/CMSIS/Include/cmsis_gcc.h ****   return(result);
 1269              		.loc 2 109 3 view .LVU293
 1270              		.syntax divided
 1271              	@ 109 "Drivers/CMSIS/Include/cmsis_gcc.h" 1
 1272 0002 EFF30583 		MRS r3, ipsr
 1273              	@ 0 "" 2
 1274              	.LVL76:
 1275              		.loc 2 110 3 is_stmt 1 view .LVU294
 1276              		.loc 2 110 3 is_stmt 0 view .LVU295
 1277              		.thumb
 1278              		.syntax unified
 1279              	.LBE153:
 1280              	.LBE154:
 1281              	.LBE156:
 1282              		.loc 1 735 6 view .LVU296
 1283 0006 002B     		cmp	r3, #0
 1284 0008 03D1     		bne	.L76
 736:Middlewares/Third_Party/FreeRTOS/Source/CMSIS_RTOS/cmsis_os.c ****     return osErrorISR;
 737:Middlewares/Third_Party/FreeRTOS/Source/CMSIS_RTOS/cmsis_os.c ****   }
 738:Middlewares/Third_Party/FreeRTOS/Source/CMSIS_RTOS/cmsis_os.c **** 
 739:Middlewares/Third_Party/FreeRTOS/Source/CMSIS_RTOS/cmsis_os.c ****   vQueueDelete(mutex_id);
 1285              		.loc 1 739 3 is_stmt 1 view .LVU297
 1286 000a FFF7FEFF 		bl	vQueueDelete
 1287              	.LVL77:
ARM GAS  /tmp/ccSFdtfu.s 			page 40


 740:Middlewares/Third_Party/FreeRTOS/Source/CMSIS_RTOS/cmsis_os.c **** 
 741:Middlewares/Third_Party/FreeRTOS/Source/CMSIS_RTOS/cmsis_os.c ****   return osOK;
 1288              		.loc 1 741 3 view .LVU298
 1289              		.loc 1 741 10 is_stmt 0 view .LVU299
 1290 000e 0020     		movs	r0, #0
 1291              	.L74:
 742:Middlewares/Third_Party/FreeRTOS/Source/CMSIS_RTOS/cmsis_os.c **** }
 1292              		.loc 1 742 1 view .LVU300
 1293              		@ sp needed
 1294 0010 10BD     		pop	{r4, pc}
 1295              	.LVL78:
 1296              	.L76:
 736:Middlewares/Third_Party/FreeRTOS/Source/CMSIS_RTOS/cmsis_os.c ****     return osErrorISR;
 1297              		.loc 1 736 12 view .LVU301
 1298 0012 8220     		movs	r0, #130
 1299              	.LVL79:
 736:Middlewares/Third_Party/FreeRTOS/Source/CMSIS_RTOS/cmsis_os.c ****     return osErrorISR;
 1300              		.loc 1 736 12 view .LVU302
 1301 0014 FCE7     		b	.L74
 1302              		.cfi_endproc
 1303              	.LFE59:
 1305 0016 C046     		.section	.text.osSemaphoreCreate,"ax",%progbits
 1306              		.align	1
 1307              		.p2align 2,,3
 1308              		.global	osSemaphoreCreate
 1309              		.syntax unified
 1310              		.code	16
 1311              		.thumb_func
 1312              		.fpu softvfp
 1314              	osSemaphoreCreate:
 1315              	.LVL80:
 1316              	.LFB60:
 743:Middlewares/Third_Party/FreeRTOS/Source/CMSIS_RTOS/cmsis_os.c **** 
 744:Middlewares/Third_Party/FreeRTOS/Source/CMSIS_RTOS/cmsis_os.c **** /********************  Semaphore Management Functions **************************/
 745:Middlewares/Third_Party/FreeRTOS/Source/CMSIS_RTOS/cmsis_os.c **** 
 746:Middlewares/Third_Party/FreeRTOS/Source/CMSIS_RTOS/cmsis_os.c **** #if (defined (osFeature_Semaphore)  &&  (osFeature_Semaphore != 0))
 747:Middlewares/Third_Party/FreeRTOS/Source/CMSIS_RTOS/cmsis_os.c **** 
 748:Middlewares/Third_Party/FreeRTOS/Source/CMSIS_RTOS/cmsis_os.c **** /**
 749:Middlewares/Third_Party/FreeRTOS/Source/CMSIS_RTOS/cmsis_os.c **** * @brief Create and Initialize a Semaphore object used for managing resources
 750:Middlewares/Third_Party/FreeRTOS/Source/CMSIS_RTOS/cmsis_os.c **** * @param semaphore_def semaphore definition referenced with \ref osSemaphore.
 751:Middlewares/Third_Party/FreeRTOS/Source/CMSIS_RTOS/cmsis_os.c **** * @param count         number of available resources.
 752:Middlewares/Third_Party/FreeRTOS/Source/CMSIS_RTOS/cmsis_os.c **** * @retval  semaphore ID for reference by other functions or NULL in case of error.
 753:Middlewares/Third_Party/FreeRTOS/Source/CMSIS_RTOS/cmsis_os.c **** * @note   MUST REMAIN UNCHANGED: \b osSemaphoreCreate shall be consistent in every CMSIS-RTOS.
 754:Middlewares/Third_Party/FreeRTOS/Source/CMSIS_RTOS/cmsis_os.c **** */
 755:Middlewares/Third_Party/FreeRTOS/Source/CMSIS_RTOS/cmsis_os.c **** osSemaphoreId osSemaphoreCreate (const osSemaphoreDef_t *semaphore_def, int32_t count)
 756:Middlewares/Third_Party/FreeRTOS/Source/CMSIS_RTOS/cmsis_os.c **** { 
 1317              		.loc 1 756 1 is_stmt 1 view -0
 1318              		.cfi_startproc
 1319              		@ args = 0, pretend = 0, frame = 0
 1320              		@ frame_needed = 0, uses_anonymous_args = 0
 757:Middlewares/Third_Party/FreeRTOS/Source/CMSIS_RTOS/cmsis_os.c **** #if( configSUPPORT_STATIC_ALLOCATION == 1 ) && ( configSUPPORT_DYNAMIC_ALLOCATION == 1 )
 758:Middlewares/Third_Party/FreeRTOS/Source/CMSIS_RTOS/cmsis_os.c **** 
 759:Middlewares/Third_Party/FreeRTOS/Source/CMSIS_RTOS/cmsis_os.c ****   osSemaphoreId sema;
 760:Middlewares/Third_Party/FreeRTOS/Source/CMSIS_RTOS/cmsis_os.c ****   
 761:Middlewares/Third_Party/FreeRTOS/Source/CMSIS_RTOS/cmsis_os.c ****   if (semaphore_def->controlblock != NULL){
 762:Middlewares/Third_Party/FreeRTOS/Source/CMSIS_RTOS/cmsis_os.c ****     if (count == 1) {
 763:Middlewares/Third_Party/FreeRTOS/Source/CMSIS_RTOS/cmsis_os.c ****       return xSemaphoreCreateBinaryStatic( semaphore_def->controlblock );
ARM GAS  /tmp/ccSFdtfu.s 			page 41


 764:Middlewares/Third_Party/FreeRTOS/Source/CMSIS_RTOS/cmsis_os.c ****     }
 765:Middlewares/Third_Party/FreeRTOS/Source/CMSIS_RTOS/cmsis_os.c ****     else {
 766:Middlewares/Third_Party/FreeRTOS/Source/CMSIS_RTOS/cmsis_os.c **** #if (configUSE_COUNTING_SEMAPHORES == 1 )
 767:Middlewares/Third_Party/FreeRTOS/Source/CMSIS_RTOS/cmsis_os.c ****       return xSemaphoreCreateCountingStatic( count, count, semaphore_def->controlblock );
 768:Middlewares/Third_Party/FreeRTOS/Source/CMSIS_RTOS/cmsis_os.c **** #else
 769:Middlewares/Third_Party/FreeRTOS/Source/CMSIS_RTOS/cmsis_os.c ****       return NULL;
 770:Middlewares/Third_Party/FreeRTOS/Source/CMSIS_RTOS/cmsis_os.c **** #endif
 771:Middlewares/Third_Party/FreeRTOS/Source/CMSIS_RTOS/cmsis_os.c ****     }
 772:Middlewares/Third_Party/FreeRTOS/Source/CMSIS_RTOS/cmsis_os.c ****   }
 773:Middlewares/Third_Party/FreeRTOS/Source/CMSIS_RTOS/cmsis_os.c ****   else {
 774:Middlewares/Third_Party/FreeRTOS/Source/CMSIS_RTOS/cmsis_os.c ****     if (count == 1) {
 775:Middlewares/Third_Party/FreeRTOS/Source/CMSIS_RTOS/cmsis_os.c ****       vSemaphoreCreateBinary(sema);
 776:Middlewares/Third_Party/FreeRTOS/Source/CMSIS_RTOS/cmsis_os.c ****       return sema;
 777:Middlewares/Third_Party/FreeRTOS/Source/CMSIS_RTOS/cmsis_os.c ****     }
 778:Middlewares/Third_Party/FreeRTOS/Source/CMSIS_RTOS/cmsis_os.c ****     else {
 779:Middlewares/Third_Party/FreeRTOS/Source/CMSIS_RTOS/cmsis_os.c **** #if (configUSE_COUNTING_SEMAPHORES == 1 )	
 780:Middlewares/Third_Party/FreeRTOS/Source/CMSIS_RTOS/cmsis_os.c ****       return xSemaphoreCreateCounting(count, count);
 781:Middlewares/Third_Party/FreeRTOS/Source/CMSIS_RTOS/cmsis_os.c **** #else
 782:Middlewares/Third_Party/FreeRTOS/Source/CMSIS_RTOS/cmsis_os.c ****       return NULL;
 783:Middlewares/Third_Party/FreeRTOS/Source/CMSIS_RTOS/cmsis_os.c **** #endif    
 784:Middlewares/Third_Party/FreeRTOS/Source/CMSIS_RTOS/cmsis_os.c ****     }
 785:Middlewares/Third_Party/FreeRTOS/Source/CMSIS_RTOS/cmsis_os.c ****   }
 786:Middlewares/Third_Party/FreeRTOS/Source/CMSIS_RTOS/cmsis_os.c **** #elif ( configSUPPORT_STATIC_ALLOCATION == 1 ) // configSUPPORT_DYNAMIC_ALLOCATION == 0
 787:Middlewares/Third_Party/FreeRTOS/Source/CMSIS_RTOS/cmsis_os.c ****   if(count == 1) {
 788:Middlewares/Third_Party/FreeRTOS/Source/CMSIS_RTOS/cmsis_os.c ****     return xSemaphoreCreateBinaryStatic( semaphore_def->controlblock );
 789:Middlewares/Third_Party/FreeRTOS/Source/CMSIS_RTOS/cmsis_os.c ****   }
 790:Middlewares/Third_Party/FreeRTOS/Source/CMSIS_RTOS/cmsis_os.c ****   else
 791:Middlewares/Third_Party/FreeRTOS/Source/CMSIS_RTOS/cmsis_os.c ****   {
 792:Middlewares/Third_Party/FreeRTOS/Source/CMSIS_RTOS/cmsis_os.c **** #if (configUSE_COUNTING_SEMAPHORES == 1 )
 793:Middlewares/Third_Party/FreeRTOS/Source/CMSIS_RTOS/cmsis_os.c ****       return xSemaphoreCreateCountingStatic( count, count, semaphore_def->controlblock );
 794:Middlewares/Third_Party/FreeRTOS/Source/CMSIS_RTOS/cmsis_os.c **** #else
 795:Middlewares/Third_Party/FreeRTOS/Source/CMSIS_RTOS/cmsis_os.c ****       return NULL;
 796:Middlewares/Third_Party/FreeRTOS/Source/CMSIS_RTOS/cmsis_os.c **** #endif    
 797:Middlewares/Third_Party/FreeRTOS/Source/CMSIS_RTOS/cmsis_os.c ****   }
 798:Middlewares/Third_Party/FreeRTOS/Source/CMSIS_RTOS/cmsis_os.c **** #else  // configSUPPORT_STATIC_ALLOCATION == 0  && configSUPPORT_DYNAMIC_ALLOCATION == 1
 799:Middlewares/Third_Party/FreeRTOS/Source/CMSIS_RTOS/cmsis_os.c ****   osSemaphoreId sema;
 1321              		.loc 1 799 3 view .LVU304
 800:Middlewares/Third_Party/FreeRTOS/Source/CMSIS_RTOS/cmsis_os.c ****  
 801:Middlewares/Third_Party/FreeRTOS/Source/CMSIS_RTOS/cmsis_os.c ****   if (count == 1) {
 1322              		.loc 1 801 3 view .LVU305
 756:Middlewares/Third_Party/FreeRTOS/Source/CMSIS_RTOS/cmsis_os.c **** #if( configSUPPORT_STATIC_ALLOCATION == 1 ) && ( configSUPPORT_DYNAMIC_ALLOCATION == 1 )
 1323              		.loc 1 756 1 is_stmt 0 view .LVU306
 1324 0000 10B5     		push	{r4, lr}
 1325              	.LCFI21:
 1326              		.cfi_def_cfa_offset 8
 1327              		.cfi_offset 4, -8
 1328              		.cfi_offset 14, -4
 802:Middlewares/Third_Party/FreeRTOS/Source/CMSIS_RTOS/cmsis_os.c ****     vSemaphoreCreateBinary(sema);
 803:Middlewares/Third_Party/FreeRTOS/Source/CMSIS_RTOS/cmsis_os.c ****     return sema;
 804:Middlewares/Third_Party/FreeRTOS/Source/CMSIS_RTOS/cmsis_os.c ****   }
 805:Middlewares/Third_Party/FreeRTOS/Source/CMSIS_RTOS/cmsis_os.c ****   else {
 806:Middlewares/Third_Party/FreeRTOS/Source/CMSIS_RTOS/cmsis_os.c **** #if (configUSE_COUNTING_SEMAPHORES == 1 )	
 807:Middlewares/Third_Party/FreeRTOS/Source/CMSIS_RTOS/cmsis_os.c ****     return xSemaphoreCreateCounting(count, count);
 808:Middlewares/Third_Party/FreeRTOS/Source/CMSIS_RTOS/cmsis_os.c **** #else
 809:Middlewares/Third_Party/FreeRTOS/Source/CMSIS_RTOS/cmsis_os.c ****     return NULL;
 1329              		.loc 1 809 12 view .LVU307
 1330 0002 0024     		movs	r4, #0
ARM GAS  /tmp/ccSFdtfu.s 			page 42


 801:Middlewares/Third_Party/FreeRTOS/Source/CMSIS_RTOS/cmsis_os.c ****     vSemaphoreCreateBinary(sema);
 1331              		.loc 1 801 6 view .LVU308
 1332 0004 0129     		cmp	r1, #1
 1333 0006 01D0     		beq	.L83
 1334              	.LVL81:
 1335              	.L77:
 810:Middlewares/Third_Party/FreeRTOS/Source/CMSIS_RTOS/cmsis_os.c **** #endif
 811:Middlewares/Third_Party/FreeRTOS/Source/CMSIS_RTOS/cmsis_os.c ****   }
 812:Middlewares/Third_Party/FreeRTOS/Source/CMSIS_RTOS/cmsis_os.c **** #endif
 813:Middlewares/Third_Party/FreeRTOS/Source/CMSIS_RTOS/cmsis_os.c **** }
 1336              		.loc 1 813 1 view .LVU309
 1337 0008 2000     		movs	r0, r4
 1338              		@ sp needed
 1339 000a 10BD     		pop	{r4, pc}
 1340              	.LVL82:
 1341              	.L83:
 802:Middlewares/Third_Party/FreeRTOS/Source/CMSIS_RTOS/cmsis_os.c ****     return sema;
 1342              		.loc 1 802 5 is_stmt 1 view .LVU310
 1343 000c 0322     		movs	r2, #3
 1344 000e 0021     		movs	r1, #0
 1345              	.LVL83:
 802:Middlewares/Third_Party/FreeRTOS/Source/CMSIS_RTOS/cmsis_os.c ****     return sema;
 1346              		.loc 1 802 5 is_stmt 0 view .LVU311
 1347 0010 0120     		movs	r0, #1
 1348              	.LVL84:
 802:Middlewares/Third_Party/FreeRTOS/Source/CMSIS_RTOS/cmsis_os.c ****     return sema;
 1349              		.loc 1 802 5 view .LVU312
 1350 0012 FFF7FEFF 		bl	xQueueGenericCreate
 1351              	.LVL85:
 1352 0016 041E     		subs	r4, r0, #0
 1353              	.LVL86:
 802:Middlewares/Third_Party/FreeRTOS/Source/CMSIS_RTOS/cmsis_os.c ****     return sema;
 1354              		.loc 1 802 5 is_stmt 1 view .LVU313
 1355 0018 F6D0     		beq	.L77
 802:Middlewares/Third_Party/FreeRTOS/Source/CMSIS_RTOS/cmsis_os.c ****     return sema;
 1356              		.loc 1 802 5 discriminator 1 view .LVU314
 1357 001a 0023     		movs	r3, #0
 1358 001c 0022     		movs	r2, #0
 1359 001e 0021     		movs	r1, #0
 1360 0020 FFF7FEFF 		bl	xQueueGenericSend
 1361              	.LVL87:
 802:Middlewares/Third_Party/FreeRTOS/Source/CMSIS_RTOS/cmsis_os.c ****     return sema;
 1362              		.loc 1 802 5 is_stmt 0 discriminator 1 view .LVU315
 1363 0024 F0E7     		b	.L77
 1364              		.cfi_endproc
 1365              	.LFE60:
 1367 0026 C046     		.section	.text.osSemaphoreWait,"ax",%progbits
 1368              		.align	1
 1369              		.p2align 2,,3
 1370              		.global	osSemaphoreWait
 1371              		.syntax unified
 1372              		.code	16
 1373              		.thumb_func
 1374              		.fpu softvfp
 1376              	osSemaphoreWait:
 1377              	.LVL88:
 1378              	.LFB61:
ARM GAS  /tmp/ccSFdtfu.s 			page 43


 814:Middlewares/Third_Party/FreeRTOS/Source/CMSIS_RTOS/cmsis_os.c **** 
 815:Middlewares/Third_Party/FreeRTOS/Source/CMSIS_RTOS/cmsis_os.c **** /**
 816:Middlewares/Third_Party/FreeRTOS/Source/CMSIS_RTOS/cmsis_os.c **** * @brief Wait until a Semaphore token becomes available
 817:Middlewares/Third_Party/FreeRTOS/Source/CMSIS_RTOS/cmsis_os.c **** * @param  semaphore_id  semaphore object referenced with \ref osSemaphore.
 818:Middlewares/Third_Party/FreeRTOS/Source/CMSIS_RTOS/cmsis_os.c **** * @param  millisec      timeout value or 0 in case of no time-out.
 819:Middlewares/Third_Party/FreeRTOS/Source/CMSIS_RTOS/cmsis_os.c **** * @retval  number of available tokens, or -1 in case of incorrect parameters.
 820:Middlewares/Third_Party/FreeRTOS/Source/CMSIS_RTOS/cmsis_os.c **** * @note   MUST REMAIN UNCHANGED: \b osSemaphoreWait shall be consistent in every CMSIS-RTOS.
 821:Middlewares/Third_Party/FreeRTOS/Source/CMSIS_RTOS/cmsis_os.c **** */
 822:Middlewares/Third_Party/FreeRTOS/Source/CMSIS_RTOS/cmsis_os.c **** int32_t osSemaphoreWait (osSemaphoreId semaphore_id, uint32_t millisec)
 823:Middlewares/Third_Party/FreeRTOS/Source/CMSIS_RTOS/cmsis_os.c **** {
 1379              		.loc 1 823 1 is_stmt 1 view -0
 1380              		.cfi_startproc
 1381              		@ args = 0, pretend = 0, frame = 8
 1382              		@ frame_needed = 0, uses_anonymous_args = 0
 824:Middlewares/Third_Party/FreeRTOS/Source/CMSIS_RTOS/cmsis_os.c ****   TickType_t ticks;
 1383              		.loc 1 824 3 view .LVU317
 825:Middlewares/Third_Party/FreeRTOS/Source/CMSIS_RTOS/cmsis_os.c ****   portBASE_TYPE taskWoken = pdFALSE;  
 1384              		.loc 1 825 3 view .LVU318
 1385              		.loc 1 825 17 is_stmt 0 view .LVU319
 1386 0000 0023     		movs	r3, #0
 823:Middlewares/Third_Party/FreeRTOS/Source/CMSIS_RTOS/cmsis_os.c ****   TickType_t ticks;
 1387              		.loc 1 823 1 view .LVU320
 1388 0002 00B5     		push	{lr}
 1389              	.LCFI22:
 1390              		.cfi_def_cfa_offset 4
 1391              		.cfi_offset 14, -4
 1392 0004 83B0     		sub	sp, sp, #12
 1393              	.LCFI23:
 1394              		.cfi_def_cfa_offset 16
 1395              		.loc 1 825 17 view .LVU321
 1396 0006 0193     		str	r3, [sp, #4]
 826:Middlewares/Third_Party/FreeRTOS/Source/CMSIS_RTOS/cmsis_os.c ****   
 827:Middlewares/Third_Party/FreeRTOS/Source/CMSIS_RTOS/cmsis_os.c ****   
 828:Middlewares/Third_Party/FreeRTOS/Source/CMSIS_RTOS/cmsis_os.c ****   if (semaphore_id == NULL) {
 1397              		.loc 1 828 3 is_stmt 1 view .LVU322
 1398              		.loc 1 828 6 is_stmt 0 view .LVU323
 1399 0008 0028     		cmp	r0, #0
 1400 000a 1DD0     		beq	.L90
 829:Middlewares/Third_Party/FreeRTOS/Source/CMSIS_RTOS/cmsis_os.c ****     return osErrorParameter;
 830:Middlewares/Third_Party/FreeRTOS/Source/CMSIS_RTOS/cmsis_os.c ****   }
 831:Middlewares/Third_Party/FreeRTOS/Source/CMSIS_RTOS/cmsis_os.c ****   
 832:Middlewares/Third_Party/FreeRTOS/Source/CMSIS_RTOS/cmsis_os.c ****   ticks = 0;
 1401              		.loc 1 832 3 is_stmt 1 view .LVU324
 1402              	.LVL89:
 833:Middlewares/Third_Party/FreeRTOS/Source/CMSIS_RTOS/cmsis_os.c ****   if (millisec == osWaitForever) {
 1403              		.loc 1 833 3 view .LVU325
 834:Middlewares/Third_Party/FreeRTOS/Source/CMSIS_RTOS/cmsis_os.c ****     ticks = portMAX_DELAY;
 835:Middlewares/Third_Party/FreeRTOS/Source/CMSIS_RTOS/cmsis_os.c ****   }
 836:Middlewares/Third_Party/FreeRTOS/Source/CMSIS_RTOS/cmsis_os.c ****   else if (millisec != 0) {
 837:Middlewares/Third_Party/FreeRTOS/Source/CMSIS_RTOS/cmsis_os.c ****     ticks = millisec / portTICK_PERIOD_MS;
 838:Middlewares/Third_Party/FreeRTOS/Source/CMSIS_RTOS/cmsis_os.c ****     if (ticks == 0) {
 839:Middlewares/Third_Party/FreeRTOS/Source/CMSIS_RTOS/cmsis_os.c ****       ticks = 1;
 840:Middlewares/Third_Party/FreeRTOS/Source/CMSIS_RTOS/cmsis_os.c ****     }
 841:Middlewares/Third_Party/FreeRTOS/Source/CMSIS_RTOS/cmsis_os.c ****   }
 842:Middlewares/Third_Party/FreeRTOS/Source/CMSIS_RTOS/cmsis_os.c ****   
 843:Middlewares/Third_Party/FreeRTOS/Source/CMSIS_RTOS/cmsis_os.c ****   if (inHandlerMode()) {
 1404              		.loc 1 843 3 view .LVU326
ARM GAS  /tmp/ccSFdtfu.s 			page 44


 1405              	.LBB157:
 1406              	.LBI157:
 173:Middlewares/Third_Party/FreeRTOS/Source/CMSIS_RTOS/cmsis_os.c **** {
 1407              		.loc 1 173 12 view .LVU327
 1408              	.LBE157:
 175:Middlewares/Third_Party/FreeRTOS/Source/CMSIS_RTOS/cmsis_os.c **** }
 1409              		.loc 1 175 3 view .LVU328
 1410              	.LBB160:
 1411              	.LBB158:
 1412              	.LBI158:
 105:Drivers/CMSIS/Include/cmsis_gcc.h **** {
 1413              		.loc 2 105 61 view .LVU329
 1414              	.LBB159:
 107:Drivers/CMSIS/Include/cmsis_gcc.h **** 
 1415              		.loc 2 107 3 view .LVU330
 109:Drivers/CMSIS/Include/cmsis_gcc.h ****   return(result);
 1416              		.loc 2 109 3 view .LVU331
 1417              		.syntax divided
 1418              	@ 109 "Drivers/CMSIS/Include/cmsis_gcc.h" 1
 1419 000c EFF30583 		MRS r3, ipsr
 1420              	@ 0 "" 2
 1421              	.LVL90:
 1422              		.loc 2 110 3 view .LVU332
 1423              		.loc 2 110 3 is_stmt 0 view .LVU333
 1424              		.thumb
 1425              		.syntax unified
 1426              	.LBE159:
 1427              	.LBE158:
 1428              	.LBE160:
 1429              		.loc 1 843 6 view .LVU334
 1430 0010 002B     		cmp	r3, #0
 1431 0012 0BD0     		beq	.L86
 844:Middlewares/Third_Party/FreeRTOS/Source/CMSIS_RTOS/cmsis_os.c ****     if (xSemaphoreTakeFromISR(semaphore_id, &taskWoken) != pdTRUE) {
 1432              		.loc 1 844 5 is_stmt 1 view .LVU335
 1433              		.loc 1 844 9 is_stmt 0 view .LVU336
 1434 0014 01AA     		add	r2, sp, #4
 1435 0016 0021     		movs	r1, #0
 1436              	.LVL91:
 1437              		.loc 1 844 9 view .LVU337
 1438 0018 FFF7FEFF 		bl	xQueueReceiveFromISR
 1439              	.LVL92:
 1440              		.loc 1 844 8 view .LVU338
 1441 001c 0128     		cmp	r0, #1
 1442 001e 0CD1     		bne	.L87
 845:Middlewares/Third_Party/FreeRTOS/Source/CMSIS_RTOS/cmsis_os.c ****       return osErrorOS;
 846:Middlewares/Third_Party/FreeRTOS/Source/CMSIS_RTOS/cmsis_os.c ****     }
 847:Middlewares/Third_Party/FreeRTOS/Source/CMSIS_RTOS/cmsis_os.c **** 	portEND_SWITCHING_ISR(taskWoken);
 1443              		.loc 1 847 2 is_stmt 1 view .LVU339
 1444 0020 019B     		ldr	r3, [sp, #4]
 1445 0022 002B     		cmp	r3, #0
 1446 0024 0BD1     		bne	.L88
 1447              	.L94:
 848:Middlewares/Third_Party/FreeRTOS/Source/CMSIS_RTOS/cmsis_os.c ****   }  
 849:Middlewares/Third_Party/FreeRTOS/Source/CMSIS_RTOS/cmsis_os.c ****   else if (xSemaphoreTake(semaphore_id, ticks) != pdTRUE) {
 850:Middlewares/Third_Party/FreeRTOS/Source/CMSIS_RTOS/cmsis_os.c ****     return osErrorOS;
 851:Middlewares/Third_Party/FreeRTOS/Source/CMSIS_RTOS/cmsis_os.c ****   }
 852:Middlewares/Third_Party/FreeRTOS/Source/CMSIS_RTOS/cmsis_os.c ****   
ARM GAS  /tmp/ccSFdtfu.s 			page 45


 853:Middlewares/Third_Party/FreeRTOS/Source/CMSIS_RTOS/cmsis_os.c ****   return osOK;
 1448              		.loc 1 853 10 is_stmt 0 discriminator 1 view .LVU340
 1449 0026 0020     		movs	r0, #0
 1450              	.LVL93:
 1451              	.L84:
 854:Middlewares/Third_Party/FreeRTOS/Source/CMSIS_RTOS/cmsis_os.c **** }
 1452              		.loc 1 854 1 view .LVU341
 1453 0028 03B0     		add	sp, sp, #12
 1454              		@ sp needed
 1455 002a 00BD     		pop	{pc}
 1456              	.LVL94:
 1457              	.L86:
 849:Middlewares/Third_Party/FreeRTOS/Source/CMSIS_RTOS/cmsis_os.c ****     return osErrorOS;
 1458              		.loc 1 849 8 is_stmt 1 view .LVU342
 849:Middlewares/Third_Party/FreeRTOS/Source/CMSIS_RTOS/cmsis_os.c ****     return osErrorOS;
 1459              		.loc 1 849 12 is_stmt 0 view .LVU343
 1460 002c 0A00     		movs	r2, r1
 1461 002e 0023     		movs	r3, #0
 1462 0030 0021     		movs	r1, #0
 1463              	.LVL95:
 849:Middlewares/Third_Party/FreeRTOS/Source/CMSIS_RTOS/cmsis_os.c ****     return osErrorOS;
 1464              		.loc 1 849 12 view .LVU344
 1465 0032 FFF7FEFF 		bl	xQueueGenericReceive
 1466              	.LVL96:
 849:Middlewares/Third_Party/FreeRTOS/Source/CMSIS_RTOS/cmsis_os.c ****     return osErrorOS;
 1467              		.loc 1 849 11 view .LVU345
 1468 0036 0128     		cmp	r0, #1
 1469 0038 F5D0     		beq	.L94
 1470              	.L87:
 850:Middlewares/Third_Party/FreeRTOS/Source/CMSIS_RTOS/cmsis_os.c ****   }
 1471              		.loc 1 850 5 is_stmt 1 view .LVU346
 850:Middlewares/Third_Party/FreeRTOS/Source/CMSIS_RTOS/cmsis_os.c ****   }
 1472              		.loc 1 850 12 is_stmt 0 view .LVU347
 1473 003a FF20     		movs	r0, #255
 1474 003c F4E7     		b	.L84
 1475              	.L88:
 847:Middlewares/Third_Party/FreeRTOS/Source/CMSIS_RTOS/cmsis_os.c ****   }  
 1476              		.loc 1 847 2 is_stmt 1 discriminator 1 view .LVU348
 1477 003e 8022     		movs	r2, #128
 1478 0040 024B     		ldr	r3, .L95
 1479 0042 5205     		lsls	r2, r2, #21
 1480 0044 1A60     		str	r2, [r3]
 1481 0046 EEE7     		b	.L94
 1482              	.LVL97:
 1483              	.L90:
 829:Middlewares/Third_Party/FreeRTOS/Source/CMSIS_RTOS/cmsis_os.c ****   }
 1484              		.loc 1 829 12 is_stmt 0 view .LVU349
 1485 0048 8020     		movs	r0, #128
 1486              	.LVL98:
 829:Middlewares/Third_Party/FreeRTOS/Source/CMSIS_RTOS/cmsis_os.c ****   }
 1487              		.loc 1 829 12 view .LVU350
 1488 004a EDE7     		b	.L84
 1489              	.L96:
 1490              		.align	2
 1491              	.L95:
 1492 004c 04ED00E0 		.word	-536810236
 1493              		.cfi_endproc
ARM GAS  /tmp/ccSFdtfu.s 			page 46


 1494              	.LFE61:
 1496              		.section	.text.osSemaphoreRelease,"ax",%progbits
 1497              		.align	1
 1498              		.p2align 2,,3
 1499              		.global	osSemaphoreRelease
 1500              		.syntax unified
 1501              		.code	16
 1502              		.thumb_func
 1503              		.fpu softvfp
 1505              	osSemaphoreRelease:
 1506              	.LFB96:
 1507              		.cfi_startproc
 1508              		@ args = 0, pretend = 0, frame = 8
 1509              		@ frame_needed = 0, uses_anonymous_args = 0
 1510 0000 0023     		movs	r3, #0
 1511 0002 00B5     		push	{lr}
 1512              	.LCFI24:
 1513              		.cfi_def_cfa_offset 4
 1514              		.cfi_offset 14, -4
 1515 0004 83B0     		sub	sp, sp, #12
 1516              	.LCFI25:
 1517              		.cfi_def_cfa_offset 16
 1518 0006 0193     		str	r3, [sp, #4]
 1519              		.syntax divided
 1520              	@ 109 "Drivers/CMSIS/Include/cmsis_gcc.h" 1
 1521 0008 EFF30583 		MRS r3, ipsr
 1522              	@ 0 "" 2
 1523              		.thumb
 1524              		.syntax unified
 1525 000c 002B     		cmp	r3, #0
 1526 000e 0DD0     		beq	.L98
 1527 0010 01A9     		add	r1, sp, #4
 1528 0012 FFF7FEFF 		bl	xQueueGiveFromISR
 1529 0016 0128     		cmp	r0, #1
 1530 0018 0FD1     		bne	.L99
 1531 001a 019B     		ldr	r3, [sp, #4]
 1532 001c 002B     		cmp	r3, #0
 1533 001e 03D0     		beq	.L106
 1534 0020 8022     		movs	r2, #128
 1535 0022 074B     		ldr	r3, .L107
 1536 0024 5205     		lsls	r2, r2, #21
 1537 0026 1A60     		str	r2, [r3]
 1538              	.L106:
 1539 0028 0020     		movs	r0, #0
 1540 002a 07E0     		b	.L97
 1541              	.L98:
 1542 002c 0023     		movs	r3, #0
 1543 002e 0022     		movs	r2, #0
 1544 0030 0021     		movs	r1, #0
 1545 0032 FFF7FEFF 		bl	xQueueGenericSend
 1546 0036 0128     		cmp	r0, #1
 1547 0038 F6D0     		beq	.L106
 1548              	.L99:
 1549 003a FF20     		movs	r0, #255
 1550              	.L97:
 1551 003c 03B0     		add	sp, sp, #12
 1552              		@ sp needed
ARM GAS  /tmp/ccSFdtfu.s 			page 47


 1553 003e 00BD     		pop	{pc}
 1554              	.L108:
 1555              		.align	2
 1556              	.L107:
 1557 0040 04ED00E0 		.word	-536810236
 1558              		.cfi_endproc
 1559              	.LFE96:
 1561              		.section	.text.osSemaphoreDelete,"ax",%progbits
 1562              		.align	1
 1563              		.p2align 2,,3
 1564              		.global	osSemaphoreDelete
 1565              		.syntax unified
 1566              		.code	16
 1567              		.thumb_func
 1568              		.fpu softvfp
 1570              	osSemaphoreDelete:
 1571              	.LFB98:
 1572              		.cfi_startproc
 1573              		@ args = 0, pretend = 0, frame = 0
 1574              		@ frame_needed = 0, uses_anonymous_args = 0
 1575 0000 10B5     		push	{r4, lr}
 1576              	.LCFI26:
 1577              		.cfi_def_cfa_offset 8
 1578              		.cfi_offset 4, -8
 1579              		.cfi_offset 14, -4
 1580              		.syntax divided
 1581              	@ 109 "Drivers/CMSIS/Include/cmsis_gcc.h" 1
 1582 0002 EFF30583 		MRS r3, ipsr
 1583              	@ 0 "" 2
 1584              		.thumb
 1585              		.syntax unified
 1586 0006 002B     		cmp	r3, #0
 1587 0008 03D1     		bne	.L111
 1588 000a FFF7FEFF 		bl	vQueueDelete
 1589 000e 0020     		movs	r0, #0
 1590              	.L109:
 1591              		@ sp needed
 1592 0010 10BD     		pop	{r4, pc}
 1593              	.L111:
 1594 0012 8220     		movs	r0, #130
 1595 0014 FCE7     		b	.L109
 1596              		.cfi_endproc
 1597              	.LFE98:
 1599 0016 C046     		.section	.text.osPoolCreate,"ax",%progbits
 1600              		.align	1
 1601              		.p2align 2,,3
 1602              		.global	osPoolCreate
 1603              		.syntax unified
 1604              		.code	16
 1605              		.thumb_func
 1606              		.fpu softvfp
 1608              	osPoolCreate:
 1609              	.LVL99:
 1610              	.LFB64:
 855:Middlewares/Third_Party/FreeRTOS/Source/CMSIS_RTOS/cmsis_os.c **** 
 856:Middlewares/Third_Party/FreeRTOS/Source/CMSIS_RTOS/cmsis_os.c **** /**
 857:Middlewares/Third_Party/FreeRTOS/Source/CMSIS_RTOS/cmsis_os.c **** * @brief Release a Semaphore token
ARM GAS  /tmp/ccSFdtfu.s 			page 48


 858:Middlewares/Third_Party/FreeRTOS/Source/CMSIS_RTOS/cmsis_os.c **** * @param  semaphore_id  semaphore object referenced with \ref osSemaphore.
 859:Middlewares/Third_Party/FreeRTOS/Source/CMSIS_RTOS/cmsis_os.c **** * @retval  status code that indicates the execution status of the function.
 860:Middlewares/Third_Party/FreeRTOS/Source/CMSIS_RTOS/cmsis_os.c **** * @note   MUST REMAIN UNCHANGED: \b osSemaphoreRelease shall be consistent in every CMSIS-RTOS.
 861:Middlewares/Third_Party/FreeRTOS/Source/CMSIS_RTOS/cmsis_os.c **** */
 862:Middlewares/Third_Party/FreeRTOS/Source/CMSIS_RTOS/cmsis_os.c **** osStatus osSemaphoreRelease (osSemaphoreId semaphore_id)
 863:Middlewares/Third_Party/FreeRTOS/Source/CMSIS_RTOS/cmsis_os.c **** {
 864:Middlewares/Third_Party/FreeRTOS/Source/CMSIS_RTOS/cmsis_os.c ****   osStatus result = osOK;
 865:Middlewares/Third_Party/FreeRTOS/Source/CMSIS_RTOS/cmsis_os.c ****   portBASE_TYPE taskWoken = pdFALSE;
 866:Middlewares/Third_Party/FreeRTOS/Source/CMSIS_RTOS/cmsis_os.c ****   
 867:Middlewares/Third_Party/FreeRTOS/Source/CMSIS_RTOS/cmsis_os.c ****   
 868:Middlewares/Third_Party/FreeRTOS/Source/CMSIS_RTOS/cmsis_os.c ****   if (inHandlerMode()) {
 869:Middlewares/Third_Party/FreeRTOS/Source/CMSIS_RTOS/cmsis_os.c ****     if (xSemaphoreGiveFromISR(semaphore_id, &taskWoken) != pdTRUE) {
 870:Middlewares/Third_Party/FreeRTOS/Source/CMSIS_RTOS/cmsis_os.c ****       return osErrorOS;
 871:Middlewares/Third_Party/FreeRTOS/Source/CMSIS_RTOS/cmsis_os.c ****     }
 872:Middlewares/Third_Party/FreeRTOS/Source/CMSIS_RTOS/cmsis_os.c ****     portEND_SWITCHING_ISR(taskWoken);
 873:Middlewares/Third_Party/FreeRTOS/Source/CMSIS_RTOS/cmsis_os.c ****   }
 874:Middlewares/Third_Party/FreeRTOS/Source/CMSIS_RTOS/cmsis_os.c ****   else {
 875:Middlewares/Third_Party/FreeRTOS/Source/CMSIS_RTOS/cmsis_os.c ****     if (xSemaphoreGive(semaphore_id) != pdTRUE) {
 876:Middlewares/Third_Party/FreeRTOS/Source/CMSIS_RTOS/cmsis_os.c ****       result = osErrorOS;
 877:Middlewares/Third_Party/FreeRTOS/Source/CMSIS_RTOS/cmsis_os.c ****     }
 878:Middlewares/Third_Party/FreeRTOS/Source/CMSIS_RTOS/cmsis_os.c ****   }
 879:Middlewares/Third_Party/FreeRTOS/Source/CMSIS_RTOS/cmsis_os.c ****   
 880:Middlewares/Third_Party/FreeRTOS/Source/CMSIS_RTOS/cmsis_os.c ****   return result;
 881:Middlewares/Third_Party/FreeRTOS/Source/CMSIS_RTOS/cmsis_os.c **** }
 882:Middlewares/Third_Party/FreeRTOS/Source/CMSIS_RTOS/cmsis_os.c **** 
 883:Middlewares/Third_Party/FreeRTOS/Source/CMSIS_RTOS/cmsis_os.c **** /**
 884:Middlewares/Third_Party/FreeRTOS/Source/CMSIS_RTOS/cmsis_os.c **** * @brief Delete a Semaphore
 885:Middlewares/Third_Party/FreeRTOS/Source/CMSIS_RTOS/cmsis_os.c **** * @param  semaphore_id  semaphore object referenced with \ref osSemaphore.
 886:Middlewares/Third_Party/FreeRTOS/Source/CMSIS_RTOS/cmsis_os.c **** * @retval  status code that indicates the execution status of the function.
 887:Middlewares/Third_Party/FreeRTOS/Source/CMSIS_RTOS/cmsis_os.c **** * @note   MUST REMAIN UNCHANGED: \b osSemaphoreDelete shall be consistent in every CMSIS-RTOS.
 888:Middlewares/Third_Party/FreeRTOS/Source/CMSIS_RTOS/cmsis_os.c **** */
 889:Middlewares/Third_Party/FreeRTOS/Source/CMSIS_RTOS/cmsis_os.c **** osStatus osSemaphoreDelete (osSemaphoreId semaphore_id)
 890:Middlewares/Third_Party/FreeRTOS/Source/CMSIS_RTOS/cmsis_os.c **** {
 891:Middlewares/Third_Party/FreeRTOS/Source/CMSIS_RTOS/cmsis_os.c ****   if (inHandlerMode()) {
 892:Middlewares/Third_Party/FreeRTOS/Source/CMSIS_RTOS/cmsis_os.c ****     return osErrorISR;
 893:Middlewares/Third_Party/FreeRTOS/Source/CMSIS_RTOS/cmsis_os.c ****   }
 894:Middlewares/Third_Party/FreeRTOS/Source/CMSIS_RTOS/cmsis_os.c **** 
 895:Middlewares/Third_Party/FreeRTOS/Source/CMSIS_RTOS/cmsis_os.c ****   vSemaphoreDelete(semaphore_id);
 896:Middlewares/Third_Party/FreeRTOS/Source/CMSIS_RTOS/cmsis_os.c **** 
 897:Middlewares/Third_Party/FreeRTOS/Source/CMSIS_RTOS/cmsis_os.c ****   return osOK; 
 898:Middlewares/Third_Party/FreeRTOS/Source/CMSIS_RTOS/cmsis_os.c **** }
 899:Middlewares/Third_Party/FreeRTOS/Source/CMSIS_RTOS/cmsis_os.c **** 
 900:Middlewares/Third_Party/FreeRTOS/Source/CMSIS_RTOS/cmsis_os.c **** #endif    /* Use Semaphores */
 901:Middlewares/Third_Party/FreeRTOS/Source/CMSIS_RTOS/cmsis_os.c **** 
 902:Middlewares/Third_Party/FreeRTOS/Source/CMSIS_RTOS/cmsis_os.c **** /*******************   Memory Pool Management Functions  ***********************/
 903:Middlewares/Third_Party/FreeRTOS/Source/CMSIS_RTOS/cmsis_os.c **** 
 904:Middlewares/Third_Party/FreeRTOS/Source/CMSIS_RTOS/cmsis_os.c **** #if (defined (osFeature_Pool)  &&  (osFeature_Pool != 0)) 
 905:Middlewares/Third_Party/FreeRTOS/Source/CMSIS_RTOS/cmsis_os.c **** 
 906:Middlewares/Third_Party/FreeRTOS/Source/CMSIS_RTOS/cmsis_os.c **** //TODO
 907:Middlewares/Third_Party/FreeRTOS/Source/CMSIS_RTOS/cmsis_os.c **** //This is a primitive and inefficient wrapper around the existing FreeRTOS memory management.
 908:Middlewares/Third_Party/FreeRTOS/Source/CMSIS_RTOS/cmsis_os.c **** //A better implementation will have to modify heap_x.c!
 909:Middlewares/Third_Party/FreeRTOS/Source/CMSIS_RTOS/cmsis_os.c **** 
 910:Middlewares/Third_Party/FreeRTOS/Source/CMSIS_RTOS/cmsis_os.c **** 
 911:Middlewares/Third_Party/FreeRTOS/Source/CMSIS_RTOS/cmsis_os.c **** typedef struct os_pool_cb {
 912:Middlewares/Third_Party/FreeRTOS/Source/CMSIS_RTOS/cmsis_os.c ****   void *pool;
 913:Middlewares/Third_Party/FreeRTOS/Source/CMSIS_RTOS/cmsis_os.c ****   uint8_t *markers;
 914:Middlewares/Third_Party/FreeRTOS/Source/CMSIS_RTOS/cmsis_os.c ****   uint32_t pool_sz;
ARM GAS  /tmp/ccSFdtfu.s 			page 49


 915:Middlewares/Third_Party/FreeRTOS/Source/CMSIS_RTOS/cmsis_os.c ****   uint32_t item_sz;
 916:Middlewares/Third_Party/FreeRTOS/Source/CMSIS_RTOS/cmsis_os.c ****   uint32_t currentIndex;
 917:Middlewares/Third_Party/FreeRTOS/Source/CMSIS_RTOS/cmsis_os.c **** } os_pool_cb_t;
 918:Middlewares/Third_Party/FreeRTOS/Source/CMSIS_RTOS/cmsis_os.c **** 
 919:Middlewares/Third_Party/FreeRTOS/Source/CMSIS_RTOS/cmsis_os.c **** 
 920:Middlewares/Third_Party/FreeRTOS/Source/CMSIS_RTOS/cmsis_os.c **** /**
 921:Middlewares/Third_Party/FreeRTOS/Source/CMSIS_RTOS/cmsis_os.c **** * @brief Create and Initialize a memory pool
 922:Middlewares/Third_Party/FreeRTOS/Source/CMSIS_RTOS/cmsis_os.c **** * @param  pool_def      memory pool definition referenced with \ref osPool.
 923:Middlewares/Third_Party/FreeRTOS/Source/CMSIS_RTOS/cmsis_os.c **** * @retval  memory pool ID for reference by other functions or NULL in case of error.
 924:Middlewares/Third_Party/FreeRTOS/Source/CMSIS_RTOS/cmsis_os.c **** * @note   MUST REMAIN UNCHANGED: \b osPoolCreate shall be consistent in every CMSIS-RTOS.
 925:Middlewares/Third_Party/FreeRTOS/Source/CMSIS_RTOS/cmsis_os.c **** */
 926:Middlewares/Third_Party/FreeRTOS/Source/CMSIS_RTOS/cmsis_os.c **** osPoolId osPoolCreate (const osPoolDef_t *pool_def)
 927:Middlewares/Third_Party/FreeRTOS/Source/CMSIS_RTOS/cmsis_os.c **** {
 1611              		.loc 1 927 1 is_stmt 1 view -0
 1612              		.cfi_startproc
 1613              		@ args = 0, pretend = 0, frame = 0
 1614              		@ frame_needed = 0, uses_anonymous_args = 0
 928:Middlewares/Third_Party/FreeRTOS/Source/CMSIS_RTOS/cmsis_os.c **** #if (configSUPPORT_DYNAMIC_ALLOCATION == 1)
 929:Middlewares/Third_Party/FreeRTOS/Source/CMSIS_RTOS/cmsis_os.c ****   osPoolId thePool;
 1615              		.loc 1 929 3 view .LVU352
 930:Middlewares/Third_Party/FreeRTOS/Source/CMSIS_RTOS/cmsis_os.c ****   int itemSize = 4 * ((pool_def->item_sz + 3) / 4);
 1616              		.loc 1 930 3 view .LVU353
 927:Middlewares/Third_Party/FreeRTOS/Source/CMSIS_RTOS/cmsis_os.c **** #if (configSUPPORT_DYNAMIC_ALLOCATION == 1)
 1617              		.loc 1 927 1 is_stmt 0 view .LVU354
 1618 0000 70B5     		push	{r4, r5, r6, lr}
 1619              	.LCFI27:
 1620              		.cfi_def_cfa_offset 16
 1621              		.cfi_offset 4, -16
 1622              		.cfi_offset 5, -12
 1623              		.cfi_offset 6, -8
 1624              		.cfi_offset 14, -4
 1625              		.loc 1 930 32 view .LVU355
 1626 0002 4668     		ldr	r6, [r0, #4]
 1627              	.LVL100:
 931:Middlewares/Third_Party/FreeRTOS/Source/CMSIS_RTOS/cmsis_os.c ****   uint32_t i;
 1628              		.loc 1 931 3 is_stmt 1 view .LVU356
 932:Middlewares/Third_Party/FreeRTOS/Source/CMSIS_RTOS/cmsis_os.c ****   
 933:Middlewares/Third_Party/FreeRTOS/Source/CMSIS_RTOS/cmsis_os.c ****   /* First have to allocate memory for the pool control block. */
 934:Middlewares/Third_Party/FreeRTOS/Source/CMSIS_RTOS/cmsis_os.c ****  thePool = pvPortMalloc(sizeof(os_pool_cb_t));
 1629              		.loc 1 934 2 view .LVU357
 927:Middlewares/Third_Party/FreeRTOS/Source/CMSIS_RTOS/cmsis_os.c **** #if (configSUPPORT_DYNAMIC_ALLOCATION == 1)
 1630              		.loc 1 927 1 is_stmt 0 view .LVU358
 1631 0004 0500     		movs	r5, r0
 1632              		.loc 1 934 12 view .LVU359
 1633 0006 1420     		movs	r0, #20
 1634              	.LVL101:
 1635              		.loc 1 934 12 view .LVU360
 1636 0008 FFF7FEFF 		bl	pvPortMalloc
 1637              	.LVL102:
 1638 000c 041E     		subs	r4, r0, #0
 1639              	.LVL103:
 935:Middlewares/Third_Party/FreeRTOS/Source/CMSIS_RTOS/cmsis_os.c **** 
 936:Middlewares/Third_Party/FreeRTOS/Source/CMSIS_RTOS/cmsis_os.c ****   
 937:Middlewares/Third_Party/FreeRTOS/Source/CMSIS_RTOS/cmsis_os.c ****   if (thePool) {
 1640              		.loc 1 937 3 is_stmt 1 view .LVU361
 1641              		.loc 1 937 6 is_stmt 0 view .LVU362
 1642 000e 1ED0     		beq	.L112
ARM GAS  /tmp/ccSFdtfu.s 			page 50


 938:Middlewares/Third_Party/FreeRTOS/Source/CMSIS_RTOS/cmsis_os.c ****     thePool->pool_sz = pool_def->pool_sz;
 1643              		.loc 1 938 5 is_stmt 1 view .LVU363
 930:Middlewares/Third_Party/FreeRTOS/Source/CMSIS_RTOS/cmsis_os.c ****   uint32_t i;
 1644              		.loc 1 930 7 is_stmt 0 view .LVU364
 1645 0010 0323     		movs	r3, #3
 930:Middlewares/Third_Party/FreeRTOS/Source/CMSIS_RTOS/cmsis_os.c ****   uint32_t i;
 1646              		.loc 1 930 42 view .LVU365
 1647 0012 0336     		adds	r6, r6, #3
 1648              	.LVL104:
 930:Middlewares/Third_Party/FreeRTOS/Source/CMSIS_RTOS/cmsis_os.c ****   uint32_t i;
 1649              		.loc 1 930 7 view .LVU366
 1650 0014 9E43     		bics	r6, r3
 1651              	.LVL105:
 939:Middlewares/Third_Party/FreeRTOS/Source/CMSIS_RTOS/cmsis_os.c ****     thePool->item_sz = itemSize;
 940:Middlewares/Third_Party/FreeRTOS/Source/CMSIS_RTOS/cmsis_os.c ****     thePool->currentIndex = 0;
 1652              		.loc 1 940 27 view .LVU367
 1653 0016 0023     		movs	r3, #0
 938:Middlewares/Third_Party/FreeRTOS/Source/CMSIS_RTOS/cmsis_os.c ****     thePool->item_sz = itemSize;
 1654              		.loc 1 938 32 view .LVU368
 1655 0018 2868     		ldr	r0, [r5]
 1656              	.LVL106:
 939:Middlewares/Third_Party/FreeRTOS/Source/CMSIS_RTOS/cmsis_os.c ****     thePool->item_sz = itemSize;
 1657              		.loc 1 939 22 view .LVU369
 1658 001a E660     		str	r6, [r4, #12]
 938:Middlewares/Third_Party/FreeRTOS/Source/CMSIS_RTOS/cmsis_os.c ****     thePool->item_sz = itemSize;
 1659              		.loc 1 938 22 view .LVU370
 1660 001c A060     		str	r0, [r4, #8]
 939:Middlewares/Third_Party/FreeRTOS/Source/CMSIS_RTOS/cmsis_os.c ****     thePool->item_sz = itemSize;
 1661              		.loc 1 939 5 is_stmt 1 view .LVU371
 1662              		.loc 1 940 5 view .LVU372
 1663              		.loc 1 940 27 is_stmt 0 view .LVU373
 1664 001e 2361     		str	r3, [r4, #16]
 941:Middlewares/Third_Party/FreeRTOS/Source/CMSIS_RTOS/cmsis_os.c ****     
 942:Middlewares/Third_Party/FreeRTOS/Source/CMSIS_RTOS/cmsis_os.c ****     /* Memory for markers */
 943:Middlewares/Third_Party/FreeRTOS/Source/CMSIS_RTOS/cmsis_os.c ****     thePool->markers = pvPortMalloc(pool_def->pool_sz);
 1665              		.loc 1 943 5 is_stmt 1 view .LVU374
 1666              		.loc 1 943 24 is_stmt 0 view .LVU375
 1667 0020 FFF7FEFF 		bl	pvPortMalloc
 1668              	.LVL107:
 1669              		.loc 1 943 22 view .LVU376
 1670 0024 6060     		str	r0, [r4, #4]
 944:Middlewares/Third_Party/FreeRTOS/Source/CMSIS_RTOS/cmsis_os.c ****    
 945:Middlewares/Third_Party/FreeRTOS/Source/CMSIS_RTOS/cmsis_os.c ****     if (thePool->markers) {
 1671              		.loc 1 945 5 is_stmt 1 view .LVU377
 1672              		.loc 1 945 8 is_stmt 0 view .LVU378
 1673 0026 0028     		cmp	r0, #0
 1674 0028 13D0     		beq	.L114
 946:Middlewares/Third_Party/FreeRTOS/Source/CMSIS_RTOS/cmsis_os.c ****       /* Now allocate the pool itself. */
 947:Middlewares/Third_Party/FreeRTOS/Source/CMSIS_RTOS/cmsis_os.c ****      thePool->pool = pvPortMalloc(pool_def->pool_sz * itemSize);
 1675              		.loc 1 947 6 is_stmt 1 view .LVU379
 1676              		.loc 1 947 53 is_stmt 0 view .LVU380
 1677 002a 2868     		ldr	r0, [r5]
 1678 002c 7043     		muls	r0, r6
 1679              		.loc 1 947 22 view .LVU381
 1680 002e FFF7FEFF 		bl	pvPortMalloc
 1681              	.LVL108:
 1682              		.loc 1 947 20 view .LVU382
ARM GAS  /tmp/ccSFdtfu.s 			page 51


 1683 0032 2060     		str	r0, [r4]
 948:Middlewares/Third_Party/FreeRTOS/Source/CMSIS_RTOS/cmsis_os.c ****       
 949:Middlewares/Third_Party/FreeRTOS/Source/CMSIS_RTOS/cmsis_os.c ****       if (thePool->pool) {
 1684              		.loc 1 949 7 is_stmt 1 view .LVU383
 1685              		.loc 1 949 10 is_stmt 0 view .LVU384
 1686 0034 0028     		cmp	r0, #0
 1687 0036 11D0     		beq	.L115
 1688              	.LVL109:
 950:Middlewares/Third_Party/FreeRTOS/Source/CMSIS_RTOS/cmsis_os.c ****         for (i = 0; i < pool_def->pool_sz; i++) {
 1689              		.loc 1 950 9 view .LVU385
 1690 0038 2B68     		ldr	r3, [r5]
 1691 003a 002B     		cmp	r3, #0
 1692 003c 07D0     		beq	.L112
 1693              		.loc 1 950 16 view .LVU386
 1694 003e 0023     		movs	r3, #0
 951:Middlewares/Third_Party/FreeRTOS/Source/CMSIS_RTOS/cmsis_os.c ****           thePool->markers[i] = 0;
 1695              		.loc 1 951 31 view .LVU387
 1696 0040 0022     		movs	r2, #0
 1697              	.LVL110:
 1698              	.L116:
 1699              		.loc 1 951 11 is_stmt 1 discriminator 3 view .LVU388
 1700              		.loc 1 951 31 is_stmt 0 discriminator 3 view .LVU389
 1701 0042 6168     		ldr	r1, [r4, #4]
 1702 0044 CA54     		strb	r2, [r1, r3]
 950:Middlewares/Third_Party/FreeRTOS/Source/CMSIS_RTOS/cmsis_os.c ****         for (i = 0; i < pool_def->pool_sz; i++) {
 1703              		.loc 1 950 9 discriminator 3 view .LVU390
 1704 0046 2968     		ldr	r1, [r5]
 950:Middlewares/Third_Party/FreeRTOS/Source/CMSIS_RTOS/cmsis_os.c ****         for (i = 0; i < pool_def->pool_sz; i++) {
 1705              		.loc 1 950 45 discriminator 3 view .LVU391
 1706 0048 0133     		adds	r3, r3, #1
 1707              	.LVL111:
 950:Middlewares/Third_Party/FreeRTOS/Source/CMSIS_RTOS/cmsis_os.c ****         for (i = 0; i < pool_def->pool_sz; i++) {
 1708              		.loc 1 950 9 discriminator 3 view .LVU392
 1709 004a 9942     		cmp	r1, r3
 1710 004c F9D8     		bhi	.L116
 1711              	.LVL112:
 1712              	.L112:
 952:Middlewares/Third_Party/FreeRTOS/Source/CMSIS_RTOS/cmsis_os.c ****         }
 953:Middlewares/Third_Party/FreeRTOS/Source/CMSIS_RTOS/cmsis_os.c ****       }
 954:Middlewares/Third_Party/FreeRTOS/Source/CMSIS_RTOS/cmsis_os.c ****       else {
 955:Middlewares/Third_Party/FreeRTOS/Source/CMSIS_RTOS/cmsis_os.c ****         vPortFree(thePool->markers);
 956:Middlewares/Third_Party/FreeRTOS/Source/CMSIS_RTOS/cmsis_os.c ****         vPortFree(thePool);
 957:Middlewares/Third_Party/FreeRTOS/Source/CMSIS_RTOS/cmsis_os.c ****         thePool = NULL;
 958:Middlewares/Third_Party/FreeRTOS/Source/CMSIS_RTOS/cmsis_os.c ****       }
 959:Middlewares/Third_Party/FreeRTOS/Source/CMSIS_RTOS/cmsis_os.c ****     }
 960:Middlewares/Third_Party/FreeRTOS/Source/CMSIS_RTOS/cmsis_os.c ****     else {
 961:Middlewares/Third_Party/FreeRTOS/Source/CMSIS_RTOS/cmsis_os.c ****       vPortFree(thePool);
 962:Middlewares/Third_Party/FreeRTOS/Source/CMSIS_RTOS/cmsis_os.c ****       thePool = NULL;
 963:Middlewares/Third_Party/FreeRTOS/Source/CMSIS_RTOS/cmsis_os.c ****     }
 964:Middlewares/Third_Party/FreeRTOS/Source/CMSIS_RTOS/cmsis_os.c ****   }
 965:Middlewares/Third_Party/FreeRTOS/Source/CMSIS_RTOS/cmsis_os.c **** 
 966:Middlewares/Third_Party/FreeRTOS/Source/CMSIS_RTOS/cmsis_os.c ****   return thePool;
 967:Middlewares/Third_Party/FreeRTOS/Source/CMSIS_RTOS/cmsis_os.c ****  
 968:Middlewares/Third_Party/FreeRTOS/Source/CMSIS_RTOS/cmsis_os.c **** #else
 969:Middlewares/Third_Party/FreeRTOS/Source/CMSIS_RTOS/cmsis_os.c ****   return NULL;
 970:Middlewares/Third_Party/FreeRTOS/Source/CMSIS_RTOS/cmsis_os.c **** #endif
 971:Middlewares/Third_Party/FreeRTOS/Source/CMSIS_RTOS/cmsis_os.c **** }
ARM GAS  /tmp/ccSFdtfu.s 			page 52


 1713              		.loc 1 971 1 view .LVU393
 1714 004e 2000     		movs	r0, r4
 1715              		@ sp needed
 1716              	.LVL113:
 1717              		.loc 1 971 1 view .LVU394
 1718 0050 70BD     		pop	{r4, r5, r6, pc}
 1719              	.LVL114:
 1720              	.L114:
 961:Middlewares/Third_Party/FreeRTOS/Source/CMSIS_RTOS/cmsis_os.c ****       thePool = NULL;
 1721              		.loc 1 961 7 is_stmt 1 view .LVU395
 1722 0052 2000     		movs	r0, r4
 1723 0054 FFF7FEFF 		bl	vPortFree
 1724              	.LVL115:
 962:Middlewares/Third_Party/FreeRTOS/Source/CMSIS_RTOS/cmsis_os.c ****     }
 1725              		.loc 1 962 7 view .LVU396
 962:Middlewares/Third_Party/FreeRTOS/Source/CMSIS_RTOS/cmsis_os.c ****     }
 1726              		.loc 1 962 15 is_stmt 0 view .LVU397
 1727 0058 0024     		movs	r4, #0
 966:Middlewares/Third_Party/FreeRTOS/Source/CMSIS_RTOS/cmsis_os.c ****  
 1728              		.loc 1 966 3 is_stmt 1 view .LVU398
 966:Middlewares/Third_Party/FreeRTOS/Source/CMSIS_RTOS/cmsis_os.c ****  
 1729              		.loc 1 966 10 is_stmt 0 view .LVU399
 1730 005a F8E7     		b	.L112
 1731              	.LVL116:
 1732              	.L115:
 955:Middlewares/Third_Party/FreeRTOS/Source/CMSIS_RTOS/cmsis_os.c ****         vPortFree(thePool);
 1733              		.loc 1 955 9 is_stmt 1 view .LVU400
 1734 005c 6068     		ldr	r0, [r4, #4]
 1735 005e FFF7FEFF 		bl	vPortFree
 1736              	.LVL117:
 956:Middlewares/Third_Party/FreeRTOS/Source/CMSIS_RTOS/cmsis_os.c ****         thePool = NULL;
 1737              		.loc 1 956 9 view .LVU401
 1738 0062 2000     		movs	r0, r4
 1739 0064 FFF7FEFF 		bl	vPortFree
 1740              	.LVL118:
 957:Middlewares/Third_Party/FreeRTOS/Source/CMSIS_RTOS/cmsis_os.c ****       }
 1741              		.loc 1 957 9 view .LVU402
 957:Middlewares/Third_Party/FreeRTOS/Source/CMSIS_RTOS/cmsis_os.c ****       }
 1742              		.loc 1 957 17 is_stmt 0 view .LVU403
 1743 0068 0024     		movs	r4, #0
 1744 006a F0E7     		b	.L112
 1745              		.cfi_endproc
 1746              	.LFE64:
 1748              		.section	.text.osPoolAlloc,"ax",%progbits
 1749              		.align	1
 1750              		.p2align 2,,3
 1751              		.global	osPoolAlloc
 1752              		.syntax unified
 1753              		.code	16
 1754              		.thumb_func
 1755              		.fpu softvfp
 1757              	osPoolAlloc:
 1758              	.LVL119:
 1759              	.LFB65:
 972:Middlewares/Third_Party/FreeRTOS/Source/CMSIS_RTOS/cmsis_os.c **** 
 973:Middlewares/Third_Party/FreeRTOS/Source/CMSIS_RTOS/cmsis_os.c **** /**
 974:Middlewares/Third_Party/FreeRTOS/Source/CMSIS_RTOS/cmsis_os.c **** * @brief Allocate a memory block from a memory pool
ARM GAS  /tmp/ccSFdtfu.s 			page 53


 975:Middlewares/Third_Party/FreeRTOS/Source/CMSIS_RTOS/cmsis_os.c **** * @param pool_id       memory pool ID obtain referenced with \ref osPoolCreate.
 976:Middlewares/Third_Party/FreeRTOS/Source/CMSIS_RTOS/cmsis_os.c **** * @retval  address of the allocated memory block or NULL in case of no memory available.
 977:Middlewares/Third_Party/FreeRTOS/Source/CMSIS_RTOS/cmsis_os.c **** * @note   MUST REMAIN UNCHANGED: \b osPoolAlloc shall be consistent in every CMSIS-RTOS.
 978:Middlewares/Third_Party/FreeRTOS/Source/CMSIS_RTOS/cmsis_os.c **** */
 979:Middlewares/Third_Party/FreeRTOS/Source/CMSIS_RTOS/cmsis_os.c **** void *osPoolAlloc (osPoolId pool_id)
 980:Middlewares/Third_Party/FreeRTOS/Source/CMSIS_RTOS/cmsis_os.c **** {
 1760              		.loc 1 980 1 is_stmt 1 view -0
 1761              		.cfi_startproc
 1762              		@ args = 0, pretend = 0, frame = 0
 1763              		@ frame_needed = 0, uses_anonymous_args = 0
 981:Middlewares/Third_Party/FreeRTOS/Source/CMSIS_RTOS/cmsis_os.c ****   int dummy = 0;
 1764              		.loc 1 981 3 view .LVU405
 982:Middlewares/Third_Party/FreeRTOS/Source/CMSIS_RTOS/cmsis_os.c ****   void *p = NULL;
 1765              		.loc 1 982 3 view .LVU406
 983:Middlewares/Third_Party/FreeRTOS/Source/CMSIS_RTOS/cmsis_os.c ****   uint32_t i;
 1766              		.loc 1 983 3 view .LVU407
 984:Middlewares/Third_Party/FreeRTOS/Source/CMSIS_RTOS/cmsis_os.c ****   uint32_t index;
 1767              		.loc 1 984 3 view .LVU408
 985:Middlewares/Third_Party/FreeRTOS/Source/CMSIS_RTOS/cmsis_os.c ****   
 986:Middlewares/Third_Party/FreeRTOS/Source/CMSIS_RTOS/cmsis_os.c ****   if (inHandlerMode()) {
 1768              		.loc 1 986 3 view .LVU409
 1769              	.LBB167:
 1770              	.LBI167:
 173:Middlewares/Third_Party/FreeRTOS/Source/CMSIS_RTOS/cmsis_os.c **** {
 1771              		.loc 1 173 12 view .LVU410
 1772              	.LBE167:
 175:Middlewares/Third_Party/FreeRTOS/Source/CMSIS_RTOS/cmsis_os.c **** }
 1773              		.loc 1 175 3 view .LVU411
 1774              	.LBB172:
 1775              	.LBB168:
 1776              	.LBI168:
 105:Drivers/CMSIS/Include/cmsis_gcc.h **** {
 1777              		.loc 2 105 61 view .LVU412
 1778              	.LBB169:
 107:Drivers/CMSIS/Include/cmsis_gcc.h **** 
 1779              		.loc 2 107 3 view .LVU413
 109:Drivers/CMSIS/Include/cmsis_gcc.h ****   return(result);
 1780              		.loc 2 109 3 view .LVU414
 1781              	.LBE169:
 1782              	.LBE168:
 1783              	.LBE172:
 980:Middlewares/Third_Party/FreeRTOS/Source/CMSIS_RTOS/cmsis_os.c ****   int dummy = 0;
 1784              		.loc 1 980 1 is_stmt 0 view .LVU415
 1785 0000 F0B5     		push	{r4, r5, r6, r7, lr}
 1786              	.LCFI28:
 1787              		.cfi_def_cfa_offset 20
 1788              		.cfi_offset 4, -20
 1789              		.cfi_offset 5, -16
 1790              		.cfi_offset 6, -12
 1791              		.cfi_offset 7, -8
 1792              		.cfi_offset 14, -4
 1793 0002 C646     		mov	lr, r8
 1794 0004 0600     		movs	r6, r0
 1795 0006 00B5     		push	{lr}
 1796              	.LCFI29:
 1797              		.cfi_def_cfa_offset 24
 1798              		.cfi_offset 8, -24
ARM GAS  /tmp/ccSFdtfu.s 			page 54


 1799              	.LBB173:
 1800              	.LBB171:
 1801              	.LBB170:
 109:Drivers/CMSIS/Include/cmsis_gcc.h ****   return(result);
 1802              		.loc 2 109 3 view .LVU416
 1803              		.syntax divided
 1804              	@ 109 "Drivers/CMSIS/Include/cmsis_gcc.h" 1
 1805 0008 EFF30588 		MRS r8, ipsr
 1806              	@ 0 "" 2
 1807              	.LVL120:
 1808              		.loc 2 110 3 is_stmt 1 view .LVU417
 1809              		.loc 2 110 3 is_stmt 0 view .LVU418
 1810              		.thumb
 1811              		.syntax unified
 1812              	.LBE170:
 1813              	.LBE171:
 1814              	.LBE173:
 1815              		.loc 1 986 6 view .LVU419
 1816 000c 4346     		mov	r3, r8
 1817 000e 002B     		cmp	r3, #0
 1818 0010 33D0     		beq	.L125
 987:Middlewares/Third_Party/FreeRTOS/Source/CMSIS_RTOS/cmsis_os.c ****     dummy = portSET_INTERRUPT_MASK_FROM_ISR();
 1819              		.loc 1 987 5 is_stmt 1 view .LVU420
 1820              		.loc 1 987 13 is_stmt 0 view .LVU421
 1821 0012 FFF7FEFF 		bl	ulSetInterruptMaskFromISR
 1822              	.LVL121:
 1823              		.loc 1 987 13 view .LVU422
 1824 0016 8046     		mov	r8, r0
 1825              	.LVL122:
 1826              	.L126:
 988:Middlewares/Third_Party/FreeRTOS/Source/CMSIS_RTOS/cmsis_os.c ****   }
 989:Middlewares/Third_Party/FreeRTOS/Source/CMSIS_RTOS/cmsis_os.c ****   else {
 990:Middlewares/Third_Party/FreeRTOS/Source/CMSIS_RTOS/cmsis_os.c ****     vPortEnterCritical();
 991:Middlewares/Third_Party/FreeRTOS/Source/CMSIS_RTOS/cmsis_os.c ****   }
 992:Middlewares/Third_Party/FreeRTOS/Source/CMSIS_RTOS/cmsis_os.c ****   
 993:Middlewares/Third_Party/FreeRTOS/Source/CMSIS_RTOS/cmsis_os.c ****   for (i = 0; i < pool_id->pool_sz; i++) {
 1827              		.loc 1 993 3 is_stmt 1 view .LVU423
 1828              		.loc 1 993 26 is_stmt 0 view .LVU424
 1829 0018 B068     		ldr	r0, [r6, #8]
 1830              		.loc 1 993 3 view .LVU425
 1831 001a 0028     		cmp	r0, #0
 1832 001c 21D0     		beq	.L133
 994:Middlewares/Third_Party/FreeRTOS/Source/CMSIS_RTOS/cmsis_os.c ****     index = pool_id->currentIndex + i;
 1833              		.loc 1 994 20 view .LVU426
 1834 001e 3369     		ldr	r3, [r6, #16]
 995:Middlewares/Third_Party/FreeRTOS/Source/CMSIS_RTOS/cmsis_os.c ****     if (index >= pool_id->pool_sz) {
 996:Middlewares/Third_Party/FreeRTOS/Source/CMSIS_RTOS/cmsis_os.c ****       index = 0;
 997:Middlewares/Third_Party/FreeRTOS/Source/CMSIS_RTOS/cmsis_os.c ****     }
 998:Middlewares/Third_Party/FreeRTOS/Source/CMSIS_RTOS/cmsis_os.c ****     
 999:Middlewares/Third_Party/FreeRTOS/Source/CMSIS_RTOS/cmsis_os.c ****     if (pool_id->markers[index] == 0) {
 1835              		.loc 1 999 16 view .LVU427
 1836 0020 7568     		ldr	r5, [r6, #4]
 1837 0022 C718     		adds	r7, r0, r3
 1838 0024 07E0     		b	.L130
 1839              	.LVL123:
 1840              	.L137:
 1841              		.loc 1 999 16 view .LVU428
ARM GAS  /tmp/ccSFdtfu.s 			page 55


 1842 0026 EA18     		adds	r2, r5, r3
 1843              		.loc 1 999 8 view .LVU429
 1844 0028 1178     		ldrb	r1, [r2]
 995:Middlewares/Third_Party/FreeRTOS/Source/CMSIS_RTOS/cmsis_os.c ****     if (index >= pool_id->pool_sz) {
 1845              		.loc 1 995 8 view .LVU430
 1846 002a 1C00     		movs	r4, r3
 1847              	.LVL124:
 1848              		.loc 1 999 5 is_stmt 1 view .LVU431
 1849              		.loc 1 999 8 is_stmt 0 view .LVU432
 1850 002c 0029     		cmp	r1, #0
 1851 002e 09D0     		beq	.L136
 1852              	.L129:
 1853              	.LVL125:
 1854              		.loc 1 999 8 view .LVU433
 1855 0030 0133     		adds	r3, r3, #1
 993:Middlewares/Third_Party/FreeRTOS/Source/CMSIS_RTOS/cmsis_os.c ****     index = pool_id->currentIndex + i;
 1856              		.loc 1 993 3 discriminator 2 view .LVU434
 1857 0032 BB42     		cmp	r3, r7
 1858 0034 15D0     		beq	.L133
 1859              	.LVL126:
 1860              	.L130:
 994:Middlewares/Third_Party/FreeRTOS/Source/CMSIS_RTOS/cmsis_os.c ****     index = pool_id->currentIndex + i;
 1861              		.loc 1 994 5 is_stmt 1 view .LVU435
 995:Middlewares/Third_Party/FreeRTOS/Source/CMSIS_RTOS/cmsis_os.c ****     if (index >= pool_id->pool_sz) {
 1862              		.loc 1 995 5 view .LVU436
 995:Middlewares/Third_Party/FreeRTOS/Source/CMSIS_RTOS/cmsis_os.c ****     if (index >= pool_id->pool_sz) {
 1863              		.loc 1 995 8 is_stmt 0 view .LVU437
 1864 0036 9842     		cmp	r0, r3
 1865 0038 F5D8     		bhi	.L137
 1866 003a 2A00     		movs	r2, r5
 1867              		.loc 1 999 8 view .LVU438
 1868 003c 1178     		ldrb	r1, [r2]
 996:Middlewares/Third_Party/FreeRTOS/Source/CMSIS_RTOS/cmsis_os.c ****     }
 1869              		.loc 1 996 13 view .LVU439
 1870 003e 0024     		movs	r4, #0
 1871              	.LVL127:
 1872              		.loc 1 999 5 is_stmt 1 view .LVU440
 1873              		.loc 1 999 8 is_stmt 0 view .LVU441
 1874 0040 0029     		cmp	r1, #0
 1875 0042 F5D1     		bne	.L129
 1876              	.L136:
1000:Middlewares/Third_Party/FreeRTOS/Source/CMSIS_RTOS/cmsis_os.c ****       pool_id->markers[index] = 1;
 1877              		.loc 1 1000 7 is_stmt 1 view .LVU442
 1878              		.loc 1 1000 31 is_stmt 0 view .LVU443
 1879 0044 0123     		movs	r3, #1
 1880 0046 1370     		strb	r3, [r2]
1001:Middlewares/Third_Party/FreeRTOS/Source/CMSIS_RTOS/cmsis_os.c ****       p = (void *)((uint32_t)(pool_id->pool) + (index * pool_id->item_sz));
 1881              		.loc 1 1001 7 is_stmt 1 view .LVU444
 1882              		.loc 1 1001 46 is_stmt 0 view .LVU445
 1883 0048 3368     		ldr	r3, [r6]
 1884              		.loc 1 1001 55 view .LVU446
 1885 004a F568     		ldr	r5, [r6, #12]
 1886              		.loc 1 1001 46 view .LVU447
 1887 004c 9C46     		mov	ip, r3
 1888              		.loc 1 1001 55 view .LVU448
 1889 004e 6543     		muls	r5, r4
1002:Middlewares/Third_Party/FreeRTOS/Source/CMSIS_RTOS/cmsis_os.c ****       pool_id->currentIndex = index;
ARM GAS  /tmp/ccSFdtfu.s 			page 56


 1890              		.loc 1 1002 29 view .LVU449
 1891 0050 3461     		str	r4, [r6, #16]
1001:Middlewares/Third_Party/FreeRTOS/Source/CMSIS_RTOS/cmsis_os.c ****       p = (void *)((uint32_t)(pool_id->pool) + (index * pool_id->item_sz));
 1892              		.loc 1 1001 46 view .LVU450
 1893 0052 6544     		add	r5, r5, ip
 1894              	.LVL128:
 1895              		.loc 1 1002 7 is_stmt 1 view .LVU451
1003:Middlewares/Third_Party/FreeRTOS/Source/CMSIS_RTOS/cmsis_os.c ****       break;
 1896              		.loc 1 1003 7 view .LVU452
1004:Middlewares/Third_Party/FreeRTOS/Source/CMSIS_RTOS/cmsis_os.c ****     }
1005:Middlewares/Third_Party/FreeRTOS/Source/CMSIS_RTOS/cmsis_os.c ****   }
1006:Middlewares/Third_Party/FreeRTOS/Source/CMSIS_RTOS/cmsis_os.c ****   
1007:Middlewares/Third_Party/FreeRTOS/Source/CMSIS_RTOS/cmsis_os.c ****   if (inHandlerMode()) {
 1897              		.loc 1 1007 3 view .LVU453
 1898              	.LBB174:
 1899              	.LBI174:
 173:Middlewares/Third_Party/FreeRTOS/Source/CMSIS_RTOS/cmsis_os.c **** {
 1900              		.loc 1 173 12 view .LVU454
 1901              	.LBE174:
 175:Middlewares/Third_Party/FreeRTOS/Source/CMSIS_RTOS/cmsis_os.c **** }
 1902              		.loc 1 175 3 view .LVU455
 1903              	.LBB179:
 1904              	.LBB175:
 1905              	.LBI175:
 105:Drivers/CMSIS/Include/cmsis_gcc.h **** {
 1906              		.loc 2 105 61 view .LVU456
 1907              	.LBB176:
 107:Drivers/CMSIS/Include/cmsis_gcc.h **** 
 1908              		.loc 2 107 3 view .LVU457
 109:Drivers/CMSIS/Include/cmsis_gcc.h ****   return(result);
 1909              		.loc 2 109 3 view .LVU458
 1910              		.syntax divided
 1911              	@ 109 "Drivers/CMSIS/Include/cmsis_gcc.h" 1
 1912 0054 EFF30583 		MRS r3, ipsr
 1913              	@ 0 "" 2
 1914              	.LVL129:
 1915              		.loc 2 110 3 view .LVU459
 1916              		.loc 2 110 3 is_stmt 0 view .LVU460
 1917              		.thumb
 1918              		.syntax unified
 1919              	.LBE176:
 1920              	.LBE175:
 1921              	.LBE179:
 1922              		.loc 1 1007 6 view .LVU461
 1923 0058 002B     		cmp	r3, #0
 1924 005a 07D1     		bne	.L138
 1925              	.LVL130:
 1926              	.L131:
1008:Middlewares/Third_Party/FreeRTOS/Source/CMSIS_RTOS/cmsis_os.c ****     portCLEAR_INTERRUPT_MASK_FROM_ISR(dummy);
1009:Middlewares/Third_Party/FreeRTOS/Source/CMSIS_RTOS/cmsis_os.c ****   }
1010:Middlewares/Third_Party/FreeRTOS/Source/CMSIS_RTOS/cmsis_os.c ****   else {
1011:Middlewares/Third_Party/FreeRTOS/Source/CMSIS_RTOS/cmsis_os.c ****     vPortExitCritical();
 1927              		.loc 1 1011 5 is_stmt 1 view .LVU462
 1928 005c FFF7FEFF 		bl	vPortExitCritical
 1929              	.LVL131:
1012:Middlewares/Third_Party/FreeRTOS/Source/CMSIS_RTOS/cmsis_os.c ****   }
1013:Middlewares/Third_Party/FreeRTOS/Source/CMSIS_RTOS/cmsis_os.c ****   
ARM GAS  /tmp/ccSFdtfu.s 			page 57


1014:Middlewares/Third_Party/FreeRTOS/Source/CMSIS_RTOS/cmsis_os.c ****   return p;
 1930              		.loc 1 1014 3 view .LVU463
 1931              		.loc 1 1014 10 is_stmt 0 view .LVU464
 1932 0060 07E0     		b	.L124
 1933              	.LVL132:
 1934              	.L133:
 982:Middlewares/Third_Party/FreeRTOS/Source/CMSIS_RTOS/cmsis_os.c ****   uint32_t i;
 1935              		.loc 1 982 9 view .LVU465
 1936 0062 0025     		movs	r5, #0
 1937              	.LVL133:
1007:Middlewares/Third_Party/FreeRTOS/Source/CMSIS_RTOS/cmsis_os.c ****     portCLEAR_INTERRUPT_MASK_FROM_ISR(dummy);
 1938              		.loc 1 1007 3 is_stmt 1 view .LVU466
 1939              	.LBB180:
 173:Middlewares/Third_Party/FreeRTOS/Source/CMSIS_RTOS/cmsis_os.c **** {
 1940              		.loc 1 173 12 view .LVU467
 1941              	.LBE180:
 175:Middlewares/Third_Party/FreeRTOS/Source/CMSIS_RTOS/cmsis_os.c **** }
 1942              		.loc 1 175 3 view .LVU468
 1943              	.LBB181:
 1944              	.LBB178:
 105:Drivers/CMSIS/Include/cmsis_gcc.h **** {
 1945              		.loc 2 105 61 view .LVU469
 1946              	.LBB177:
 107:Drivers/CMSIS/Include/cmsis_gcc.h **** 
 1947              		.loc 2 107 3 view .LVU470
 109:Drivers/CMSIS/Include/cmsis_gcc.h ****   return(result);
 1948              		.loc 2 109 3 view .LVU471
 1949              		.syntax divided
 1950              	@ 109 "Drivers/CMSIS/Include/cmsis_gcc.h" 1
 1951 0064 EFF30583 		MRS r3, ipsr
 1952              	@ 0 "" 2
 1953              	.LVL134:
 1954              		.loc 2 110 3 view .LVU472
 1955              		.loc 2 110 3 is_stmt 0 view .LVU473
 1956              		.thumb
 1957              		.syntax unified
 1958              	.LBE177:
 1959              	.LBE178:
 1960              	.LBE181:
1007:Middlewares/Third_Party/FreeRTOS/Source/CMSIS_RTOS/cmsis_os.c ****     portCLEAR_INTERRUPT_MASK_FROM_ISR(dummy);
 1961              		.loc 1 1007 6 view .LVU474
 1962 0068 002B     		cmp	r3, #0
 1963 006a F7D0     		beq	.L131
 1964              	.L138:
1008:Middlewares/Third_Party/FreeRTOS/Source/CMSIS_RTOS/cmsis_os.c ****   }
 1965              		.loc 1 1008 5 is_stmt 1 view .LVU475
 1966 006c 4046     		mov	r0, r8
 1967 006e FFF7FEFF 		bl	vClearInterruptMaskFromISR
 1968              	.LVL135:
 1969              	.L124:
1015:Middlewares/Third_Party/FreeRTOS/Source/CMSIS_RTOS/cmsis_os.c **** }
 1970              		.loc 1 1015 1 is_stmt 0 view .LVU476
 1971 0072 2800     		movs	r0, r5
 1972              		@ sp needed
 1973              	.LVL136:
 1974              	.LVL137:
 1975              		.loc 1 1015 1 view .LVU477
ARM GAS  /tmp/ccSFdtfu.s 			page 58


 1976 0074 04BC     		pop	{r2}
 1977 0076 9046     		mov	r8, r2
 1978 0078 F0BD     		pop	{r4, r5, r6, r7, pc}
 1979              	.LVL138:
 1980              	.L125:
 990:Middlewares/Third_Party/FreeRTOS/Source/CMSIS_RTOS/cmsis_os.c ****   }
 1981              		.loc 1 990 5 is_stmt 1 view .LVU478
 1982 007a FFF7FEFF 		bl	vPortEnterCritical
 1983              	.LVL139:
 990:Middlewares/Third_Party/FreeRTOS/Source/CMSIS_RTOS/cmsis_os.c ****   }
 1984              		.loc 1 990 5 is_stmt 0 view .LVU479
 1985 007e CBE7     		b	.L126
 1986              		.cfi_endproc
 1987              	.LFE65:
 1989              		.section	.text.osPoolCAlloc,"ax",%progbits
 1990              		.align	1
 1991              		.p2align 2,,3
 1992              		.global	osPoolCAlloc
 1993              		.syntax unified
 1994              		.code	16
 1995              		.thumb_func
 1996              		.fpu softvfp
 1998              	osPoolCAlloc:
 1999              	.LVL140:
 2000              	.LFB66:
1016:Middlewares/Third_Party/FreeRTOS/Source/CMSIS_RTOS/cmsis_os.c **** 
1017:Middlewares/Third_Party/FreeRTOS/Source/CMSIS_RTOS/cmsis_os.c **** /**
1018:Middlewares/Third_Party/FreeRTOS/Source/CMSIS_RTOS/cmsis_os.c **** * @brief Allocate a memory block from a memory pool and set memory block to zero
1019:Middlewares/Third_Party/FreeRTOS/Source/CMSIS_RTOS/cmsis_os.c **** * @param  pool_id       memory pool ID obtain referenced with \ref osPoolCreate.
1020:Middlewares/Third_Party/FreeRTOS/Source/CMSIS_RTOS/cmsis_os.c **** * @retval  address of the allocated memory block or NULL in case of no memory available.
1021:Middlewares/Third_Party/FreeRTOS/Source/CMSIS_RTOS/cmsis_os.c **** * @note   MUST REMAIN UNCHANGED: \b osPoolCAlloc shall be consistent in every CMSIS-RTOS.
1022:Middlewares/Third_Party/FreeRTOS/Source/CMSIS_RTOS/cmsis_os.c **** */
1023:Middlewares/Third_Party/FreeRTOS/Source/CMSIS_RTOS/cmsis_os.c **** void *osPoolCAlloc (osPoolId pool_id)
1024:Middlewares/Third_Party/FreeRTOS/Source/CMSIS_RTOS/cmsis_os.c **** {
 2001              		.loc 1 1024 1 is_stmt 1 view -0
 2002              		.cfi_startproc
 2003              		@ args = 0, pretend = 0, frame = 0
 2004              		@ frame_needed = 0, uses_anonymous_args = 0
1025:Middlewares/Third_Party/FreeRTOS/Source/CMSIS_RTOS/cmsis_os.c ****   void *p = osPoolAlloc(pool_id);
 2005              		.loc 1 1025 3 view .LVU481
1024:Middlewares/Third_Party/FreeRTOS/Source/CMSIS_RTOS/cmsis_os.c ****   void *p = osPoolAlloc(pool_id);
 2006              		.loc 1 1024 1 is_stmt 0 view .LVU482
 2007 0000 F8B5     		push	{r3, r4, r5, r6, r7, lr}
 2008              	.LCFI30:
 2009              		.cfi_def_cfa_offset 24
 2010              		.cfi_offset 3, -24
 2011              		.cfi_offset 4, -20
 2012              		.cfi_offset 5, -16
 2013              		.cfi_offset 6, -12
 2014              		.cfi_offset 7, -8
 2015              		.cfi_offset 14, -4
1024:Middlewares/Third_Party/FreeRTOS/Source/CMSIS_RTOS/cmsis_os.c ****   void *p = osPoolAlloc(pool_id);
 2016              		.loc 1 1024 1 view .LVU483
 2017 0002 0400     		movs	r4, r0
 2018              	.LVL141:
 2019              	.LBB190:
 2020              	.LBI190:
ARM GAS  /tmp/ccSFdtfu.s 			page 59


 979:Middlewares/Third_Party/FreeRTOS/Source/CMSIS_RTOS/cmsis_os.c **** {
 2021              		.loc 1 979 7 is_stmt 1 view .LVU484
 2022              	.LBB191:
 981:Middlewares/Third_Party/FreeRTOS/Source/CMSIS_RTOS/cmsis_os.c ****   void *p = NULL;
 2023              		.loc 1 981 3 view .LVU485
 982:Middlewares/Third_Party/FreeRTOS/Source/CMSIS_RTOS/cmsis_os.c ****   uint32_t i;
 2024              		.loc 1 982 3 view .LVU486
 983:Middlewares/Third_Party/FreeRTOS/Source/CMSIS_RTOS/cmsis_os.c ****   uint32_t index;
 2025              		.loc 1 983 3 view .LVU487
 984:Middlewares/Third_Party/FreeRTOS/Source/CMSIS_RTOS/cmsis_os.c ****   
 2026              		.loc 1 984 3 view .LVU488
 986:Middlewares/Third_Party/FreeRTOS/Source/CMSIS_RTOS/cmsis_os.c ****     dummy = portSET_INTERRUPT_MASK_FROM_ISR();
 2027              		.loc 1 986 3 view .LVU489
 2028              	.LBB192:
 2029              	.LBI192:
 173:Middlewares/Third_Party/FreeRTOS/Source/CMSIS_RTOS/cmsis_os.c **** {
 2030              		.loc 1 173 12 view .LVU490
 2031              	.LBE192:
 2032              	.LBE191:
 2033              	.LBE190:
 175:Middlewares/Third_Party/FreeRTOS/Source/CMSIS_RTOS/cmsis_os.c **** }
 2034              		.loc 1 175 3 view .LVU491
 2035              	.LBB208:
 2036              	.LBB204:
 2037              	.LBB195:
 2038              	.LBB193:
 2039              	.LBI193:
 105:Drivers/CMSIS/Include/cmsis_gcc.h **** {
 2040              		.loc 2 105 61 view .LVU492
 2041              	.LBB194:
 107:Drivers/CMSIS/Include/cmsis_gcc.h **** 
 2042              		.loc 2 107 3 view .LVU493
 109:Drivers/CMSIS/Include/cmsis_gcc.h ****   return(result);
 2043              		.loc 2 109 3 view .LVU494
 2044              		.syntax divided
 2045              	@ 109 "Drivers/CMSIS/Include/cmsis_gcc.h" 1
 2046 0004 EFF30586 		MRS r6, ipsr
 2047              	@ 0 "" 2
 2048              	.LVL142:
 2049              		.loc 2 110 3 view .LVU495
 2050              		.loc 2 110 3 is_stmt 0 view .LVU496
 2051              		.thumb
 2052              		.syntax unified
 2053              	.LBE194:
 2054              	.LBE193:
 2055              	.LBE195:
 986:Middlewares/Third_Party/FreeRTOS/Source/CMSIS_RTOS/cmsis_os.c ****     dummy = portSET_INTERRUPT_MASK_FROM_ISR();
 2056              		.loc 1 986 6 view .LVU497
 2057 0008 002E     		cmp	r6, #0
 2058 000a 39D0     		beq	.L140
 987:Middlewares/Third_Party/FreeRTOS/Source/CMSIS_RTOS/cmsis_os.c ****   }
 2059              		.loc 1 987 5 is_stmt 1 view .LVU498
 987:Middlewares/Third_Party/FreeRTOS/Source/CMSIS_RTOS/cmsis_os.c ****   }
 2060              		.loc 1 987 13 is_stmt 0 view .LVU499
 2061 000c FFF7FEFF 		bl	ulSetInterruptMaskFromISR
 2062              	.LVL143:
 987:Middlewares/Third_Party/FreeRTOS/Source/CMSIS_RTOS/cmsis_os.c ****   }
ARM GAS  /tmp/ccSFdtfu.s 			page 60


 2063              		.loc 1 987 13 view .LVU500
 2064 0010 0600     		movs	r6, r0
 2065              	.LVL144:
 2066              	.L141:
 993:Middlewares/Third_Party/FreeRTOS/Source/CMSIS_RTOS/cmsis_os.c ****     index = pool_id->currentIndex + i;
 2067              		.loc 1 993 3 is_stmt 1 view .LVU501
 993:Middlewares/Third_Party/FreeRTOS/Source/CMSIS_RTOS/cmsis_os.c ****     index = pool_id->currentIndex + i;
 2068              		.loc 1 993 26 is_stmt 0 view .LVU502
 2069 0012 A268     		ldr	r2, [r4, #8]
 993:Middlewares/Third_Party/FreeRTOS/Source/CMSIS_RTOS/cmsis_os.c ****     index = pool_id->currentIndex + i;
 2070              		.loc 1 993 3 view .LVU503
 2071 0014 002A     		cmp	r2, #0
 2072 0016 22D0     		beq	.L149
 994:Middlewares/Third_Party/FreeRTOS/Source/CMSIS_RTOS/cmsis_os.c ****     if (index >= pool_id->pool_sz) {
 2073              		.loc 1 994 20 view .LVU504
 2074 0018 2369     		ldr	r3, [r4, #16]
 999:Middlewares/Third_Party/FreeRTOS/Source/CMSIS_RTOS/cmsis_os.c ****       pool_id->markers[index] = 1;
 2075              		.loc 1 999 16 view .LVU505
 2076 001a 6568     		ldr	r5, [r4, #4]
 2077 001c 9918     		adds	r1, r3, r2
 2078 001e 8C46     		mov	ip, r1
 2079 0020 07E0     		b	.L145
 2080              	.LVL145:
 2081              	.L156:
 999:Middlewares/Third_Party/FreeRTOS/Source/CMSIS_RTOS/cmsis_os.c ****       pool_id->markers[index] = 1;
 2082              		.loc 1 999 16 view .LVU506
 2083 0022 E918     		adds	r1, r5, r3
 999:Middlewares/Third_Party/FreeRTOS/Source/CMSIS_RTOS/cmsis_os.c ****       pool_id->markers[index] = 1;
 2084              		.loc 1 999 8 view .LVU507
 2085 0024 0F78     		ldrb	r7, [r1]
 995:Middlewares/Third_Party/FreeRTOS/Source/CMSIS_RTOS/cmsis_os.c ****       index = 0;
 2086              		.loc 1 995 8 view .LVU508
 2087 0026 1800     		movs	r0, r3
 2088              	.LVL146:
 999:Middlewares/Third_Party/FreeRTOS/Source/CMSIS_RTOS/cmsis_os.c ****       pool_id->markers[index] = 1;
 2089              		.loc 1 999 5 is_stmt 1 view .LVU509
 999:Middlewares/Third_Party/FreeRTOS/Source/CMSIS_RTOS/cmsis_os.c ****       pool_id->markers[index] = 1;
 2090              		.loc 1 999 8 is_stmt 0 view .LVU510
 2091 0028 002F     		cmp	r7, #0
 2092 002a 09D0     		beq	.L155
 2093              	.L144:
 2094              	.LVL147:
 999:Middlewares/Third_Party/FreeRTOS/Source/CMSIS_RTOS/cmsis_os.c ****       pool_id->markers[index] = 1;
 2095              		.loc 1 999 8 view .LVU511
 2096 002c 0133     		adds	r3, r3, #1
 993:Middlewares/Third_Party/FreeRTOS/Source/CMSIS_RTOS/cmsis_os.c ****     index = pool_id->currentIndex + i;
 2097              		.loc 1 993 3 view .LVU512
 2098 002e 9C45     		cmp	ip, r3
 2099 0030 15D0     		beq	.L149
 2100              	.LVL148:
 2101              	.L145:
 994:Middlewares/Third_Party/FreeRTOS/Source/CMSIS_RTOS/cmsis_os.c ****     if (index >= pool_id->pool_sz) {
 2102              		.loc 1 994 5 is_stmt 1 view .LVU513
 995:Middlewares/Third_Party/FreeRTOS/Source/CMSIS_RTOS/cmsis_os.c ****       index = 0;
 2103              		.loc 1 995 5 view .LVU514
 995:Middlewares/Third_Party/FreeRTOS/Source/CMSIS_RTOS/cmsis_os.c ****       index = 0;
 2104              		.loc 1 995 8 is_stmt 0 view .LVU515
ARM GAS  /tmp/ccSFdtfu.s 			page 61


 2105 0032 9342     		cmp	r3, r2
 2106 0034 F5D3     		bcc	.L156
 2107 0036 2900     		movs	r1, r5
 999:Middlewares/Third_Party/FreeRTOS/Source/CMSIS_RTOS/cmsis_os.c ****       pool_id->markers[index] = 1;
 2108              		.loc 1 999 8 view .LVU516
 2109 0038 0F78     		ldrb	r7, [r1]
 996:Middlewares/Third_Party/FreeRTOS/Source/CMSIS_RTOS/cmsis_os.c ****     }
 2110              		.loc 1 996 13 view .LVU517
 2111 003a 0020     		movs	r0, #0
 2112              	.LVL149:
 999:Middlewares/Third_Party/FreeRTOS/Source/CMSIS_RTOS/cmsis_os.c ****       pool_id->markers[index] = 1;
 2113              		.loc 1 999 5 is_stmt 1 view .LVU518
 999:Middlewares/Third_Party/FreeRTOS/Source/CMSIS_RTOS/cmsis_os.c ****       pool_id->markers[index] = 1;
 2114              		.loc 1 999 8 is_stmt 0 view .LVU519
 2115 003c 002F     		cmp	r7, #0
 2116 003e F5D1     		bne	.L144
 2117              	.L155:
1000:Middlewares/Third_Party/FreeRTOS/Source/CMSIS_RTOS/cmsis_os.c ****       p = (void *)((uint32_t)(pool_id->pool) + (index * pool_id->item_sz));
 2118              		.loc 1 1000 7 is_stmt 1 view .LVU520
1000:Middlewares/Third_Party/FreeRTOS/Source/CMSIS_RTOS/cmsis_os.c ****       p = (void *)((uint32_t)(pool_id->pool) + (index * pool_id->item_sz));
 2119              		.loc 1 1000 31 is_stmt 0 view .LVU521
 2120 0040 0123     		movs	r3, #1
 2121 0042 0B70     		strb	r3, [r1]
1001:Middlewares/Third_Party/FreeRTOS/Source/CMSIS_RTOS/cmsis_os.c ****       pool_id->currentIndex = index;
 2122              		.loc 1 1001 7 is_stmt 1 view .LVU522
1001:Middlewares/Third_Party/FreeRTOS/Source/CMSIS_RTOS/cmsis_os.c ****       pool_id->currentIndex = index;
 2123              		.loc 1 1001 46 is_stmt 0 view .LVU523
 2124 0044 2368     		ldr	r3, [r4]
1001:Middlewares/Third_Party/FreeRTOS/Source/CMSIS_RTOS/cmsis_os.c ****       pool_id->currentIndex = index;
 2125              		.loc 1 1001 55 view .LVU524
 2126 0046 E568     		ldr	r5, [r4, #12]
1001:Middlewares/Third_Party/FreeRTOS/Source/CMSIS_RTOS/cmsis_os.c ****       pool_id->currentIndex = index;
 2127              		.loc 1 1001 46 view .LVU525
 2128 0048 9C46     		mov	ip, r3
1001:Middlewares/Third_Party/FreeRTOS/Source/CMSIS_RTOS/cmsis_os.c ****       pool_id->currentIndex = index;
 2129              		.loc 1 1001 55 view .LVU526
 2130 004a 4543     		muls	r5, r0
1002:Middlewares/Third_Party/FreeRTOS/Source/CMSIS_RTOS/cmsis_os.c ****       break;
 2131              		.loc 1 1002 29 view .LVU527
 2132 004c 2061     		str	r0, [r4, #16]
1001:Middlewares/Third_Party/FreeRTOS/Source/CMSIS_RTOS/cmsis_os.c ****       pool_id->currentIndex = index;
 2133              		.loc 1 1001 46 view .LVU528
 2134 004e 6544     		add	r5, r5, ip
 2135              	.LVL150:
1002:Middlewares/Third_Party/FreeRTOS/Source/CMSIS_RTOS/cmsis_os.c ****       break;
 2136              		.loc 1 1002 7 is_stmt 1 view .LVU529
1003:Middlewares/Third_Party/FreeRTOS/Source/CMSIS_RTOS/cmsis_os.c ****     }
 2137              		.loc 1 1003 7 view .LVU530
1007:Middlewares/Third_Party/FreeRTOS/Source/CMSIS_RTOS/cmsis_os.c ****     portCLEAR_INTERRUPT_MASK_FROM_ISR(dummy);
 2138              		.loc 1 1007 3 view .LVU531
 2139              	.LBB196:
 2140              	.LBI196:
 173:Middlewares/Third_Party/FreeRTOS/Source/CMSIS_RTOS/cmsis_os.c **** {
 2141              		.loc 1 173 12 view .LVU532
 2142              	.LBE196:
 2143              	.LBE204:
 2144              	.LBE208:
ARM GAS  /tmp/ccSFdtfu.s 			page 62


 175:Middlewares/Third_Party/FreeRTOS/Source/CMSIS_RTOS/cmsis_os.c **** }
 2145              		.loc 1 175 3 view .LVU533
 2146              	.LBB209:
 2147              	.LBB205:
 2148              	.LBB201:
 2149              	.LBB197:
 2150              	.LBI197:
 105:Drivers/CMSIS/Include/cmsis_gcc.h **** {
 2151              		.loc 2 105 61 view .LVU534
 2152              	.LBB198:
 107:Drivers/CMSIS/Include/cmsis_gcc.h **** 
 2153              		.loc 2 107 3 view .LVU535
 109:Drivers/CMSIS/Include/cmsis_gcc.h ****   return(result);
 2154              		.loc 2 109 3 view .LVU536
 2155              		.syntax divided
 2156              	@ 109 "Drivers/CMSIS/Include/cmsis_gcc.h" 1
 2157 0050 EFF30583 		MRS r3, ipsr
 2158              	@ 0 "" 2
 2159              	.LVL151:
 2160              		.loc 2 110 3 view .LVU537
 2161              		.loc 2 110 3 is_stmt 0 view .LVU538
 2162              		.thumb
 2163              		.syntax unified
 2164              	.LBE198:
 2165              	.LBE197:
 2166              	.LBE201:
1007:Middlewares/Third_Party/FreeRTOS/Source/CMSIS_RTOS/cmsis_os.c ****     portCLEAR_INTERRUPT_MASK_FROM_ISR(dummy);
 2167              		.loc 1 1007 6 view .LVU539
 2168 0054 002B     		cmp	r3, #0
 2169 0056 07D1     		bne	.L157
 2170              	.LVL152:
 2171              	.L146:
1011:Middlewares/Third_Party/FreeRTOS/Source/CMSIS_RTOS/cmsis_os.c ****   }
 2172              		.loc 1 1011 5 is_stmt 1 view .LVU540
 2173 0058 FFF7FEFF 		bl	vPortExitCritical
 2174              	.LVL153:
 2175 005c 07E0     		b	.L147
 2176              	.LVL154:
 2177              	.L149:
 982:Middlewares/Third_Party/FreeRTOS/Source/CMSIS_RTOS/cmsis_os.c ****   uint32_t i;
 2178              		.loc 1 982 9 is_stmt 0 view .LVU541
 2179 005e 0025     		movs	r5, #0
 2180              	.LVL155:
1007:Middlewares/Third_Party/FreeRTOS/Source/CMSIS_RTOS/cmsis_os.c ****     portCLEAR_INTERRUPT_MASK_FROM_ISR(dummy);
 2181              		.loc 1 1007 3 is_stmt 1 view .LVU542
 2182              	.LBB202:
 173:Middlewares/Third_Party/FreeRTOS/Source/CMSIS_RTOS/cmsis_os.c **** {
 2183              		.loc 1 173 12 view .LVU543
 2184              	.LBE202:
 2185              	.LBE205:
 2186              	.LBE209:
 175:Middlewares/Third_Party/FreeRTOS/Source/CMSIS_RTOS/cmsis_os.c **** }
 2187              		.loc 1 175 3 view .LVU544
 2188              	.LBB210:
 2189              	.LBB206:
 2190              	.LBB203:
 2191              	.LBB200:
ARM GAS  /tmp/ccSFdtfu.s 			page 63


 105:Drivers/CMSIS/Include/cmsis_gcc.h **** {
 2192              		.loc 2 105 61 view .LVU545
 2193              	.LBB199:
 107:Drivers/CMSIS/Include/cmsis_gcc.h **** 
 2194              		.loc 2 107 3 view .LVU546
 109:Drivers/CMSIS/Include/cmsis_gcc.h ****   return(result);
 2195              		.loc 2 109 3 view .LVU547
 2196              		.syntax divided
 2197              	@ 109 "Drivers/CMSIS/Include/cmsis_gcc.h" 1
 2198 0060 EFF30583 		MRS r3, ipsr
 2199              	@ 0 "" 2
 2200              	.LVL156:
 2201              		.loc 2 110 3 view .LVU548
 2202              		.loc 2 110 3 is_stmt 0 view .LVU549
 2203              		.thumb
 2204              		.syntax unified
 2205              	.LBE199:
 2206              	.LBE200:
 2207              	.LBE203:
1007:Middlewares/Third_Party/FreeRTOS/Source/CMSIS_RTOS/cmsis_os.c ****     portCLEAR_INTERRUPT_MASK_FROM_ISR(dummy);
 2208              		.loc 1 1007 6 view .LVU550
 2209 0064 002B     		cmp	r3, #0
 2210 0066 F7D0     		beq	.L146
 2211              	.L157:
1008:Middlewares/Third_Party/FreeRTOS/Source/CMSIS_RTOS/cmsis_os.c ****   }
 2212              		.loc 1 1008 5 is_stmt 1 view .LVU551
 2213 0068 3000     		movs	r0, r6
 2214 006a FFF7FEFF 		bl	vClearInterruptMaskFromISR
 2215              	.LVL157:
 2216              	.L147:
1014:Middlewares/Third_Party/FreeRTOS/Source/CMSIS_RTOS/cmsis_os.c **** }
 2217              		.loc 1 1014 3 view .LVU552
1014:Middlewares/Third_Party/FreeRTOS/Source/CMSIS_RTOS/cmsis_os.c **** }
 2218              		.loc 1 1014 3 is_stmt 0 view .LVU553
 2219              	.LBE206:
 2220              	.LBE210:
1026:Middlewares/Third_Party/FreeRTOS/Source/CMSIS_RTOS/cmsis_os.c ****   
1027:Middlewares/Third_Party/FreeRTOS/Source/CMSIS_RTOS/cmsis_os.c ****   if (p != NULL)
 2221              		.loc 1 1027 3 is_stmt 1 view .LVU554
 2222              		.loc 1 1027 6 is_stmt 0 view .LVU555
 2223 006e 002D     		cmp	r5, #0
 2224 0070 04D0     		beq	.L139
1028:Middlewares/Third_Party/FreeRTOS/Source/CMSIS_RTOS/cmsis_os.c ****   {
1029:Middlewares/Third_Party/FreeRTOS/Source/CMSIS_RTOS/cmsis_os.c ****     memset(p, 0, sizeof(pool_id->pool_sz));
 2225              		.loc 1 1029 5 is_stmt 1 view .LVU556
 2226 0072 0422     		movs	r2, #4
 2227 0074 0021     		movs	r1, #0
 2228 0076 2800     		movs	r0, r5
 2229 0078 FFF7FEFF 		bl	memset
 2230              	.LVL158:
1030:Middlewares/Third_Party/FreeRTOS/Source/CMSIS_RTOS/cmsis_os.c ****   }
1031:Middlewares/Third_Party/FreeRTOS/Source/CMSIS_RTOS/cmsis_os.c ****   
1032:Middlewares/Third_Party/FreeRTOS/Source/CMSIS_RTOS/cmsis_os.c ****   return p;
 2231              		.loc 1 1032 3 view .LVU557
 2232              	.L139:
1033:Middlewares/Third_Party/FreeRTOS/Source/CMSIS_RTOS/cmsis_os.c **** }
 2233              		.loc 1 1033 1 is_stmt 0 view .LVU558
ARM GAS  /tmp/ccSFdtfu.s 			page 64


 2234 007c 2800     		movs	r0, r5
 2235              		@ sp needed
 2236              	.LVL159:
 2237              	.LVL160:
 2238              		.loc 1 1033 1 view .LVU559
 2239 007e F8BD     		pop	{r3, r4, r5, r6, r7, pc}
 2240              	.LVL161:
 2241              	.L140:
 2242              	.LBB211:
 2243              	.LBB207:
 990:Middlewares/Third_Party/FreeRTOS/Source/CMSIS_RTOS/cmsis_os.c ****   }
 2244              		.loc 1 990 5 is_stmt 1 view .LVU560
 2245 0080 FFF7FEFF 		bl	vPortEnterCritical
 2246              	.LVL162:
 990:Middlewares/Third_Party/FreeRTOS/Source/CMSIS_RTOS/cmsis_os.c ****   }
 2247              		.loc 1 990 5 is_stmt 0 view .LVU561
 2248 0084 C5E7     		b	.L141
 2249              	.LBE207:
 2250              	.LBE211:
 2251              		.cfi_endproc
 2252              	.LFE66:
 2254              		.global	__aeabi_uidivmod
 2255 0086 C046     		.section	.text.osPoolFree,"ax",%progbits
 2256              		.align	1
 2257              		.p2align 2,,3
 2258              		.global	osPoolFree
 2259              		.syntax unified
 2260              		.code	16
 2261              		.thumb_func
 2262              		.fpu softvfp
 2264              	osPoolFree:
 2265              	.LVL163:
 2266              	.LFB67:
1034:Middlewares/Third_Party/FreeRTOS/Source/CMSIS_RTOS/cmsis_os.c **** 
1035:Middlewares/Third_Party/FreeRTOS/Source/CMSIS_RTOS/cmsis_os.c **** /**
1036:Middlewares/Third_Party/FreeRTOS/Source/CMSIS_RTOS/cmsis_os.c **** * @brief Return an allocated memory block back to a specific memory pool
1037:Middlewares/Third_Party/FreeRTOS/Source/CMSIS_RTOS/cmsis_os.c **** * @param  pool_id       memory pool ID obtain referenced with \ref osPoolCreate.
1038:Middlewares/Third_Party/FreeRTOS/Source/CMSIS_RTOS/cmsis_os.c **** * @param  block         address of the allocated memory block that is returned to the memory pool.
1039:Middlewares/Third_Party/FreeRTOS/Source/CMSIS_RTOS/cmsis_os.c **** * @retval  status code that indicates the execution status of the function.
1040:Middlewares/Third_Party/FreeRTOS/Source/CMSIS_RTOS/cmsis_os.c **** * @note   MUST REMAIN UNCHANGED: \b osPoolFree shall be consistent in every CMSIS-RTOS.
1041:Middlewares/Third_Party/FreeRTOS/Source/CMSIS_RTOS/cmsis_os.c **** */
1042:Middlewares/Third_Party/FreeRTOS/Source/CMSIS_RTOS/cmsis_os.c **** osStatus osPoolFree (osPoolId pool_id, void *block)
1043:Middlewares/Third_Party/FreeRTOS/Source/CMSIS_RTOS/cmsis_os.c **** {
 2267              		.loc 1 1043 1 is_stmt 1 view -0
 2268              		.cfi_startproc
 2269              		@ args = 0, pretend = 0, frame = 0
 2270              		@ frame_needed = 0, uses_anonymous_args = 0
1044:Middlewares/Third_Party/FreeRTOS/Source/CMSIS_RTOS/cmsis_os.c ****   uint32_t index;
 2271              		.loc 1 1044 3 view .LVU563
1045:Middlewares/Third_Party/FreeRTOS/Source/CMSIS_RTOS/cmsis_os.c ****   
1046:Middlewares/Third_Party/FreeRTOS/Source/CMSIS_RTOS/cmsis_os.c ****   if (pool_id == NULL) {
 2272              		.loc 1 1046 3 view .LVU564
1043:Middlewares/Third_Party/FreeRTOS/Source/CMSIS_RTOS/cmsis_os.c ****   uint32_t index;
 2273              		.loc 1 1043 1 is_stmt 0 view .LVU565
 2274 0000 10B5     		push	{r4, lr}
 2275              	.LCFI31:
 2276              		.cfi_def_cfa_offset 8
ARM GAS  /tmp/ccSFdtfu.s 			page 65


 2277              		.cfi_offset 4, -8
 2278              		.cfi_offset 14, -4
1043:Middlewares/Third_Party/FreeRTOS/Source/CMSIS_RTOS/cmsis_os.c ****   uint32_t index;
 2279              		.loc 1 1043 1 view .LVU566
 2280 0002 041E     		subs	r4, r0, #0
 2281              		.loc 1 1046 6 view .LVU567
 2282 0004 11D0     		beq	.L164
1047:Middlewares/Third_Party/FreeRTOS/Source/CMSIS_RTOS/cmsis_os.c ****     return osErrorParameter;
1048:Middlewares/Third_Party/FreeRTOS/Source/CMSIS_RTOS/cmsis_os.c ****   }
1049:Middlewares/Third_Party/FreeRTOS/Source/CMSIS_RTOS/cmsis_os.c ****   
1050:Middlewares/Third_Party/FreeRTOS/Source/CMSIS_RTOS/cmsis_os.c ****   if (block == NULL) {
 2283              		.loc 1 1050 3 is_stmt 1 view .LVU568
 2284              		.loc 1 1050 6 is_stmt 0 view .LVU569
 2285 0006 0029     		cmp	r1, #0
 2286 0008 0FD0     		beq	.L164
1051:Middlewares/Third_Party/FreeRTOS/Source/CMSIS_RTOS/cmsis_os.c ****     return osErrorParameter;
1052:Middlewares/Third_Party/FreeRTOS/Source/CMSIS_RTOS/cmsis_os.c ****   }
1053:Middlewares/Third_Party/FreeRTOS/Source/CMSIS_RTOS/cmsis_os.c ****   
1054:Middlewares/Third_Party/FreeRTOS/Source/CMSIS_RTOS/cmsis_os.c ****   if (block < pool_id->pool) {
 2287              		.loc 1 1054 3 is_stmt 1 view .LVU570
 2288              		.loc 1 1054 22 is_stmt 0 view .LVU571
 2289 000a 0068     		ldr	r0, [r0]
 2290              	.LVL164:
 2291              		.loc 1 1054 6 view .LVU572
 2292 000c 8842     		cmp	r0, r1
 2293 000e 0CD8     		bhi	.L164
1055:Middlewares/Third_Party/FreeRTOS/Source/CMSIS_RTOS/cmsis_os.c ****     return osErrorParameter;
1056:Middlewares/Third_Party/FreeRTOS/Source/CMSIS_RTOS/cmsis_os.c ****   }
1057:Middlewares/Third_Party/FreeRTOS/Source/CMSIS_RTOS/cmsis_os.c ****   
1058:Middlewares/Third_Party/FreeRTOS/Source/CMSIS_RTOS/cmsis_os.c ****   index = (uint32_t)block - (uint32_t)(pool_id->pool);
 2294              		.loc 1 1058 3 is_stmt 1 view .LVU573
 2295              	.LVL165:
1059:Middlewares/Third_Party/FreeRTOS/Source/CMSIS_RTOS/cmsis_os.c ****   if (index % pool_id->item_sz) {
 2296              		.loc 1 1059 3 view .LVU574
1058:Middlewares/Third_Party/FreeRTOS/Source/CMSIS_RTOS/cmsis_os.c ****   if (index % pool_id->item_sz) {
 2297              		.loc 1 1058 9 is_stmt 0 view .LVU575
 2298 0010 081A     		subs	r0, r1, r0
 2299              	.LVL166:
1058:Middlewares/Third_Party/FreeRTOS/Source/CMSIS_RTOS/cmsis_os.c ****   if (index % pool_id->item_sz) {
 2300              		.loc 1 1058 9 view .LVU576
 2301 0012 E168     		ldr	r1, [r4, #12]
 2302              	.LVL167:
1058:Middlewares/Third_Party/FreeRTOS/Source/CMSIS_RTOS/cmsis_os.c ****   if (index % pool_id->item_sz) {
 2303              		.loc 1 1058 9 view .LVU577
 2304 0014 FFF7FEFF 		bl	__aeabi_uidivmod
 2305              	.LVL168:
 2306              		.loc 1 1059 6 view .LVU578
 2307 0018 0029     		cmp	r1, #0
 2308 001a 06D1     		bne	.L164
1060:Middlewares/Third_Party/FreeRTOS/Source/CMSIS_RTOS/cmsis_os.c ****     return osErrorParameter;
1061:Middlewares/Third_Party/FreeRTOS/Source/CMSIS_RTOS/cmsis_os.c ****   }
1062:Middlewares/Third_Party/FreeRTOS/Source/CMSIS_RTOS/cmsis_os.c ****   index = index / pool_id->item_sz;
 2309              		.loc 1 1062 3 is_stmt 1 view .LVU579
 2310              	.LVL169:
1063:Middlewares/Third_Party/FreeRTOS/Source/CMSIS_RTOS/cmsis_os.c ****   if (index >= pool_id->pool_sz) {
 2311              		.loc 1 1063 3 view .LVU580
 2312              		.loc 1 1063 6 is_stmt 0 view .LVU581
ARM GAS  /tmp/ccSFdtfu.s 			page 66


 2313 001c A368     		ldr	r3, [r4, #8]
 2314 001e 8342     		cmp	r3, r0
 2315 0020 03D9     		bls	.L164
1064:Middlewares/Third_Party/FreeRTOS/Source/CMSIS_RTOS/cmsis_os.c ****     return osErrorParameter;
1065:Middlewares/Third_Party/FreeRTOS/Source/CMSIS_RTOS/cmsis_os.c ****   }
1066:Middlewares/Third_Party/FreeRTOS/Source/CMSIS_RTOS/cmsis_os.c ****   
1067:Middlewares/Third_Party/FreeRTOS/Source/CMSIS_RTOS/cmsis_os.c ****   pool_id->markers[index] = 0;
 2316              		.loc 1 1067 3 is_stmt 1 view .LVU582
 2317              		.loc 1 1067 27 is_stmt 0 view .LVU583
 2318 0022 6368     		ldr	r3, [r4, #4]
 2319 0024 1954     		strb	r1, [r3, r0]
1068:Middlewares/Third_Party/FreeRTOS/Source/CMSIS_RTOS/cmsis_os.c ****   
1069:Middlewares/Third_Party/FreeRTOS/Source/CMSIS_RTOS/cmsis_os.c ****   return osOK;
 2320              		.loc 1 1069 3 is_stmt 1 view .LVU584
 2321              		.loc 1 1069 10 is_stmt 0 view .LVU585
 2322 0026 0020     		movs	r0, #0
 2323              	.LVL170:
 2324              		.loc 1 1069 10 view .LVU586
 2325 0028 00E0     		b	.L158
 2326              	.L164:
1047:Middlewares/Third_Party/FreeRTOS/Source/CMSIS_RTOS/cmsis_os.c ****   }
 2327              		.loc 1 1047 12 view .LVU587
 2328 002a 8020     		movs	r0, #128
 2329              	.L158:
1070:Middlewares/Third_Party/FreeRTOS/Source/CMSIS_RTOS/cmsis_os.c **** }
 2330              		.loc 1 1070 1 view .LVU588
 2331              		@ sp needed
 2332              	.LVL171:
 2333              		.loc 1 1070 1 view .LVU589
 2334 002c 10BD     		pop	{r4, pc}
 2335              		.cfi_endproc
 2336              	.LFE67:
 2338 002e C046     		.section	.text.osMessageCreate,"ax",%progbits
 2339              		.align	1
 2340              		.p2align 2,,3
 2341              		.global	osMessageCreate
 2342              		.syntax unified
 2343              		.code	16
 2344              		.thumb_func
 2345              		.fpu softvfp
 2347              	osMessageCreate:
 2348              	.LVL172:
 2349              	.LFB68:
1071:Middlewares/Third_Party/FreeRTOS/Source/CMSIS_RTOS/cmsis_os.c **** 
1072:Middlewares/Third_Party/FreeRTOS/Source/CMSIS_RTOS/cmsis_os.c **** 
1073:Middlewares/Third_Party/FreeRTOS/Source/CMSIS_RTOS/cmsis_os.c **** #endif   /* Use Memory Pool Management */
1074:Middlewares/Third_Party/FreeRTOS/Source/CMSIS_RTOS/cmsis_os.c **** 
1075:Middlewares/Third_Party/FreeRTOS/Source/CMSIS_RTOS/cmsis_os.c **** /*******************   Message Queue Management Functions  *********************/
1076:Middlewares/Third_Party/FreeRTOS/Source/CMSIS_RTOS/cmsis_os.c **** 
1077:Middlewares/Third_Party/FreeRTOS/Source/CMSIS_RTOS/cmsis_os.c **** #if (defined (osFeature_MessageQ)  &&  (osFeature_MessageQ != 0)) /* Use Message Queues */
1078:Middlewares/Third_Party/FreeRTOS/Source/CMSIS_RTOS/cmsis_os.c **** 
1079:Middlewares/Third_Party/FreeRTOS/Source/CMSIS_RTOS/cmsis_os.c **** /**
1080:Middlewares/Third_Party/FreeRTOS/Source/CMSIS_RTOS/cmsis_os.c **** * @brief Create and Initialize a Message Queue
1081:Middlewares/Third_Party/FreeRTOS/Source/CMSIS_RTOS/cmsis_os.c **** * @param queue_def     queue definition referenced with \ref osMessageQ.
1082:Middlewares/Third_Party/FreeRTOS/Source/CMSIS_RTOS/cmsis_os.c **** * @param  thread_id     thread ID (obtained by \ref osThreadCreate or \ref osThreadGetId) or NULL.
1083:Middlewares/Third_Party/FreeRTOS/Source/CMSIS_RTOS/cmsis_os.c **** * @retval  message queue ID for reference by other functions or NULL in case of error.
1084:Middlewares/Third_Party/FreeRTOS/Source/CMSIS_RTOS/cmsis_os.c **** * @note   MUST REMAIN UNCHANGED: \b osMessageCreate shall be consistent in every CMSIS-RTOS.
ARM GAS  /tmp/ccSFdtfu.s 			page 67


1085:Middlewares/Third_Party/FreeRTOS/Source/CMSIS_RTOS/cmsis_os.c **** */
1086:Middlewares/Third_Party/FreeRTOS/Source/CMSIS_RTOS/cmsis_os.c **** osMessageQId osMessageCreate (const osMessageQDef_t *queue_def, osThreadId thread_id)
1087:Middlewares/Third_Party/FreeRTOS/Source/CMSIS_RTOS/cmsis_os.c **** {
 2350              		.loc 1 1087 1 is_stmt 1 view -0
 2351              		.cfi_startproc
 2352              		@ args = 0, pretend = 0, frame = 0
 2353              		@ frame_needed = 0, uses_anonymous_args = 0
1088:Middlewares/Third_Party/FreeRTOS/Source/CMSIS_RTOS/cmsis_os.c ****   (void) thread_id;
 2354              		.loc 1 1088 3 view .LVU591
1089:Middlewares/Third_Party/FreeRTOS/Source/CMSIS_RTOS/cmsis_os.c ****   
1090:Middlewares/Third_Party/FreeRTOS/Source/CMSIS_RTOS/cmsis_os.c **** #if( configSUPPORT_STATIC_ALLOCATION == 1 ) && ( configSUPPORT_DYNAMIC_ALLOCATION == 1 )
1091:Middlewares/Third_Party/FreeRTOS/Source/CMSIS_RTOS/cmsis_os.c **** 
1092:Middlewares/Third_Party/FreeRTOS/Source/CMSIS_RTOS/cmsis_os.c ****   if ((queue_def->buffer != NULL) && (queue_def->controlblock != NULL)) {
1093:Middlewares/Third_Party/FreeRTOS/Source/CMSIS_RTOS/cmsis_os.c ****     return xQueueCreateStatic(queue_def->queue_sz, queue_def->item_sz, queue_def->buffer, queue_def
1094:Middlewares/Third_Party/FreeRTOS/Source/CMSIS_RTOS/cmsis_os.c ****   }
1095:Middlewares/Third_Party/FreeRTOS/Source/CMSIS_RTOS/cmsis_os.c ****   else {
1096:Middlewares/Third_Party/FreeRTOS/Source/CMSIS_RTOS/cmsis_os.c ****     return xQueueCreate(queue_def->queue_sz, queue_def->item_sz);
1097:Middlewares/Third_Party/FreeRTOS/Source/CMSIS_RTOS/cmsis_os.c ****   }
1098:Middlewares/Third_Party/FreeRTOS/Source/CMSIS_RTOS/cmsis_os.c **** #elif ( configSUPPORT_STATIC_ALLOCATION == 1 )
1099:Middlewares/Third_Party/FreeRTOS/Source/CMSIS_RTOS/cmsis_os.c ****   return xQueueCreateStatic(queue_def->queue_sz, queue_def->item_sz, queue_def->buffer, queue_def->
1100:Middlewares/Third_Party/FreeRTOS/Source/CMSIS_RTOS/cmsis_os.c **** #else  
1101:Middlewares/Third_Party/FreeRTOS/Source/CMSIS_RTOS/cmsis_os.c ****   return xQueueCreate(queue_def->queue_sz, queue_def->item_sz);
 2355              		.loc 1 1101 3 view .LVU592
1087:Middlewares/Third_Party/FreeRTOS/Source/CMSIS_RTOS/cmsis_os.c ****   (void) thread_id;
 2356              		.loc 1 1087 1 is_stmt 0 view .LVU593
 2357 0000 10B5     		push	{r4, lr}
 2358              	.LCFI32:
 2359              		.cfi_def_cfa_offset 8
 2360              		.cfi_offset 4, -8
 2361              		.cfi_offset 14, -4
 2362              		.loc 1 1101 10 view .LVU594
 2363 0002 4168     		ldr	r1, [r0, #4]
 2364              	.LVL173:
 2365              		.loc 1 1101 10 view .LVU595
 2366 0004 0022     		movs	r2, #0
 2367 0006 0068     		ldr	r0, [r0]
 2368              	.LVL174:
 2369              		.loc 1 1101 10 view .LVU596
 2370 0008 FFF7FEFF 		bl	xQueueGenericCreate
 2371              	.LVL175:
1102:Middlewares/Third_Party/FreeRTOS/Source/CMSIS_RTOS/cmsis_os.c **** #endif
1103:Middlewares/Third_Party/FreeRTOS/Source/CMSIS_RTOS/cmsis_os.c **** }
 2372              		.loc 1 1103 1 view .LVU597
 2373              		@ sp needed
 2374 000c 10BD     		pop	{r4, pc}
 2375              		.cfi_endproc
 2376              	.LFE68:
 2378 000e C046     		.section	.text.osMessagePut,"ax",%progbits
 2379              		.align	1
 2380              		.p2align 2,,3
 2381              		.global	osMessagePut
 2382              		.syntax unified
 2383              		.code	16
 2384              		.thumb_func
 2385              		.fpu softvfp
 2387              	osMessagePut:
 2388              	.LVL176:
ARM GAS  /tmp/ccSFdtfu.s 			page 68


 2389              	.LFB69:
1104:Middlewares/Third_Party/FreeRTOS/Source/CMSIS_RTOS/cmsis_os.c **** 
1105:Middlewares/Third_Party/FreeRTOS/Source/CMSIS_RTOS/cmsis_os.c **** /**
1106:Middlewares/Third_Party/FreeRTOS/Source/CMSIS_RTOS/cmsis_os.c **** * @brief Put a Message to a Queue.
1107:Middlewares/Third_Party/FreeRTOS/Source/CMSIS_RTOS/cmsis_os.c **** * @param  queue_id  message queue ID obtained with \ref osMessageCreate.
1108:Middlewares/Third_Party/FreeRTOS/Source/CMSIS_RTOS/cmsis_os.c **** * @param  info      message information.
1109:Middlewares/Third_Party/FreeRTOS/Source/CMSIS_RTOS/cmsis_os.c **** * @param  millisec  timeout value or 0 in case of no time-out.
1110:Middlewares/Third_Party/FreeRTOS/Source/CMSIS_RTOS/cmsis_os.c **** * @retval status code that indicates the execution status of the function.
1111:Middlewares/Third_Party/FreeRTOS/Source/CMSIS_RTOS/cmsis_os.c **** * @note   MUST REMAIN UNCHANGED: \b osMessagePut shall be consistent in every CMSIS-RTOS.
1112:Middlewares/Third_Party/FreeRTOS/Source/CMSIS_RTOS/cmsis_os.c **** */
1113:Middlewares/Third_Party/FreeRTOS/Source/CMSIS_RTOS/cmsis_os.c **** osStatus osMessagePut (osMessageQId queue_id, uint32_t info, uint32_t millisec)
1114:Middlewares/Third_Party/FreeRTOS/Source/CMSIS_RTOS/cmsis_os.c **** {
 2390              		.loc 1 1114 1 is_stmt 1 view -0
 2391              		.cfi_startproc
 2392              		@ args = 0, pretend = 0, frame = 16
 2393              		@ frame_needed = 0, uses_anonymous_args = 0
1115:Middlewares/Third_Party/FreeRTOS/Source/CMSIS_RTOS/cmsis_os.c ****   portBASE_TYPE taskWoken = pdFALSE;
 2394              		.loc 1 1115 3 view .LVU599
 2395              		.loc 1 1115 17 is_stmt 0 view .LVU600
 2396 0000 0023     		movs	r3, #0
1114:Middlewares/Third_Party/FreeRTOS/Source/CMSIS_RTOS/cmsis_os.c ****   portBASE_TYPE taskWoken = pdFALSE;
 2397              		.loc 1 1114 1 view .LVU601
 2398 0002 00B5     		push	{lr}
 2399              	.LCFI33:
 2400              		.cfi_def_cfa_offset 4
 2401              		.cfi_offset 14, -4
 2402 0004 85B0     		sub	sp, sp, #20
 2403              	.LCFI34:
 2404              		.cfi_def_cfa_offset 24
1114:Middlewares/Third_Party/FreeRTOS/Source/CMSIS_RTOS/cmsis_os.c ****   portBASE_TYPE taskWoken = pdFALSE;
 2405              		.loc 1 1114 1 view .LVU602
 2406 0006 0191     		str	r1, [sp, #4]
 2407              		.loc 1 1115 17 view .LVU603
 2408 0008 0393     		str	r3, [sp, #12]
1116:Middlewares/Third_Party/FreeRTOS/Source/CMSIS_RTOS/cmsis_os.c ****   TickType_t ticks;
 2409              		.loc 1 1116 3 is_stmt 1 view .LVU604
1117:Middlewares/Third_Party/FreeRTOS/Source/CMSIS_RTOS/cmsis_os.c ****   
1118:Middlewares/Third_Party/FreeRTOS/Source/CMSIS_RTOS/cmsis_os.c ****   ticks = millisec / portTICK_PERIOD_MS;
 2410              		.loc 1 1118 3 view .LVU605
 2411              	.LVL177:
1119:Middlewares/Third_Party/FreeRTOS/Source/CMSIS_RTOS/cmsis_os.c ****   if (ticks == 0) {
 2412              		.loc 1 1119 3 view .LVU606
 2413              		.loc 1 1119 6 is_stmt 0 view .LVU607
 2414 000a 002A     		cmp	r2, #0
 2415 000c 00D1     		bne	.L167
1120:Middlewares/Third_Party/FreeRTOS/Source/CMSIS_RTOS/cmsis_os.c ****     ticks = 1;
 2416              		.loc 1 1120 11 view .LVU608
 2417 000e 0132     		adds	r2, r2, #1
 2418              	.LVL178:
 2419              	.L167:
1121:Middlewares/Third_Party/FreeRTOS/Source/CMSIS_RTOS/cmsis_os.c ****   }
1122:Middlewares/Third_Party/FreeRTOS/Source/CMSIS_RTOS/cmsis_os.c ****   
1123:Middlewares/Third_Party/FreeRTOS/Source/CMSIS_RTOS/cmsis_os.c ****   if (inHandlerMode()) {
 2420              		.loc 1 1123 3 is_stmt 1 view .LVU609
 2421              	.LBB212:
 2422              	.LBI212:
 173:Middlewares/Third_Party/FreeRTOS/Source/CMSIS_RTOS/cmsis_os.c **** {
ARM GAS  /tmp/ccSFdtfu.s 			page 69


 2423              		.loc 1 173 12 view .LVU610
 2424              	.LBE212:
 175:Middlewares/Third_Party/FreeRTOS/Source/CMSIS_RTOS/cmsis_os.c **** }
 2425              		.loc 1 175 3 view .LVU611
 2426              	.LBB215:
 2427              	.LBB213:
 2428              	.LBI213:
 105:Drivers/CMSIS/Include/cmsis_gcc.h **** {
 2429              		.loc 2 105 61 view .LVU612
 2430              	.LBB214:
 107:Drivers/CMSIS/Include/cmsis_gcc.h **** 
 2431              		.loc 2 107 3 view .LVU613
 109:Drivers/CMSIS/Include/cmsis_gcc.h ****   return(result);
 2432              		.loc 2 109 3 view .LVU614
 2433              		.syntax divided
 2434              	@ 109 "Drivers/CMSIS/Include/cmsis_gcc.h" 1
 2435 0010 EFF30583 		MRS r3, ipsr
 2436              	@ 0 "" 2
 2437              	.LVL179:
 2438              		.loc 2 110 3 view .LVU615
 2439              		.loc 2 110 3 is_stmt 0 view .LVU616
 2440              		.thumb
 2441              		.syntax unified
 2442              	.LBE214:
 2443              	.LBE213:
 2444              	.LBE215:
 2445              		.loc 1 1123 6 view .LVU617
 2446 0014 002B     		cmp	r3, #0
 2447 0016 0FD0     		beq	.L168
1124:Middlewares/Third_Party/FreeRTOS/Source/CMSIS_RTOS/cmsis_os.c ****     if (xQueueSendFromISR(queue_id, &info, &taskWoken) != pdTRUE) {
 2448              		.loc 1 1124 5 is_stmt 1 view .LVU618
 2449              		.loc 1 1124 9 is_stmt 0 view .LVU619
 2450 0018 0023     		movs	r3, #0
 2451 001a 03AA     		add	r2, sp, #12
 2452              	.LVL180:
 2453              		.loc 1 1124 9 view .LVU620
 2454 001c 01A9     		add	r1, sp, #4
 2455              	.LVL181:
 2456              		.loc 1 1124 9 view .LVU621
 2457 001e FFF7FEFF 		bl	xQueueGenericSendFromISR
 2458              	.LVL182:
 2459              		.loc 1 1124 8 view .LVU622
 2460 0022 0128     		cmp	r0, #1
 2461 0024 0ED1     		bne	.L169
1125:Middlewares/Third_Party/FreeRTOS/Source/CMSIS_RTOS/cmsis_os.c ****       return osErrorOS;
1126:Middlewares/Third_Party/FreeRTOS/Source/CMSIS_RTOS/cmsis_os.c ****     }
1127:Middlewares/Third_Party/FreeRTOS/Source/CMSIS_RTOS/cmsis_os.c ****     portEND_SWITCHING_ISR(taskWoken);
 2462              		.loc 1 1127 5 is_stmt 1 view .LVU623
 2463 0026 039B     		ldr	r3, [sp, #12]
 2464 0028 002B     		cmp	r3, #0
 2465 002a 03D0     		beq	.L176
 2466              		.loc 1 1127 5 discriminator 1 view .LVU624
 2467 002c 8022     		movs	r2, #128
 2468 002e 074B     		ldr	r3, .L177
 2469 0030 5205     		lsls	r2, r2, #21
 2470 0032 1A60     		str	r2, [r3]
 2471              	.L176:
ARM GAS  /tmp/ccSFdtfu.s 			page 70


1128:Middlewares/Third_Party/FreeRTOS/Source/CMSIS_RTOS/cmsis_os.c ****   }
1129:Middlewares/Third_Party/FreeRTOS/Source/CMSIS_RTOS/cmsis_os.c ****   else {
1130:Middlewares/Third_Party/FreeRTOS/Source/CMSIS_RTOS/cmsis_os.c ****     if (xQueueSend(queue_id, &info, ticks) != pdTRUE) {
1131:Middlewares/Third_Party/FreeRTOS/Source/CMSIS_RTOS/cmsis_os.c ****       return osErrorOS;
1132:Middlewares/Third_Party/FreeRTOS/Source/CMSIS_RTOS/cmsis_os.c ****     }
1133:Middlewares/Third_Party/FreeRTOS/Source/CMSIS_RTOS/cmsis_os.c ****   }
1134:Middlewares/Third_Party/FreeRTOS/Source/CMSIS_RTOS/cmsis_os.c ****   
1135:Middlewares/Third_Party/FreeRTOS/Source/CMSIS_RTOS/cmsis_os.c ****   return osOK;
 2472              		.loc 1 1135 10 is_stmt 0 discriminator 1 view .LVU625
 2473 0034 0020     		movs	r0, #0
 2474 0036 06E0     		b	.L166
 2475              	.LVL183:
 2476              	.L168:
1130:Middlewares/Third_Party/FreeRTOS/Source/CMSIS_RTOS/cmsis_os.c ****       return osErrorOS;
 2477              		.loc 1 1130 5 is_stmt 1 view .LVU626
1130:Middlewares/Third_Party/FreeRTOS/Source/CMSIS_RTOS/cmsis_os.c ****       return osErrorOS;
 2478              		.loc 1 1130 9 is_stmt 0 view .LVU627
 2479 0038 0023     		movs	r3, #0
 2480 003a 01A9     		add	r1, sp, #4
 2481              	.LVL184:
1130:Middlewares/Third_Party/FreeRTOS/Source/CMSIS_RTOS/cmsis_os.c ****       return osErrorOS;
 2482              		.loc 1 1130 9 view .LVU628
 2483 003c FFF7FEFF 		bl	xQueueGenericSend
 2484              	.LVL185:
1130:Middlewares/Third_Party/FreeRTOS/Source/CMSIS_RTOS/cmsis_os.c ****       return osErrorOS;
 2485              		.loc 1 1130 8 view .LVU629
 2486 0040 0128     		cmp	r0, #1
 2487 0042 F7D0     		beq	.L176
 2488              	.L169:
1131:Middlewares/Third_Party/FreeRTOS/Source/CMSIS_RTOS/cmsis_os.c ****     }
 2489              		.loc 1 1131 7 is_stmt 1 view .LVU630
1131:Middlewares/Third_Party/FreeRTOS/Source/CMSIS_RTOS/cmsis_os.c ****     }
 2490              		.loc 1 1131 14 is_stmt 0 view .LVU631
 2491 0044 FF20     		movs	r0, #255
 2492              	.L166:
1136:Middlewares/Third_Party/FreeRTOS/Source/CMSIS_RTOS/cmsis_os.c **** }
 2493              		.loc 1 1136 1 view .LVU632
 2494 0046 05B0     		add	sp, sp, #20
 2495              		@ sp needed
 2496 0048 00BD     		pop	{pc}
 2497              	.L178:
 2498 004a C046     		.align	2
 2499              	.L177:
 2500 004c 04ED00E0 		.word	-536810236
 2501              		.cfi_endproc
 2502              	.LFE69:
 2504              		.section	.text.osMessageGet,"ax",%progbits
 2505              		.align	1
 2506              		.p2align 2,,3
 2507              		.global	osMessageGet
 2508              		.syntax unified
 2509              		.code	16
 2510              		.thumb_func
 2511              		.fpu softvfp
 2513              	osMessageGet:
 2514              	.LVL186:
 2515              	.LFB70:
ARM GAS  /tmp/ccSFdtfu.s 			page 71


1137:Middlewares/Third_Party/FreeRTOS/Source/CMSIS_RTOS/cmsis_os.c **** 
1138:Middlewares/Third_Party/FreeRTOS/Source/CMSIS_RTOS/cmsis_os.c **** /**
1139:Middlewares/Third_Party/FreeRTOS/Source/CMSIS_RTOS/cmsis_os.c **** * @brief Get a Message or Wait for a Message from a Queue.
1140:Middlewares/Third_Party/FreeRTOS/Source/CMSIS_RTOS/cmsis_os.c **** * @param  queue_id  message queue ID obtained with \ref osMessageCreate.
1141:Middlewares/Third_Party/FreeRTOS/Source/CMSIS_RTOS/cmsis_os.c **** * @param  millisec  timeout value or 0 in case of no time-out.
1142:Middlewares/Third_Party/FreeRTOS/Source/CMSIS_RTOS/cmsis_os.c **** * @retval event information that includes status code.
