ARM GAS  /tmp/ccDDwqiC.s 			page 1


   1              		.cpu cortex-m0
   2              		.eabi_attribute 20, 1
   3              		.eabi_attribute 21, 1
   4              		.eabi_attribute 23, 3
   5              		.eabi_attribute 24, 1
   6              		.eabi_attribute 25, 1
   7              		.eabi_attribute 26, 1
   8              		.eabi_attribute 30, 2
   9              		.eabi_attribute 34, 0
  10              		.eabi_attribute 18, 4
  11              		.file	"stm32f0xx_hal_uart.c"
  12              		.text
  13              	.Ltext0:
  14              		.cfi_sections	.debug_frame
  15              		.section	.text.HAL_UART_MspInit,"ax",%progbits
  16              		.align	1
  17              		.p2align 2,,3
  18              		.weak	HAL_UART_MspInit
  19              		.arch armv6s-m
  20              		.syntax unified
  21              		.code	16
  22              		.thumb_func
  23              		.fpu softvfp
  25              	HAL_UART_MspInit:
  26              	.LVL0:
  27              	.LFB41:
  28              		.file 1 "Drivers/STM32F0xx_HAL_Driver/Src/stm32f0xx_hal_uart.c"
   1:Drivers/STM32F0xx_HAL_Driver/Src/stm32f0xx_hal_uart.c **** /**
   2:Drivers/STM32F0xx_HAL_Driver/Src/stm32f0xx_hal_uart.c ****   ******************************************************************************
   3:Drivers/STM32F0xx_HAL_Driver/Src/stm32f0xx_hal_uart.c ****   * @file    stm32f0xx_hal_uart.c
   4:Drivers/STM32F0xx_HAL_Driver/Src/stm32f0xx_hal_uart.c ****   * @author  MCD Application Team
   5:Drivers/STM32F0xx_HAL_Driver/Src/stm32f0xx_hal_uart.c ****   * @brief   UART HAL module driver.
   6:Drivers/STM32F0xx_HAL_Driver/Src/stm32f0xx_hal_uart.c ****   *          This file provides firmware functions to manage the following 
   7:Drivers/STM32F0xx_HAL_Driver/Src/stm32f0xx_hal_uart.c ****   *          functionalities of the Universal Asynchronous Receiver Transmitter (UART) peripheral:
   8:Drivers/STM32F0xx_HAL_Driver/Src/stm32f0xx_hal_uart.c ****   *           + Initialization and de-initialization functions
   9:Drivers/STM32F0xx_HAL_Driver/Src/stm32f0xx_hal_uart.c ****   *           + IO operation functions
  10:Drivers/STM32F0xx_HAL_Driver/Src/stm32f0xx_hal_uart.c ****   *           + Peripheral Control functions
  11:Drivers/STM32F0xx_HAL_Driver/Src/stm32f0xx_hal_uart.c ****   *           + Peripheral State and Errors functions
  12:Drivers/STM32F0xx_HAL_Driver/Src/stm32f0xx_hal_uart.c ****   *
  13:Drivers/STM32F0xx_HAL_Driver/Src/stm32f0xx_hal_uart.c ****   @verbatim
  14:Drivers/STM32F0xx_HAL_Driver/Src/stm32f0xx_hal_uart.c ****  ===============================================================================
  15:Drivers/STM32F0xx_HAL_Driver/Src/stm32f0xx_hal_uart.c ****                         ##### How to use this driver #####
  16:Drivers/STM32F0xx_HAL_Driver/Src/stm32f0xx_hal_uart.c ****  ===============================================================================
  17:Drivers/STM32F0xx_HAL_Driver/Src/stm32f0xx_hal_uart.c ****   [..]
  18:Drivers/STM32F0xx_HAL_Driver/Src/stm32f0xx_hal_uart.c ****     The UART HAL driver can be used as follows:
  19:Drivers/STM32F0xx_HAL_Driver/Src/stm32f0xx_hal_uart.c **** 
  20:Drivers/STM32F0xx_HAL_Driver/Src/stm32f0xx_hal_uart.c ****     (#) Declare a UART_HandleTypeDef handle structure (eg. UART_HandleTypeDef huart).
  21:Drivers/STM32F0xx_HAL_Driver/Src/stm32f0xx_hal_uart.c ****     (#) Initialize the UART low level resources by implementing the HAL_UART_MspInit() API:
  22:Drivers/STM32F0xx_HAL_Driver/Src/stm32f0xx_hal_uart.c ****         (++) Enable the USARTx interface clock.
  23:Drivers/STM32F0xx_HAL_Driver/Src/stm32f0xx_hal_uart.c ****         (++) UART pins configuration:
  24:Drivers/STM32F0xx_HAL_Driver/Src/stm32f0xx_hal_uart.c ****             (+++) Enable the clock for the UART GPIOs.
  25:Drivers/STM32F0xx_HAL_Driver/Src/stm32f0xx_hal_uart.c ****             (+++) Configure these UART pins as alternate function pull-up.
  26:Drivers/STM32F0xx_HAL_Driver/Src/stm32f0xx_hal_uart.c ****         (++) NVIC configuration if you need to use interrupt process (HAL_UART_Transmit_IT()
  27:Drivers/STM32F0xx_HAL_Driver/Src/stm32f0xx_hal_uart.c ****              and HAL_UART_Receive_IT() APIs):
  28:Drivers/STM32F0xx_HAL_Driver/Src/stm32f0xx_hal_uart.c ****             (+++) Configure the USARTx interrupt priority.
  29:Drivers/STM32F0xx_HAL_Driver/Src/stm32f0xx_hal_uart.c ****             (+++) Enable the NVIC USART IRQ handle.
  30:Drivers/STM32F0xx_HAL_Driver/Src/stm32f0xx_hal_uart.c ****         (++) UART interrupts handling:
ARM GAS  /tmp/ccDDwqiC.s 			page 2


  31:Drivers/STM32F0xx_HAL_Driver/Src/stm32f0xx_hal_uart.c ****               -@@-  The specific UART interrupts (Transmission complete interrupt,
  32:Drivers/STM32F0xx_HAL_Driver/Src/stm32f0xx_hal_uart.c ****                 RXNE interrupt and Error Interrupts) are managed using the macros
  33:Drivers/STM32F0xx_HAL_Driver/Src/stm32f0xx_hal_uart.c ****                 __HAL_UART_ENABLE_IT() and __HAL_UART_DISABLE_IT() inside the transmit and receive 
  34:Drivers/STM32F0xx_HAL_Driver/Src/stm32f0xx_hal_uart.c ****         (++) DMA Configuration if you need to use DMA process (HAL_UART_Transmit_DMA()
  35:Drivers/STM32F0xx_HAL_Driver/Src/stm32f0xx_hal_uart.c ****              and HAL_UART_Receive_DMA() APIs):
  36:Drivers/STM32F0xx_HAL_Driver/Src/stm32f0xx_hal_uart.c ****             (+++) Declare a DMA handle structure for the Tx/Rx channel.
  37:Drivers/STM32F0xx_HAL_Driver/Src/stm32f0xx_hal_uart.c ****             (+++) Enable the DMAx interface clock.
  38:Drivers/STM32F0xx_HAL_Driver/Src/stm32f0xx_hal_uart.c ****             (+++) Configure the declared DMA handle structure with the required Tx/Rx parameters.
  39:Drivers/STM32F0xx_HAL_Driver/Src/stm32f0xx_hal_uart.c ****             (+++) Configure the DMA Tx/Rx channel.
  40:Drivers/STM32F0xx_HAL_Driver/Src/stm32f0xx_hal_uart.c ****             (+++) Associate the initialized DMA handle to the UART DMA Tx/Rx handle.
  41:Drivers/STM32F0xx_HAL_Driver/Src/stm32f0xx_hal_uart.c ****             (+++) Configure the priority and enable the NVIC for the transfer complete interrupt on
  42:Drivers/STM32F0xx_HAL_Driver/Src/stm32f0xx_hal_uart.c **** 
  43:Drivers/STM32F0xx_HAL_Driver/Src/stm32f0xx_hal_uart.c ****     (#) Program the Baud Rate, Word Length, Stop Bit, Parity, Hardware
  44:Drivers/STM32F0xx_HAL_Driver/Src/stm32f0xx_hal_uart.c ****         flow control and Mode (Receiver/Transmitter) in the huart handle Init structure.
  45:Drivers/STM32F0xx_HAL_Driver/Src/stm32f0xx_hal_uart.c **** 
  46:Drivers/STM32F0xx_HAL_Driver/Src/stm32f0xx_hal_uart.c ****     (#) If required, program UART advanced features (TX/RX pins swap, auto Baud rate detection,...)
  47:Drivers/STM32F0xx_HAL_Driver/Src/stm32f0xx_hal_uart.c ****         in the huart handle AdvancedInit structure.
  48:Drivers/STM32F0xx_HAL_Driver/Src/stm32f0xx_hal_uart.c **** 
  49:Drivers/STM32F0xx_HAL_Driver/Src/stm32f0xx_hal_uart.c ****     (#) For the UART asynchronous mode, initialize the UART registers by calling
  50:Drivers/STM32F0xx_HAL_Driver/Src/stm32f0xx_hal_uart.c ****         the HAL_UART_Init() API.
  51:Drivers/STM32F0xx_HAL_Driver/Src/stm32f0xx_hal_uart.c **** 
  52:Drivers/STM32F0xx_HAL_Driver/Src/stm32f0xx_hal_uart.c ****     (#) For the UART Half duplex mode, initialize the UART registers by calling
  53:Drivers/STM32F0xx_HAL_Driver/Src/stm32f0xx_hal_uart.c ****         the HAL_HalfDuplex_Init() API.
  54:Drivers/STM32F0xx_HAL_Driver/Src/stm32f0xx_hal_uart.c **** 
  55:Drivers/STM32F0xx_HAL_Driver/Src/stm32f0xx_hal_uart.c ****     (#) For the UART Multiprocessor mode, initialize the UART registers
  56:Drivers/STM32F0xx_HAL_Driver/Src/stm32f0xx_hal_uart.c ****         by calling the HAL_MultiProcessor_Init() API.
  57:Drivers/STM32F0xx_HAL_Driver/Src/stm32f0xx_hal_uart.c **** 
  58:Drivers/STM32F0xx_HAL_Driver/Src/stm32f0xx_hal_uart.c ****     (#) For the UART RS485 Driver Enabled mode, initialize the UART registers
  59:Drivers/STM32F0xx_HAL_Driver/Src/stm32f0xx_hal_uart.c ****         by calling the HAL_RS485Ex_Init() API.
  60:Drivers/STM32F0xx_HAL_Driver/Src/stm32f0xx_hal_uart.c **** 
  61:Drivers/STM32F0xx_HAL_Driver/Src/stm32f0xx_hal_uart.c ****    [..]
  62:Drivers/STM32F0xx_HAL_Driver/Src/stm32f0xx_hal_uart.c ****     (@) These APIs(HAL_UART_Init(), HAL_HalfDuplex_Init(), HAL_MultiProcessor_Init(),
  63:Drivers/STM32F0xx_HAL_Driver/Src/stm32f0xx_hal_uart.c ****         also configure the low level Hardware GPIO, CLOCK, CORTEX...etc) by
  64:Drivers/STM32F0xx_HAL_Driver/Src/stm32f0xx_hal_uart.c ****         calling the customized HAL_UART_MspInit() API.
  65:Drivers/STM32F0xx_HAL_Driver/Src/stm32f0xx_hal_uart.c **** 
  66:Drivers/STM32F0xx_HAL_Driver/Src/stm32f0xx_hal_uart.c ****    [..]
  67:Drivers/STM32F0xx_HAL_Driver/Src/stm32f0xx_hal_uart.c ****    [..] Three operation modes are available within this driver :     
  68:Drivers/STM32F0xx_HAL_Driver/Src/stm32f0xx_hal_uart.c ****   
  69:Drivers/STM32F0xx_HAL_Driver/Src/stm32f0xx_hal_uart.c ****      *** Polling mode IO operation ***
  70:Drivers/STM32F0xx_HAL_Driver/Src/stm32f0xx_hal_uart.c ****      =================================
  71:Drivers/STM32F0xx_HAL_Driver/Src/stm32f0xx_hal_uart.c ****      [..]    
  72:Drivers/STM32F0xx_HAL_Driver/Src/stm32f0xx_hal_uart.c ****        (+) Send an amount of data in blocking mode using HAL_UART_Transmit() 
  73:Drivers/STM32F0xx_HAL_Driver/Src/stm32f0xx_hal_uart.c ****        (+) Receive an amount of data in blocking mode using HAL_UART_Receive()
  74:Drivers/STM32F0xx_HAL_Driver/Src/stm32f0xx_hal_uart.c ****        
  75:Drivers/STM32F0xx_HAL_Driver/Src/stm32f0xx_hal_uart.c ****      *** Interrupt mode IO operation ***    
  76:Drivers/STM32F0xx_HAL_Driver/Src/stm32f0xx_hal_uart.c ****      ===================================
  77:Drivers/STM32F0xx_HAL_Driver/Src/stm32f0xx_hal_uart.c ****      [..]    
  78:Drivers/STM32F0xx_HAL_Driver/Src/stm32f0xx_hal_uart.c ****        (+) Send an amount of data in non blocking mode using HAL_UART_Transmit_IT() 
  79:Drivers/STM32F0xx_HAL_Driver/Src/stm32f0xx_hal_uart.c ****        (+) At transmission end of half transfer HAL_UART_TxHalfCpltCallback is executed and user ca
  80:Drivers/STM32F0xx_HAL_Driver/Src/stm32f0xx_hal_uart.c ****             add his own code by customization of function pointer HAL_UART_TxHalfCpltCallback 
  81:Drivers/STM32F0xx_HAL_Driver/Src/stm32f0xx_hal_uart.c ****        (+) At transmission end of transfer HAL_UART_TxCpltCallback is executed and user can 
  82:Drivers/STM32F0xx_HAL_Driver/Src/stm32f0xx_hal_uart.c ****             add his own code by customization of function pointer HAL_UART_TxCpltCallback
  83:Drivers/STM32F0xx_HAL_Driver/Src/stm32f0xx_hal_uart.c ****        (+) Receive an amount of data in non blocking mode using HAL_UART_Receive_IT() 
  84:Drivers/STM32F0xx_HAL_Driver/Src/stm32f0xx_hal_uart.c ****        (+) At reception end of half transfer HAL_UART_RxHalfCpltCallback is executed and user can 
  85:Drivers/STM32F0xx_HAL_Driver/Src/stm32f0xx_hal_uart.c ****             add his own code by customization of function pointer HAL_UART_RxHalfCpltCallback 
  86:Drivers/STM32F0xx_HAL_Driver/Src/stm32f0xx_hal_uart.c ****        (+) At reception end of transfer HAL_UART_RxCpltCallback is executed and user can 
  87:Drivers/STM32F0xx_HAL_Driver/Src/stm32f0xx_hal_uart.c ****             add his own code by customization of function pointer HAL_UART_RxCpltCallback          
ARM GAS  /tmp/ccDDwqiC.s 			page 3


  88:Drivers/STM32F0xx_HAL_Driver/Src/stm32f0xx_hal_uart.c ****        (+) In case of transfer Error, HAL_UART_ErrorCallback() function is executed and user can 
  89:Drivers/STM32F0xx_HAL_Driver/Src/stm32f0xx_hal_uart.c ****             add his own code by customization of function pointer HAL_UART_ErrorCallback
  90:Drivers/STM32F0xx_HAL_Driver/Src/stm32f0xx_hal_uart.c **** 
  91:Drivers/STM32F0xx_HAL_Driver/Src/stm32f0xx_hal_uart.c ****      *** DMA mode IO operation ***    
  92:Drivers/STM32F0xx_HAL_Driver/Src/stm32f0xx_hal_uart.c ****      ==============================
  93:Drivers/STM32F0xx_HAL_Driver/Src/stm32f0xx_hal_uart.c ****      [..] 
  94:Drivers/STM32F0xx_HAL_Driver/Src/stm32f0xx_hal_uart.c ****        (+) Send an amount of data in non blocking mode (DMA) using HAL_UART_Transmit_DMA() 
  95:Drivers/STM32F0xx_HAL_Driver/Src/stm32f0xx_hal_uart.c ****        (+) At transmission end of half transfer HAL_UART_TxHalfCpltCallback is executed and user ca
  96:Drivers/STM32F0xx_HAL_Driver/Src/stm32f0xx_hal_uart.c ****             add his own code by customization of function pointer HAL_UART_TxHalfCpltCallback 
  97:Drivers/STM32F0xx_HAL_Driver/Src/stm32f0xx_hal_uart.c ****        (+) At transmission end of transfer HAL_UART_TxCpltCallback is executed and user can 
  98:Drivers/STM32F0xx_HAL_Driver/Src/stm32f0xx_hal_uart.c ****             add his own code by customization of function pointer HAL_UART_TxCpltCallback
  99:Drivers/STM32F0xx_HAL_Driver/Src/stm32f0xx_hal_uart.c ****        (+) Receive an amount of data in non blocking mode (DMA) using HAL_UART_Receive_DMA() 
 100:Drivers/STM32F0xx_HAL_Driver/Src/stm32f0xx_hal_uart.c ****        (+) At reception end of half transfer HAL_UART_RxHalfCpltCallback is executed and user can 
 101:Drivers/STM32F0xx_HAL_Driver/Src/stm32f0xx_hal_uart.c ****             add his own code by customization of function pointer HAL_UART_RxHalfCpltCallback 
 102:Drivers/STM32F0xx_HAL_Driver/Src/stm32f0xx_hal_uart.c ****        (+) At reception end of transfer HAL_UART_RxCpltCallback is executed and user can 
 103:Drivers/STM32F0xx_HAL_Driver/Src/stm32f0xx_hal_uart.c ****             add his own code by customization of function pointer HAL_UART_RxCpltCallback          
 104:Drivers/STM32F0xx_HAL_Driver/Src/stm32f0xx_hal_uart.c ****        (+) In case of transfer Error, HAL_UART_ErrorCallback() function is executed and user can 
 105:Drivers/STM32F0xx_HAL_Driver/Src/stm32f0xx_hal_uart.c ****             add his own code by customization of function pointer HAL_UART_ErrorCallback
 106:Drivers/STM32F0xx_HAL_Driver/Src/stm32f0xx_hal_uart.c ****        (+) Pause the DMA Transfer using HAL_UART_DMAPause()      
 107:Drivers/STM32F0xx_HAL_Driver/Src/stm32f0xx_hal_uart.c ****        (+) Resume the DMA Transfer using HAL_UART_DMAResume()  
 108:Drivers/STM32F0xx_HAL_Driver/Src/stm32f0xx_hal_uart.c ****        (+) Stop the DMA Transfer using HAL_UART_DMAStop()      
 109:Drivers/STM32F0xx_HAL_Driver/Src/stm32f0xx_hal_uart.c ****     
 110:Drivers/STM32F0xx_HAL_Driver/Src/stm32f0xx_hal_uart.c ****      *** UART HAL driver macros list ***
 111:Drivers/STM32F0xx_HAL_Driver/Src/stm32f0xx_hal_uart.c ****      ============================================= 
 112:Drivers/STM32F0xx_HAL_Driver/Src/stm32f0xx_hal_uart.c ****      [..]
 113:Drivers/STM32F0xx_HAL_Driver/Src/stm32f0xx_hal_uart.c ****        Below the list of most used macros in UART HAL driver.
 114:Drivers/STM32F0xx_HAL_Driver/Src/stm32f0xx_hal_uart.c ****        
 115:Drivers/STM32F0xx_HAL_Driver/Src/stm32f0xx_hal_uart.c ****       (+) __HAL_UART_ENABLE: Enable the UART peripheral 
 116:Drivers/STM32F0xx_HAL_Driver/Src/stm32f0xx_hal_uart.c ****       (+) __HAL_UART_DISABLE: Disable the UART peripheral     
 117:Drivers/STM32F0xx_HAL_Driver/Src/stm32f0xx_hal_uart.c ****       (+) __HAL_UART_GET_FLAG : Check whether the specified UART flag is set or not
 118:Drivers/STM32F0xx_HAL_Driver/Src/stm32f0xx_hal_uart.c ****       (+) __HAL_UART_CLEAR_FLAG : Clear the specified UART pending flag
 119:Drivers/STM32F0xx_HAL_Driver/Src/stm32f0xx_hal_uart.c ****       (+) __HAL_UART_ENABLE_IT: Enable the specified UART interrupt
 120:Drivers/STM32F0xx_HAL_Driver/Src/stm32f0xx_hal_uart.c ****       (+) __HAL_UART_DISABLE_IT: Disable the specified UART interrupt
 121:Drivers/STM32F0xx_HAL_Driver/Src/stm32f0xx_hal_uart.c ****       
 122:Drivers/STM32F0xx_HAL_Driver/Src/stm32f0xx_hal_uart.c ****      [..] 
 123:Drivers/STM32F0xx_HAL_Driver/Src/stm32f0xx_hal_uart.c ****        (@) You can refer to the UART HAL driver header file for more useful macros 
 124:Drivers/STM32F0xx_HAL_Driver/Src/stm32f0xx_hal_uart.c ****       
 125:Drivers/STM32F0xx_HAL_Driver/Src/stm32f0xx_hal_uart.c ****   @endverbatim
 126:Drivers/STM32F0xx_HAL_Driver/Src/stm32f0xx_hal_uart.c ****   ******************************************************************************
 127:Drivers/STM32F0xx_HAL_Driver/Src/stm32f0xx_hal_uart.c ****   * @attention
 128:Drivers/STM32F0xx_HAL_Driver/Src/stm32f0xx_hal_uart.c ****   *
 129:Drivers/STM32F0xx_HAL_Driver/Src/stm32f0xx_hal_uart.c ****   * <h2><center>&copy; COPYRIGHT(c) 2016 STMicroelectronics</center></h2>
 130:Drivers/STM32F0xx_HAL_Driver/Src/stm32f0xx_hal_uart.c ****   *
 131:Drivers/STM32F0xx_HAL_Driver/Src/stm32f0xx_hal_uart.c ****   * Redistribution and use in source and binary forms, with or without modification,
 132:Drivers/STM32F0xx_HAL_Driver/Src/stm32f0xx_hal_uart.c ****   * are permitted provided that the following conditions are met:
 133:Drivers/STM32F0xx_HAL_Driver/Src/stm32f0xx_hal_uart.c ****   *   1. Redistributions of source code must retain the above copyright notice,
 134:Drivers/STM32F0xx_HAL_Driver/Src/stm32f0xx_hal_uart.c ****   *      this list of conditions and the following disclaimer.
 135:Drivers/STM32F0xx_HAL_Driver/Src/stm32f0xx_hal_uart.c ****   *   2. Redistributions in binary form must reproduce the above copyright notice,
 136:Drivers/STM32F0xx_HAL_Driver/Src/stm32f0xx_hal_uart.c ****   *      this list of conditions and the following disclaimer in the documentation
 137:Drivers/STM32F0xx_HAL_Driver/Src/stm32f0xx_hal_uart.c ****   *      and/or other materials provided with the distribution.
 138:Drivers/STM32F0xx_HAL_Driver/Src/stm32f0xx_hal_uart.c ****   *   3. Neither the name of STMicroelectronics nor the names of its contributors
 139:Drivers/STM32F0xx_HAL_Driver/Src/stm32f0xx_hal_uart.c ****   *      may be used to endorse or promote products derived from this software
 140:Drivers/STM32F0xx_HAL_Driver/Src/stm32f0xx_hal_uart.c ****   *      without specific prior written permission.
 141:Drivers/STM32F0xx_HAL_Driver/Src/stm32f0xx_hal_uart.c ****   *
 142:Drivers/STM32F0xx_HAL_Driver/Src/stm32f0xx_hal_uart.c ****   * THIS SOFTWARE IS PROVIDED BY THE COPYRIGHT HOLDERS AND CONTRIBUTORS "AS IS"
 143:Drivers/STM32F0xx_HAL_Driver/Src/stm32f0xx_hal_uart.c ****   * AND ANY EXPRESS OR IMPLIED WARRANTIES, INCLUDING, BUT NOT LIMITED TO, THE
 144:Drivers/STM32F0xx_HAL_Driver/Src/stm32f0xx_hal_uart.c ****   * IMPLIED WARRANTIES OF MERCHANTABILITY AND FITNESS FOR A PARTICULAR PURPOSE ARE
ARM GAS  /tmp/ccDDwqiC.s 			page 4


 145:Drivers/STM32F0xx_HAL_Driver/Src/stm32f0xx_hal_uart.c ****   * DISCLAIMED. IN NO EVENT SHALL THE COPYRIGHT HOLDER OR CONTRIBUTORS BE LIABLE
 146:Drivers/STM32F0xx_HAL_Driver/Src/stm32f0xx_hal_uart.c ****   * FOR ANY DIRECT, INDIRECT, INCIDENTAL, SPECIAL, EXEMPLARY, OR CONSEQUENTIAL
 147:Drivers/STM32F0xx_HAL_Driver/Src/stm32f0xx_hal_uart.c ****   * DAMAGES (INCLUDING, BUT NOT LIMITED TO, PROCUREMENT OF SUBSTITUTE GOODS OR
 148:Drivers/STM32F0xx_HAL_Driver/Src/stm32f0xx_hal_uart.c ****   * SERVICES; LOSS OF USE, DATA, OR PROFITS; OR BUSINESS INTERRUPTION) HOWEVER
 149:Drivers/STM32F0xx_HAL_Driver/Src/stm32f0xx_hal_uart.c ****   * CAUSED AND ON ANY THEORY OF LIABILITY, WHETHER IN CONTRACT, STRICT LIABILITY,
 150:Drivers/STM32F0xx_HAL_Driver/Src/stm32f0xx_hal_uart.c ****   * OR TORT (INCLUDING NEGLIGENCE OR OTHERWISE) ARISING IN ANY WAY OUT OF THE USE
 151:Drivers/STM32F0xx_HAL_Driver/Src/stm32f0xx_hal_uart.c ****   * OF THIS SOFTWARE, EVEN IF ADVISED OF THE POSSIBILITY OF SUCH DAMAGE.
 152:Drivers/STM32F0xx_HAL_Driver/Src/stm32f0xx_hal_uart.c ****   *
 153:Drivers/STM32F0xx_HAL_Driver/Src/stm32f0xx_hal_uart.c ****   ******************************************************************************
 154:Drivers/STM32F0xx_HAL_Driver/Src/stm32f0xx_hal_uart.c ****   */
 155:Drivers/STM32F0xx_HAL_Driver/Src/stm32f0xx_hal_uart.c **** 
 156:Drivers/STM32F0xx_HAL_Driver/Src/stm32f0xx_hal_uart.c **** /* Includes ------------------------------------------------------------------*/
 157:Drivers/STM32F0xx_HAL_Driver/Src/stm32f0xx_hal_uart.c **** #include "stm32f0xx_hal.h"
 158:Drivers/STM32F0xx_HAL_Driver/Src/stm32f0xx_hal_uart.c **** 
 159:Drivers/STM32F0xx_HAL_Driver/Src/stm32f0xx_hal_uart.c **** /** @addtogroup STM32F0xx_HAL_Driver
 160:Drivers/STM32F0xx_HAL_Driver/Src/stm32f0xx_hal_uart.c ****   * @{
 161:Drivers/STM32F0xx_HAL_Driver/Src/stm32f0xx_hal_uart.c ****   */
 162:Drivers/STM32F0xx_HAL_Driver/Src/stm32f0xx_hal_uart.c **** 
 163:Drivers/STM32F0xx_HAL_Driver/Src/stm32f0xx_hal_uart.c **** /** @defgroup UART UART
 164:Drivers/STM32F0xx_HAL_Driver/Src/stm32f0xx_hal_uart.c ****   * @brief HAL UART module driver
 165:Drivers/STM32F0xx_HAL_Driver/Src/stm32f0xx_hal_uart.c ****   * @{
 166:Drivers/STM32F0xx_HAL_Driver/Src/stm32f0xx_hal_uart.c ****   */
 167:Drivers/STM32F0xx_HAL_Driver/Src/stm32f0xx_hal_uart.c **** 
 168:Drivers/STM32F0xx_HAL_Driver/Src/stm32f0xx_hal_uart.c **** #ifdef HAL_UART_MODULE_ENABLED
 169:Drivers/STM32F0xx_HAL_Driver/Src/stm32f0xx_hal_uart.c **** 
 170:Drivers/STM32F0xx_HAL_Driver/Src/stm32f0xx_hal_uart.c **** /* Private typedef -----------------------------------------------------------*/
 171:Drivers/STM32F0xx_HAL_Driver/Src/stm32f0xx_hal_uart.c **** /* Private define ------------------------------------------------------------*/
 172:Drivers/STM32F0xx_HAL_Driver/Src/stm32f0xx_hal_uart.c **** /** @defgroup UART_Private_Constants UART Private Constants
 173:Drivers/STM32F0xx_HAL_Driver/Src/stm32f0xx_hal_uart.c ****   * @{
 174:Drivers/STM32F0xx_HAL_Driver/Src/stm32f0xx_hal_uart.c ****   */
 175:Drivers/STM32F0xx_HAL_Driver/Src/stm32f0xx_hal_uart.c **** #define UART_CR1_FIELDS  ((uint32_t)(USART_CR1_M | USART_CR1_PCE | USART_CR1_PS | \
 176:Drivers/STM32F0xx_HAL_Driver/Src/stm32f0xx_hal_uart.c ****                                      USART_CR1_TE | USART_CR1_RE | USART_CR1_OVER8)) /*!< UART or U
 177:Drivers/STM32F0xx_HAL_Driver/Src/stm32f0xx_hal_uart.c **** /**
 178:Drivers/STM32F0xx_HAL_Driver/Src/stm32f0xx_hal_uart.c ****   * @}
 179:Drivers/STM32F0xx_HAL_Driver/Src/stm32f0xx_hal_uart.c ****   */
 180:Drivers/STM32F0xx_HAL_Driver/Src/stm32f0xx_hal_uart.c **** 
 181:Drivers/STM32F0xx_HAL_Driver/Src/stm32f0xx_hal_uart.c **** /* Private macros ------------------------------------------------------------*/
 182:Drivers/STM32F0xx_HAL_Driver/Src/stm32f0xx_hal_uart.c **** /* Private variables ---------------------------------------------------------*/
 183:Drivers/STM32F0xx_HAL_Driver/Src/stm32f0xx_hal_uart.c **** /* Private function prototypes -----------------------------------------------*/
 184:Drivers/STM32F0xx_HAL_Driver/Src/stm32f0xx_hal_uart.c **** /** @addtogroup UART_Private_Functions
 185:Drivers/STM32F0xx_HAL_Driver/Src/stm32f0xx_hal_uart.c ****   * @{
 186:Drivers/STM32F0xx_HAL_Driver/Src/stm32f0xx_hal_uart.c ****   */
 187:Drivers/STM32F0xx_HAL_Driver/Src/stm32f0xx_hal_uart.c **** static void UART_EndTxTransfer(UART_HandleTypeDef *huart);
 188:Drivers/STM32F0xx_HAL_Driver/Src/stm32f0xx_hal_uart.c **** static void UART_EndRxTransfer(UART_HandleTypeDef *huart);
 189:Drivers/STM32F0xx_HAL_Driver/Src/stm32f0xx_hal_uart.c **** static void UART_DMATransmitCplt(DMA_HandleTypeDef *hdma);
 190:Drivers/STM32F0xx_HAL_Driver/Src/stm32f0xx_hal_uart.c **** static void UART_DMATxHalfCplt(DMA_HandleTypeDef *hdma);
 191:Drivers/STM32F0xx_HAL_Driver/Src/stm32f0xx_hal_uart.c **** static void UART_DMAReceiveCplt(DMA_HandleTypeDef *hdma);
 192:Drivers/STM32F0xx_HAL_Driver/Src/stm32f0xx_hal_uart.c **** static void UART_DMARxHalfCplt(DMA_HandleTypeDef *hdma);
 193:Drivers/STM32F0xx_HAL_Driver/Src/stm32f0xx_hal_uart.c **** static void UART_DMAError(DMA_HandleTypeDef *hdma);
 194:Drivers/STM32F0xx_HAL_Driver/Src/stm32f0xx_hal_uart.c **** static void UART_DMAAbortOnError(DMA_HandleTypeDef *hdma);
 195:Drivers/STM32F0xx_HAL_Driver/Src/stm32f0xx_hal_uart.c **** static void UART_DMATxAbortCallback(DMA_HandleTypeDef *hdma);
 196:Drivers/STM32F0xx_HAL_Driver/Src/stm32f0xx_hal_uart.c **** static void UART_DMARxAbortCallback(DMA_HandleTypeDef *hdma);
 197:Drivers/STM32F0xx_HAL_Driver/Src/stm32f0xx_hal_uart.c **** static void UART_DMATxOnlyAbortCallback(DMA_HandleTypeDef *hdma);
 198:Drivers/STM32F0xx_HAL_Driver/Src/stm32f0xx_hal_uart.c **** static void UART_DMARxOnlyAbortCallback(DMA_HandleTypeDef *hdma);
 199:Drivers/STM32F0xx_HAL_Driver/Src/stm32f0xx_hal_uart.c **** HAL_StatusTypeDef UART_Transmit_IT(UART_HandleTypeDef *huart);
 200:Drivers/STM32F0xx_HAL_Driver/Src/stm32f0xx_hal_uart.c **** HAL_StatusTypeDef UART_EndTransmit_IT(UART_HandleTypeDef *huart);
 201:Drivers/STM32F0xx_HAL_Driver/Src/stm32f0xx_hal_uart.c **** HAL_StatusTypeDef UART_Receive_IT(UART_HandleTypeDef *huart);
ARM GAS  /tmp/ccDDwqiC.s 			page 5


 202:Drivers/STM32F0xx_HAL_Driver/Src/stm32f0xx_hal_uart.c **** /**
 203:Drivers/STM32F0xx_HAL_Driver/Src/stm32f0xx_hal_uart.c ****   * @}
 204:Drivers/STM32F0xx_HAL_Driver/Src/stm32f0xx_hal_uart.c ****   */
 205:Drivers/STM32F0xx_HAL_Driver/Src/stm32f0xx_hal_uart.c **** 
 206:Drivers/STM32F0xx_HAL_Driver/Src/stm32f0xx_hal_uart.c **** /* Exported functions --------------------------------------------------------*/
 207:Drivers/STM32F0xx_HAL_Driver/Src/stm32f0xx_hal_uart.c **** 
 208:Drivers/STM32F0xx_HAL_Driver/Src/stm32f0xx_hal_uart.c **** /** @defgroup UART_Exported_Functions UART Exported Functions
 209:Drivers/STM32F0xx_HAL_Driver/Src/stm32f0xx_hal_uart.c ****   * @{
 210:Drivers/STM32F0xx_HAL_Driver/Src/stm32f0xx_hal_uart.c ****   */
 211:Drivers/STM32F0xx_HAL_Driver/Src/stm32f0xx_hal_uart.c **** 
 212:Drivers/STM32F0xx_HAL_Driver/Src/stm32f0xx_hal_uart.c **** /** @defgroup UART_Exported_Functions_Group1 Initialization and de-initialization functions
 213:Drivers/STM32F0xx_HAL_Driver/Src/stm32f0xx_hal_uart.c ****   *  @brief    Initialization and Configuration functions
 214:Drivers/STM32F0xx_HAL_Driver/Src/stm32f0xx_hal_uart.c ****   *
 215:Drivers/STM32F0xx_HAL_Driver/Src/stm32f0xx_hal_uart.c **** @verbatim
 216:Drivers/STM32F0xx_HAL_Driver/Src/stm32f0xx_hal_uart.c **** ===============================================================================
 217:Drivers/STM32F0xx_HAL_Driver/Src/stm32f0xx_hal_uart.c ****             ##### Initialization and Configuration functions #####
 218:Drivers/STM32F0xx_HAL_Driver/Src/stm32f0xx_hal_uart.c ****  ===============================================================================
 219:Drivers/STM32F0xx_HAL_Driver/Src/stm32f0xx_hal_uart.c ****     [..]
 220:Drivers/STM32F0xx_HAL_Driver/Src/stm32f0xx_hal_uart.c ****     This subsection provides a set of functions allowing to initialize the USARTx or the UARTy
 221:Drivers/STM32F0xx_HAL_Driver/Src/stm32f0xx_hal_uart.c ****     in asynchronous mode.
 222:Drivers/STM32F0xx_HAL_Driver/Src/stm32f0xx_hal_uart.c ****       (+) For the asynchronous mode the parameters below can be configured:
 223:Drivers/STM32F0xx_HAL_Driver/Src/stm32f0xx_hal_uart.c ****         (++) Baud Rate
 224:Drivers/STM32F0xx_HAL_Driver/Src/stm32f0xx_hal_uart.c ****         (++) Word Length
 225:Drivers/STM32F0xx_HAL_Driver/Src/stm32f0xx_hal_uart.c ****         (++) Stop Bit
 226:Drivers/STM32F0xx_HAL_Driver/Src/stm32f0xx_hal_uart.c ****         (++) Parity
 227:Drivers/STM32F0xx_HAL_Driver/Src/stm32f0xx_hal_uart.c ****         (++) Hardware flow control
 228:Drivers/STM32F0xx_HAL_Driver/Src/stm32f0xx_hal_uart.c ****         (++) Receiver/transmitter modes
 229:Drivers/STM32F0xx_HAL_Driver/Src/stm32f0xx_hal_uart.c ****         (++) Over Sampling Method
 230:Drivers/STM32F0xx_HAL_Driver/Src/stm32f0xx_hal_uart.c ****         (++) One-Bit Sampling Method
 231:Drivers/STM32F0xx_HAL_Driver/Src/stm32f0xx_hal_uart.c ****       (+) For the asynchronous mode, the following advanced features can be configured as well:
 232:Drivers/STM32F0xx_HAL_Driver/Src/stm32f0xx_hal_uart.c ****         (++) TX and/or RX pin level inversion
 233:Drivers/STM32F0xx_HAL_Driver/Src/stm32f0xx_hal_uart.c ****         (++) data logical level inversion
 234:Drivers/STM32F0xx_HAL_Driver/Src/stm32f0xx_hal_uart.c ****         (++) RX and TX pins swap
 235:Drivers/STM32F0xx_HAL_Driver/Src/stm32f0xx_hal_uart.c ****         (++) RX overrun detection disabling
 236:Drivers/STM32F0xx_HAL_Driver/Src/stm32f0xx_hal_uart.c ****         (++) DMA disabling on RX error
 237:Drivers/STM32F0xx_HAL_Driver/Src/stm32f0xx_hal_uart.c ****         (++) MSB first on communication line
 238:Drivers/STM32F0xx_HAL_Driver/Src/stm32f0xx_hal_uart.c ****         (++) auto Baud rate detection
 239:Drivers/STM32F0xx_HAL_Driver/Src/stm32f0xx_hal_uart.c ****     [..]
 240:Drivers/STM32F0xx_HAL_Driver/Src/stm32f0xx_hal_uart.c ****     The HAL_UART_Init(), HAL_HalfDuplex_Init() and HAL_MultiProcessor_Init()
 241:Drivers/STM32F0xx_HAL_Driver/Src/stm32f0xx_hal_uart.c ****     API follow respectively the UART asynchronous, UART Half duplex and multiprocessor mode
 242:Drivers/STM32F0xx_HAL_Driver/Src/stm32f0xx_hal_uart.c ****     configuration procedures (details for the procedures are available in reference manual).
 243:Drivers/STM32F0xx_HAL_Driver/Src/stm32f0xx_hal_uart.c **** 
 244:Drivers/STM32F0xx_HAL_Driver/Src/stm32f0xx_hal_uart.c **** @endverbatim
 245:Drivers/STM32F0xx_HAL_Driver/Src/stm32f0xx_hal_uart.c ****   * @{
 246:Drivers/STM32F0xx_HAL_Driver/Src/stm32f0xx_hal_uart.c ****   */
 247:Drivers/STM32F0xx_HAL_Driver/Src/stm32f0xx_hal_uart.c **** 
 248:Drivers/STM32F0xx_HAL_Driver/Src/stm32f0xx_hal_uart.c **** /*
 249:Drivers/STM32F0xx_HAL_Driver/Src/stm32f0xx_hal_uart.c ****   Additional Table:  If the parity is enabled, then the MSB bit of the data written
 250:Drivers/STM32F0xx_HAL_Driver/Src/stm32f0xx_hal_uart.c ****                      in the data register is transmitted but is changed by the parity bit.
 251:Drivers/STM32F0xx_HAL_Driver/Src/stm32f0xx_hal_uart.c ****                      According to device capability (support or not of 7-bit word length),
 252:Drivers/STM32F0xx_HAL_Driver/Src/stm32f0xx_hal_uart.c ****                      frame length is either defined by the M bit (8-bits or 9-bits)
 253:Drivers/STM32F0xx_HAL_Driver/Src/stm32f0xx_hal_uart.c ****                      or by the M1 and M0 bits (7-bit, 8-bit or 9-bit).
 254:Drivers/STM32F0xx_HAL_Driver/Src/stm32f0xx_hal_uart.c ****                      Possible UART frame formats are as listed in the following table:
 255:Drivers/STM32F0xx_HAL_Driver/Src/stm32f0xx_hal_uart.c ****             
 256:Drivers/STM32F0xx_HAL_Driver/Src/stm32f0xx_hal_uart.c ****       Table 1. UART frame format.             
 257:Drivers/STM32F0xx_HAL_Driver/Src/stm32f0xx_hal_uart.c ****       +-----------------------------------------------------------------------+
 258:Drivers/STM32F0xx_HAL_Driver/Src/stm32f0xx_hal_uart.c ****       |       M bit       |  PCE bit  |             UART frame                |
ARM GAS  /tmp/ccDDwqiC.s 			page 6


 259:Drivers/STM32F0xx_HAL_Driver/Src/stm32f0xx_hal_uart.c ****       |-------------------|-----------|---------------------------------------|
 260:Drivers/STM32F0xx_HAL_Driver/Src/stm32f0xx_hal_uart.c ****       |         0         |     0     |    | SB |    8-bit data   | STB |     |
 261:Drivers/STM32F0xx_HAL_Driver/Src/stm32f0xx_hal_uart.c ****       |-------------------|-----------|---------------------------------------|
 262:Drivers/STM32F0xx_HAL_Driver/Src/stm32f0xx_hal_uart.c ****       |         0         |     1     |    | SB | 7-bit data | PB | STB |     |
 263:Drivers/STM32F0xx_HAL_Driver/Src/stm32f0xx_hal_uart.c ****       |-------------------|-----------|---------------------------------------|
 264:Drivers/STM32F0xx_HAL_Driver/Src/stm32f0xx_hal_uart.c ****       |         1         |     0     |    | SB |    9-bit data   | STB |     |
 265:Drivers/STM32F0xx_HAL_Driver/Src/stm32f0xx_hal_uart.c ****       |-------------------|-----------|---------------------------------------|
 266:Drivers/STM32F0xx_HAL_Driver/Src/stm32f0xx_hal_uart.c ****       |         1         |     1     |    | SB | 8-bit data | PB | STB |     |
 267:Drivers/STM32F0xx_HAL_Driver/Src/stm32f0xx_hal_uart.c ****       +-----------------------------------------------------------------------+
 268:Drivers/STM32F0xx_HAL_Driver/Src/stm32f0xx_hal_uart.c ****       |  M1 bit |  M0 bit |  PCE bit  |             UART frame                |
 269:Drivers/STM32F0xx_HAL_Driver/Src/stm32f0xx_hal_uart.c ****       |---------|---------|-----------|---------------------------------------|
 270:Drivers/STM32F0xx_HAL_Driver/Src/stm32f0xx_hal_uart.c ****       |    0    |    0    |     0     |    | SB |    8 bit data   | STB |     |
 271:Drivers/STM32F0xx_HAL_Driver/Src/stm32f0xx_hal_uart.c ****       |---------|---------|-----------|---------------------------------------|
 272:Drivers/STM32F0xx_HAL_Driver/Src/stm32f0xx_hal_uart.c ****       |    0    |    0    |     1     |    | SB | 7 bit data | PB | STB |     |
 273:Drivers/STM32F0xx_HAL_Driver/Src/stm32f0xx_hal_uart.c ****       |---------|---------|-----------|---------------------------------------|
 274:Drivers/STM32F0xx_HAL_Driver/Src/stm32f0xx_hal_uart.c ****       |    0    |    1    |     0     |    | SB |    9 bit data   | STB |     |
 275:Drivers/STM32F0xx_HAL_Driver/Src/stm32f0xx_hal_uart.c ****       |---------|---------|-----------|---------------------------------------|
 276:Drivers/STM32F0xx_HAL_Driver/Src/stm32f0xx_hal_uart.c ****       |    0    |    1    |     1     |    | SB | 8 bit data | PB | STB |     |
 277:Drivers/STM32F0xx_HAL_Driver/Src/stm32f0xx_hal_uart.c ****       |---------|---------|-----------|---------------------------------------|
 278:Drivers/STM32F0xx_HAL_Driver/Src/stm32f0xx_hal_uart.c ****       |    1    |    0    |     0     |    | SB |    7 bit data   | STB |     |
 279:Drivers/STM32F0xx_HAL_Driver/Src/stm32f0xx_hal_uart.c ****       |---------|---------|-----------|---------------------------------------|
 280:Drivers/STM32F0xx_HAL_Driver/Src/stm32f0xx_hal_uart.c ****       |    1    |    0    |     1     |    | SB | 6 bit data | PB | STB |     |
 281:Drivers/STM32F0xx_HAL_Driver/Src/stm32f0xx_hal_uart.c ****       +-----------------------------------------------------------------------+
 282:Drivers/STM32F0xx_HAL_Driver/Src/stm32f0xx_hal_uart.c **** 
 283:Drivers/STM32F0xx_HAL_Driver/Src/stm32f0xx_hal_uart.c **** */
 284:Drivers/STM32F0xx_HAL_Driver/Src/stm32f0xx_hal_uart.c **** 
 285:Drivers/STM32F0xx_HAL_Driver/Src/stm32f0xx_hal_uart.c **** /**
 286:Drivers/STM32F0xx_HAL_Driver/Src/stm32f0xx_hal_uart.c ****   * @brief Initialize the UART mode according to the specified
 287:Drivers/STM32F0xx_HAL_Driver/Src/stm32f0xx_hal_uart.c ****   *        parameters in the UART_InitTypeDef and initialize the associated handle.
 288:Drivers/STM32F0xx_HAL_Driver/Src/stm32f0xx_hal_uart.c ****   * @param huart UART handle.
 289:Drivers/STM32F0xx_HAL_Driver/Src/stm32f0xx_hal_uart.c ****   * @retval HAL status
 290:Drivers/STM32F0xx_HAL_Driver/Src/stm32f0xx_hal_uart.c ****   */
 291:Drivers/STM32F0xx_HAL_Driver/Src/stm32f0xx_hal_uart.c **** HAL_StatusTypeDef HAL_UART_Init(UART_HandleTypeDef *huart)
 292:Drivers/STM32F0xx_HAL_Driver/Src/stm32f0xx_hal_uart.c **** {
 293:Drivers/STM32F0xx_HAL_Driver/Src/stm32f0xx_hal_uart.c ****   /* Check the UART handle allocation */
 294:Drivers/STM32F0xx_HAL_Driver/Src/stm32f0xx_hal_uart.c ****   if(huart == NULL)
 295:Drivers/STM32F0xx_HAL_Driver/Src/stm32f0xx_hal_uart.c ****   {
 296:Drivers/STM32F0xx_HAL_Driver/Src/stm32f0xx_hal_uart.c ****     return HAL_ERROR;
 297:Drivers/STM32F0xx_HAL_Driver/Src/stm32f0xx_hal_uart.c ****   }
 298:Drivers/STM32F0xx_HAL_Driver/Src/stm32f0xx_hal_uart.c **** 
 299:Drivers/STM32F0xx_HAL_Driver/Src/stm32f0xx_hal_uart.c ****   if(huart->Init.HwFlowCtl != UART_HWCONTROL_NONE)
 300:Drivers/STM32F0xx_HAL_Driver/Src/stm32f0xx_hal_uart.c ****   {
 301:Drivers/STM32F0xx_HAL_Driver/Src/stm32f0xx_hal_uart.c ****     /* Check the parameters */
 302:Drivers/STM32F0xx_HAL_Driver/Src/stm32f0xx_hal_uart.c ****     assert_param(IS_UART_HWFLOW_INSTANCE(huart->Instance));
 303:Drivers/STM32F0xx_HAL_Driver/Src/stm32f0xx_hal_uart.c ****   }
 304:Drivers/STM32F0xx_HAL_Driver/Src/stm32f0xx_hal_uart.c ****   else
 305:Drivers/STM32F0xx_HAL_Driver/Src/stm32f0xx_hal_uart.c ****   {
 306:Drivers/STM32F0xx_HAL_Driver/Src/stm32f0xx_hal_uart.c ****     /* Check the parameters */
 307:Drivers/STM32F0xx_HAL_Driver/Src/stm32f0xx_hal_uart.c ****     assert_param(IS_UART_INSTANCE(huart->Instance));
 308:Drivers/STM32F0xx_HAL_Driver/Src/stm32f0xx_hal_uart.c ****   }
 309:Drivers/STM32F0xx_HAL_Driver/Src/stm32f0xx_hal_uart.c **** 
 310:Drivers/STM32F0xx_HAL_Driver/Src/stm32f0xx_hal_uart.c ****   if(huart->gState == HAL_UART_STATE_RESET)
 311:Drivers/STM32F0xx_HAL_Driver/Src/stm32f0xx_hal_uart.c ****   {
 312:Drivers/STM32F0xx_HAL_Driver/Src/stm32f0xx_hal_uart.c ****     /* Allocate lock resource and initialize it */
 313:Drivers/STM32F0xx_HAL_Driver/Src/stm32f0xx_hal_uart.c ****     huart->Lock = HAL_UNLOCKED;
 314:Drivers/STM32F0xx_HAL_Driver/Src/stm32f0xx_hal_uart.c **** 
 315:Drivers/STM32F0xx_HAL_Driver/Src/stm32f0xx_hal_uart.c ****     /* Init the low level hardware : GPIO, CLOCK */
ARM GAS  /tmp/ccDDwqiC.s 			page 7


 316:Drivers/STM32F0xx_HAL_Driver/Src/stm32f0xx_hal_uart.c ****     HAL_UART_MspInit(huart);
 317:Drivers/STM32F0xx_HAL_Driver/Src/stm32f0xx_hal_uart.c ****   }
 318:Drivers/STM32F0xx_HAL_Driver/Src/stm32f0xx_hal_uart.c **** 
 319:Drivers/STM32F0xx_HAL_Driver/Src/stm32f0xx_hal_uart.c ****   huart->gState = HAL_UART_STATE_BUSY;
 320:Drivers/STM32F0xx_HAL_Driver/Src/stm32f0xx_hal_uart.c **** 
 321:Drivers/STM32F0xx_HAL_Driver/Src/stm32f0xx_hal_uart.c ****   /* Disable the Peripheral */
 322:Drivers/STM32F0xx_HAL_Driver/Src/stm32f0xx_hal_uart.c ****   __HAL_UART_DISABLE(huart);
 323:Drivers/STM32F0xx_HAL_Driver/Src/stm32f0xx_hal_uart.c **** 
 324:Drivers/STM32F0xx_HAL_Driver/Src/stm32f0xx_hal_uart.c ****   /* Set the UART Communication parameters */
 325:Drivers/STM32F0xx_HAL_Driver/Src/stm32f0xx_hal_uart.c ****   if (UART_SetConfig(huart) == HAL_ERROR)
 326:Drivers/STM32F0xx_HAL_Driver/Src/stm32f0xx_hal_uart.c ****   {
 327:Drivers/STM32F0xx_HAL_Driver/Src/stm32f0xx_hal_uart.c ****     return HAL_ERROR;
 328:Drivers/STM32F0xx_HAL_Driver/Src/stm32f0xx_hal_uart.c ****   }
 329:Drivers/STM32F0xx_HAL_Driver/Src/stm32f0xx_hal_uart.c **** 
 330:Drivers/STM32F0xx_HAL_Driver/Src/stm32f0xx_hal_uart.c ****   if (huart->AdvancedInit.AdvFeatureInit != UART_ADVFEATURE_NO_INIT)
 331:Drivers/STM32F0xx_HAL_Driver/Src/stm32f0xx_hal_uart.c ****   {
 332:Drivers/STM32F0xx_HAL_Driver/Src/stm32f0xx_hal_uart.c ****     UART_AdvFeatureConfig(huart);
 333:Drivers/STM32F0xx_HAL_Driver/Src/stm32f0xx_hal_uart.c ****   }
 334:Drivers/STM32F0xx_HAL_Driver/Src/stm32f0xx_hal_uart.c **** 
 335:Drivers/STM32F0xx_HAL_Driver/Src/stm32f0xx_hal_uart.c ****   /* In asynchronous mode, the following bits must be kept cleared:
 336:Drivers/STM32F0xx_HAL_Driver/Src/stm32f0xx_hal_uart.c ****   - LINEN (if LIN is supported) and CLKEN bits in the USART_CR2 register,
 337:Drivers/STM32F0xx_HAL_Driver/Src/stm32f0xx_hal_uart.c ****   - SCEN (if Smartcard is supported), HDSEL and IREN (if IrDA is supported)  bits in the USART_CR3 
 338:Drivers/STM32F0xx_HAL_Driver/Src/stm32f0xx_hal_uart.c **** #if defined (USART_CR2_LINEN)
 339:Drivers/STM32F0xx_HAL_Driver/Src/stm32f0xx_hal_uart.c ****   CLEAR_BIT(huart->Instance->CR2, (USART_CR2_LINEN | USART_CR2_CLKEN));
 340:Drivers/STM32F0xx_HAL_Driver/Src/stm32f0xx_hal_uart.c **** #else
 341:Drivers/STM32F0xx_HAL_Driver/Src/stm32f0xx_hal_uart.c ****   CLEAR_BIT(huart->Instance->CR2, USART_CR2_CLKEN);
 342:Drivers/STM32F0xx_HAL_Driver/Src/stm32f0xx_hal_uart.c **** #endif
 343:Drivers/STM32F0xx_HAL_Driver/Src/stm32f0xx_hal_uart.c **** #if defined (USART_CR3_SCEN)
 344:Drivers/STM32F0xx_HAL_Driver/Src/stm32f0xx_hal_uart.c **** #if defined (USART_CR3_IREN)
 345:Drivers/STM32F0xx_HAL_Driver/Src/stm32f0xx_hal_uart.c ****   CLEAR_BIT(huart->Instance->CR3, (USART_CR3_SCEN | USART_CR3_HDSEL | USART_CR3_IREN));
 346:Drivers/STM32F0xx_HAL_Driver/Src/stm32f0xx_hal_uart.c **** #else
 347:Drivers/STM32F0xx_HAL_Driver/Src/stm32f0xx_hal_uart.c ****   CLEAR_BIT(huart->Instance->CR3, (USART_CR3_SCEN | USART_CR3_HDSEL));
 348:Drivers/STM32F0xx_HAL_Driver/Src/stm32f0xx_hal_uart.c **** #endif
 349:Drivers/STM32F0xx_HAL_Driver/Src/stm32f0xx_hal_uart.c **** #else
 350:Drivers/STM32F0xx_HAL_Driver/Src/stm32f0xx_hal_uart.c **** #if defined (USART_CR3_IREN)
 351:Drivers/STM32F0xx_HAL_Driver/Src/stm32f0xx_hal_uart.c ****   CLEAR_BIT(huart->Instance->CR3, (USART_CR3_HDSEL | USART_CR3_IREN));
 352:Drivers/STM32F0xx_HAL_Driver/Src/stm32f0xx_hal_uart.c **** #else
 353:Drivers/STM32F0xx_HAL_Driver/Src/stm32f0xx_hal_uart.c ****   CLEAR_BIT(huart->Instance->CR3, USART_CR3_HDSEL);
 354:Drivers/STM32F0xx_HAL_Driver/Src/stm32f0xx_hal_uart.c **** #endif
 355:Drivers/STM32F0xx_HAL_Driver/Src/stm32f0xx_hal_uart.c **** #endif
 356:Drivers/STM32F0xx_HAL_Driver/Src/stm32f0xx_hal_uart.c **** 
 357:Drivers/STM32F0xx_HAL_Driver/Src/stm32f0xx_hal_uart.c ****   /* Enable the Peripheral */
 358:Drivers/STM32F0xx_HAL_Driver/Src/stm32f0xx_hal_uart.c ****   __HAL_UART_ENABLE(huart);
 359:Drivers/STM32F0xx_HAL_Driver/Src/stm32f0xx_hal_uart.c **** 
 360:Drivers/STM32F0xx_HAL_Driver/Src/stm32f0xx_hal_uart.c ****   /* TEACK and/or REACK to check before moving huart->gState and huart->RxState to Ready */
 361:Drivers/STM32F0xx_HAL_Driver/Src/stm32f0xx_hal_uart.c ****   return (UART_CheckIdleState(huart));
 362:Drivers/STM32F0xx_HAL_Driver/Src/stm32f0xx_hal_uart.c **** }
 363:Drivers/STM32F0xx_HAL_Driver/Src/stm32f0xx_hal_uart.c **** 
 364:Drivers/STM32F0xx_HAL_Driver/Src/stm32f0xx_hal_uart.c **** /**
 365:Drivers/STM32F0xx_HAL_Driver/Src/stm32f0xx_hal_uart.c ****   * @brief Initialize the half-duplex mode according to the specified
 366:Drivers/STM32F0xx_HAL_Driver/Src/stm32f0xx_hal_uart.c ****   *        parameters in the UART_InitTypeDef and creates the associated handle.
 367:Drivers/STM32F0xx_HAL_Driver/Src/stm32f0xx_hal_uart.c ****   * @param huart UART handle.
 368:Drivers/STM32F0xx_HAL_Driver/Src/stm32f0xx_hal_uart.c ****   * @retval HAL status
 369:Drivers/STM32F0xx_HAL_Driver/Src/stm32f0xx_hal_uart.c ****   */
 370:Drivers/STM32F0xx_HAL_Driver/Src/stm32f0xx_hal_uart.c **** HAL_StatusTypeDef HAL_HalfDuplex_Init(UART_HandleTypeDef *huart)
 371:Drivers/STM32F0xx_HAL_Driver/Src/stm32f0xx_hal_uart.c **** {
 372:Drivers/STM32F0xx_HAL_Driver/Src/stm32f0xx_hal_uart.c ****   /* Check the UART handle allocation */
ARM GAS  /tmp/ccDDwqiC.s 			page 8


 373:Drivers/STM32F0xx_HAL_Driver/Src/stm32f0xx_hal_uart.c ****   if(huart == NULL)
 374:Drivers/STM32F0xx_HAL_Driver/Src/stm32f0xx_hal_uart.c ****   {
 375:Drivers/STM32F0xx_HAL_Driver/Src/stm32f0xx_hal_uart.c ****     return HAL_ERROR;
 376:Drivers/STM32F0xx_HAL_Driver/Src/stm32f0xx_hal_uart.c ****   }
 377:Drivers/STM32F0xx_HAL_Driver/Src/stm32f0xx_hal_uart.c **** 
 378:Drivers/STM32F0xx_HAL_Driver/Src/stm32f0xx_hal_uart.c ****   /* Check UART instance */
 379:Drivers/STM32F0xx_HAL_Driver/Src/stm32f0xx_hal_uart.c ****   assert_param(IS_UART_HALFDUPLEX_INSTANCE(huart->Instance));
 380:Drivers/STM32F0xx_HAL_Driver/Src/stm32f0xx_hal_uart.c **** 
 381:Drivers/STM32F0xx_HAL_Driver/Src/stm32f0xx_hal_uart.c ****   if(huart->gState == HAL_UART_STATE_RESET)
 382:Drivers/STM32F0xx_HAL_Driver/Src/stm32f0xx_hal_uart.c ****   {
 383:Drivers/STM32F0xx_HAL_Driver/Src/stm32f0xx_hal_uart.c ****     /* Allocate lock resource and initialize it */
 384:Drivers/STM32F0xx_HAL_Driver/Src/stm32f0xx_hal_uart.c ****     huart->Lock = HAL_UNLOCKED;
 385:Drivers/STM32F0xx_HAL_Driver/Src/stm32f0xx_hal_uart.c **** 
 386:Drivers/STM32F0xx_HAL_Driver/Src/stm32f0xx_hal_uart.c ****     /* Init the low level hardware : GPIO, CLOCK */
 387:Drivers/STM32F0xx_HAL_Driver/Src/stm32f0xx_hal_uart.c ****     HAL_UART_MspInit(huart);
 388:Drivers/STM32F0xx_HAL_Driver/Src/stm32f0xx_hal_uart.c ****   }
 389:Drivers/STM32F0xx_HAL_Driver/Src/stm32f0xx_hal_uart.c **** 
 390:Drivers/STM32F0xx_HAL_Driver/Src/stm32f0xx_hal_uart.c ****   huart->gState = HAL_UART_STATE_BUSY;
 391:Drivers/STM32F0xx_HAL_Driver/Src/stm32f0xx_hal_uart.c **** 
 392:Drivers/STM32F0xx_HAL_Driver/Src/stm32f0xx_hal_uart.c ****   /* Disable the Peripheral */
 393:Drivers/STM32F0xx_HAL_Driver/Src/stm32f0xx_hal_uart.c ****   __HAL_UART_DISABLE(huart);
 394:Drivers/STM32F0xx_HAL_Driver/Src/stm32f0xx_hal_uart.c **** 
 395:Drivers/STM32F0xx_HAL_Driver/Src/stm32f0xx_hal_uart.c ****   /* Set the UART Communication parameters */
 396:Drivers/STM32F0xx_HAL_Driver/Src/stm32f0xx_hal_uart.c ****   if (UART_SetConfig(huart) == HAL_ERROR)
 397:Drivers/STM32F0xx_HAL_Driver/Src/stm32f0xx_hal_uart.c ****   {
 398:Drivers/STM32F0xx_HAL_Driver/Src/stm32f0xx_hal_uart.c ****     return HAL_ERROR;
 399:Drivers/STM32F0xx_HAL_Driver/Src/stm32f0xx_hal_uart.c ****   }
 400:Drivers/STM32F0xx_HAL_Driver/Src/stm32f0xx_hal_uart.c **** 
 401:Drivers/STM32F0xx_HAL_Driver/Src/stm32f0xx_hal_uart.c ****   if (huart->AdvancedInit.AdvFeatureInit != UART_ADVFEATURE_NO_INIT)
 402:Drivers/STM32F0xx_HAL_Driver/Src/stm32f0xx_hal_uart.c ****   {
 403:Drivers/STM32F0xx_HAL_Driver/Src/stm32f0xx_hal_uart.c ****     UART_AdvFeatureConfig(huart);
 404:Drivers/STM32F0xx_HAL_Driver/Src/stm32f0xx_hal_uart.c ****   }
 405:Drivers/STM32F0xx_HAL_Driver/Src/stm32f0xx_hal_uart.c **** 
 406:Drivers/STM32F0xx_HAL_Driver/Src/stm32f0xx_hal_uart.c ****   /* In half-duplex mode, the following bits must be kept cleared:
 407:Drivers/STM32F0xx_HAL_Driver/Src/stm32f0xx_hal_uart.c ****   - LINEN (if LIN is supported) and CLKEN bits in the USART_CR2 register,
 408:Drivers/STM32F0xx_HAL_Driver/Src/stm32f0xx_hal_uart.c ****   - SCEN (if Smartcard is supported), and IREN (if IrDA is supported)  bits in the USART_CR3 regist
 409:Drivers/STM32F0xx_HAL_Driver/Src/stm32f0xx_hal_uart.c **** #if defined (USART_CR2_LINEN)
 410:Drivers/STM32F0xx_HAL_Driver/Src/stm32f0xx_hal_uart.c ****   CLEAR_BIT(huart->Instance->CR2, (USART_CR2_LINEN | USART_CR2_CLKEN));
 411:Drivers/STM32F0xx_HAL_Driver/Src/stm32f0xx_hal_uart.c **** #else
 412:Drivers/STM32F0xx_HAL_Driver/Src/stm32f0xx_hal_uart.c ****   CLEAR_BIT(huart->Instance->CR2, USART_CR2_CLKEN);
 413:Drivers/STM32F0xx_HAL_Driver/Src/stm32f0xx_hal_uart.c **** #endif
 414:Drivers/STM32F0xx_HAL_Driver/Src/stm32f0xx_hal_uart.c **** #if defined (USART_CR3_SCEN)
 415:Drivers/STM32F0xx_HAL_Driver/Src/stm32f0xx_hal_uart.c **** #if defined (USART_CR3_IREN)
 416:Drivers/STM32F0xx_HAL_Driver/Src/stm32f0xx_hal_uart.c ****   CLEAR_BIT(huart->Instance->CR3, (USART_CR3_IREN | USART_CR3_SCEN));
 417:Drivers/STM32F0xx_HAL_Driver/Src/stm32f0xx_hal_uart.c **** #else
 418:Drivers/STM32F0xx_HAL_Driver/Src/stm32f0xx_hal_uart.c ****   CLEAR_BIT(huart->Instance->CR3, USART_CR3_SCEN);
 419:Drivers/STM32F0xx_HAL_Driver/Src/stm32f0xx_hal_uart.c **** #endif
 420:Drivers/STM32F0xx_HAL_Driver/Src/stm32f0xx_hal_uart.c **** #else
 421:Drivers/STM32F0xx_HAL_Driver/Src/stm32f0xx_hal_uart.c **** #if defined (USART_CR3_IREN)
 422:Drivers/STM32F0xx_HAL_Driver/Src/stm32f0xx_hal_uart.c ****   CLEAR_BIT(huart->Instance->CR3, USART_CR3_IREN);
 423:Drivers/STM32F0xx_HAL_Driver/Src/stm32f0xx_hal_uart.c **** #endif
 424:Drivers/STM32F0xx_HAL_Driver/Src/stm32f0xx_hal_uart.c **** #endif
 425:Drivers/STM32F0xx_HAL_Driver/Src/stm32f0xx_hal_uart.c **** 
 426:Drivers/STM32F0xx_HAL_Driver/Src/stm32f0xx_hal_uart.c ****   /* Enable the Half-Duplex mode by setting the HDSEL bit in the CR3 register */
 427:Drivers/STM32F0xx_HAL_Driver/Src/stm32f0xx_hal_uart.c ****   SET_BIT(huart->Instance->CR3, USART_CR3_HDSEL);
 428:Drivers/STM32F0xx_HAL_Driver/Src/stm32f0xx_hal_uart.c **** 
 429:Drivers/STM32F0xx_HAL_Driver/Src/stm32f0xx_hal_uart.c ****   /* Enable the Peripheral */
ARM GAS  /tmp/ccDDwqiC.s 			page 9


 430:Drivers/STM32F0xx_HAL_Driver/Src/stm32f0xx_hal_uart.c ****   __HAL_UART_ENABLE(huart);
 431:Drivers/STM32F0xx_HAL_Driver/Src/stm32f0xx_hal_uart.c **** 
 432:Drivers/STM32F0xx_HAL_Driver/Src/stm32f0xx_hal_uart.c ****   /* TEACK and/or REACK to check before moving huart->gState and huart->RxState to Ready */
 433:Drivers/STM32F0xx_HAL_Driver/Src/stm32f0xx_hal_uart.c ****   return (UART_CheckIdleState(huart));
 434:Drivers/STM32F0xx_HAL_Driver/Src/stm32f0xx_hal_uart.c **** }
 435:Drivers/STM32F0xx_HAL_Driver/Src/stm32f0xx_hal_uart.c **** 
 436:Drivers/STM32F0xx_HAL_Driver/Src/stm32f0xx_hal_uart.c **** 
 437:Drivers/STM32F0xx_HAL_Driver/Src/stm32f0xx_hal_uart.c **** /**
 438:Drivers/STM32F0xx_HAL_Driver/Src/stm32f0xx_hal_uart.c ****   * @brief Initialize the multiprocessor mode according to the specified
 439:Drivers/STM32F0xx_HAL_Driver/Src/stm32f0xx_hal_uart.c ****   *        parameters in the UART_InitTypeDef and initialize the associated handle.
 440:Drivers/STM32F0xx_HAL_Driver/Src/stm32f0xx_hal_uart.c ****   * @param huart UART handle.
 441:Drivers/STM32F0xx_HAL_Driver/Src/stm32f0xx_hal_uart.c ****   * @param Address UART node address (4-, 6-, 7- or 8-bit long).
 442:Drivers/STM32F0xx_HAL_Driver/Src/stm32f0xx_hal_uart.c ****   * @param WakeUpMethod specifies the UART wakeup method.
 443:Drivers/STM32F0xx_HAL_Driver/Src/stm32f0xx_hal_uart.c ****   *        This parameter can be one of the following values:
 444:Drivers/STM32F0xx_HAL_Driver/Src/stm32f0xx_hal_uart.c ****   *          @arg @ref UART_WAKEUPMETHOD_IDLELINE WakeUp by an idle line detection
 445:Drivers/STM32F0xx_HAL_Driver/Src/stm32f0xx_hal_uart.c ****   *          @arg @ref UART_WAKEUPMETHOD_ADDRESSMARK WakeUp by an address mark
 446:Drivers/STM32F0xx_HAL_Driver/Src/stm32f0xx_hal_uart.c ****   * @note  If the user resorts to idle line detection wake up, the Address parameter
 447:Drivers/STM32F0xx_HAL_Driver/Src/stm32f0xx_hal_uart.c ****   *        is useless and ignored by the initialization function.
 448:Drivers/STM32F0xx_HAL_Driver/Src/stm32f0xx_hal_uart.c ****   * @note  If the user resorts to address mark wake up, the address length detection
 449:Drivers/STM32F0xx_HAL_Driver/Src/stm32f0xx_hal_uart.c ****   *        is configured by default to 4 bits only. For the UART to be able to
 450:Drivers/STM32F0xx_HAL_Driver/Src/stm32f0xx_hal_uart.c ****   *        manage 6-, 7- or 8-bit long addresses detection, the API
 451:Drivers/STM32F0xx_HAL_Driver/Src/stm32f0xx_hal_uart.c ****   *        HAL_MultiProcessorEx_AddressLength_Set() must be called after
 452:Drivers/STM32F0xx_HAL_Driver/Src/stm32f0xx_hal_uart.c ****   *        HAL_MultiProcessor_Init().
 453:Drivers/STM32F0xx_HAL_Driver/Src/stm32f0xx_hal_uart.c ****   * @retval HAL status
 454:Drivers/STM32F0xx_HAL_Driver/Src/stm32f0xx_hal_uart.c ****   */
 455:Drivers/STM32F0xx_HAL_Driver/Src/stm32f0xx_hal_uart.c **** HAL_StatusTypeDef HAL_MultiProcessor_Init(UART_HandleTypeDef *huart, uint8_t Address, uint32_t Wake
 456:Drivers/STM32F0xx_HAL_Driver/Src/stm32f0xx_hal_uart.c **** {
 457:Drivers/STM32F0xx_HAL_Driver/Src/stm32f0xx_hal_uart.c ****   /* Check the UART handle allocation */
 458:Drivers/STM32F0xx_HAL_Driver/Src/stm32f0xx_hal_uart.c ****   if(huart == NULL)
 459:Drivers/STM32F0xx_HAL_Driver/Src/stm32f0xx_hal_uart.c ****   {
 460:Drivers/STM32F0xx_HAL_Driver/Src/stm32f0xx_hal_uart.c ****     return HAL_ERROR;
 461:Drivers/STM32F0xx_HAL_Driver/Src/stm32f0xx_hal_uart.c ****   }
 462:Drivers/STM32F0xx_HAL_Driver/Src/stm32f0xx_hal_uart.c **** 
 463:Drivers/STM32F0xx_HAL_Driver/Src/stm32f0xx_hal_uart.c ****   /* Check the wake up method parameter */
 464:Drivers/STM32F0xx_HAL_Driver/Src/stm32f0xx_hal_uart.c ****   assert_param(IS_UART_WAKEUPMETHOD(WakeUpMethod));
 465:Drivers/STM32F0xx_HAL_Driver/Src/stm32f0xx_hal_uart.c **** 
 466:Drivers/STM32F0xx_HAL_Driver/Src/stm32f0xx_hal_uart.c ****   if(huart->gState == HAL_UART_STATE_RESET)
 467:Drivers/STM32F0xx_HAL_Driver/Src/stm32f0xx_hal_uart.c ****   {
 468:Drivers/STM32F0xx_HAL_Driver/Src/stm32f0xx_hal_uart.c ****     /* Allocate lock resource and initialize it */
 469:Drivers/STM32F0xx_HAL_Driver/Src/stm32f0xx_hal_uart.c ****     huart->Lock = HAL_UNLOCKED;
 470:Drivers/STM32F0xx_HAL_Driver/Src/stm32f0xx_hal_uart.c **** 
 471:Drivers/STM32F0xx_HAL_Driver/Src/stm32f0xx_hal_uart.c ****     /* Init the low level hardware : GPIO, CLOCK */
 472:Drivers/STM32F0xx_HAL_Driver/Src/stm32f0xx_hal_uart.c ****     HAL_UART_MspInit(huart);
 473:Drivers/STM32F0xx_HAL_Driver/Src/stm32f0xx_hal_uart.c ****   }
 474:Drivers/STM32F0xx_HAL_Driver/Src/stm32f0xx_hal_uart.c **** 
 475:Drivers/STM32F0xx_HAL_Driver/Src/stm32f0xx_hal_uart.c ****   huart->gState = HAL_UART_STATE_BUSY;
 476:Drivers/STM32F0xx_HAL_Driver/Src/stm32f0xx_hal_uart.c **** 
 477:Drivers/STM32F0xx_HAL_Driver/Src/stm32f0xx_hal_uart.c ****   /* Disable the Peripheral */
 478:Drivers/STM32F0xx_HAL_Driver/Src/stm32f0xx_hal_uart.c ****   __HAL_UART_DISABLE(huart);
 479:Drivers/STM32F0xx_HAL_Driver/Src/stm32f0xx_hal_uart.c **** 
 480:Drivers/STM32F0xx_HAL_Driver/Src/stm32f0xx_hal_uart.c ****   /* Set the UART Communication parameters */
 481:Drivers/STM32F0xx_HAL_Driver/Src/stm32f0xx_hal_uart.c ****   if (UART_SetConfig(huart) == HAL_ERROR)
 482:Drivers/STM32F0xx_HAL_Driver/Src/stm32f0xx_hal_uart.c ****   {
 483:Drivers/STM32F0xx_HAL_Driver/Src/stm32f0xx_hal_uart.c ****     return HAL_ERROR;
 484:Drivers/STM32F0xx_HAL_Driver/Src/stm32f0xx_hal_uart.c ****   }
 485:Drivers/STM32F0xx_HAL_Driver/Src/stm32f0xx_hal_uart.c **** 
 486:Drivers/STM32F0xx_HAL_Driver/Src/stm32f0xx_hal_uart.c ****   if (huart->AdvancedInit.AdvFeatureInit != UART_ADVFEATURE_NO_INIT)
ARM GAS  /tmp/ccDDwqiC.s 			page 10


 487:Drivers/STM32F0xx_HAL_Driver/Src/stm32f0xx_hal_uart.c ****   {
 488:Drivers/STM32F0xx_HAL_Driver/Src/stm32f0xx_hal_uart.c ****     UART_AdvFeatureConfig(huart);
 489:Drivers/STM32F0xx_HAL_Driver/Src/stm32f0xx_hal_uart.c ****   }
 490:Drivers/STM32F0xx_HAL_Driver/Src/stm32f0xx_hal_uart.c **** 
 491:Drivers/STM32F0xx_HAL_Driver/Src/stm32f0xx_hal_uart.c ****   /* In multiprocessor mode, the following bits must be kept cleared:
 492:Drivers/STM32F0xx_HAL_Driver/Src/stm32f0xx_hal_uart.c ****   - LINEN (if LIN is supported) and CLKEN bits in the USART_CR2 register,
 493:Drivers/STM32F0xx_HAL_Driver/Src/stm32f0xx_hal_uart.c ****   - SCEN (if Smartcard is supported), HDSEL and IREN (if IrDA is supported) bits in the USART_CR3 r
 494:Drivers/STM32F0xx_HAL_Driver/Src/stm32f0xx_hal_uart.c **** #if defined (USART_CR2_LINEN)
 495:Drivers/STM32F0xx_HAL_Driver/Src/stm32f0xx_hal_uart.c ****   CLEAR_BIT(huart->Instance->CR2, (USART_CR2_LINEN | USART_CR2_CLKEN));
 496:Drivers/STM32F0xx_HAL_Driver/Src/stm32f0xx_hal_uart.c **** #else
 497:Drivers/STM32F0xx_HAL_Driver/Src/stm32f0xx_hal_uart.c ****   CLEAR_BIT(huart->Instance->CR2, USART_CR2_CLKEN);
 498:Drivers/STM32F0xx_HAL_Driver/Src/stm32f0xx_hal_uart.c **** #endif
 499:Drivers/STM32F0xx_HAL_Driver/Src/stm32f0xx_hal_uart.c **** #if defined (USART_CR3_SCEN)
 500:Drivers/STM32F0xx_HAL_Driver/Src/stm32f0xx_hal_uart.c **** #if defined (USART_CR3_IREN)
 501:Drivers/STM32F0xx_HAL_Driver/Src/stm32f0xx_hal_uart.c ****   CLEAR_BIT(huart->Instance->CR3, (USART_CR3_SCEN | USART_CR3_HDSEL | USART_CR3_IREN));
 502:Drivers/STM32F0xx_HAL_Driver/Src/stm32f0xx_hal_uart.c **** #else
 503:Drivers/STM32F0xx_HAL_Driver/Src/stm32f0xx_hal_uart.c ****   CLEAR_BIT(huart->Instance->CR3, (USART_CR3_SCEN | USART_CR3_HDSEL));
 504:Drivers/STM32F0xx_HAL_Driver/Src/stm32f0xx_hal_uart.c **** #endif
 505:Drivers/STM32F0xx_HAL_Driver/Src/stm32f0xx_hal_uart.c **** #else
 506:Drivers/STM32F0xx_HAL_Driver/Src/stm32f0xx_hal_uart.c **** #if defined (USART_CR3_IREN)
 507:Drivers/STM32F0xx_HAL_Driver/Src/stm32f0xx_hal_uart.c ****   CLEAR_BIT(huart->Instance->CR3, (USART_CR3_HDSEL | USART_CR3_IREN));
 508:Drivers/STM32F0xx_HAL_Driver/Src/stm32f0xx_hal_uart.c **** #else
 509:Drivers/STM32F0xx_HAL_Driver/Src/stm32f0xx_hal_uart.c ****   CLEAR_BIT(huart->Instance->CR3, USART_CR3_HDSEL);
 510:Drivers/STM32F0xx_HAL_Driver/Src/stm32f0xx_hal_uart.c **** #endif
 511:Drivers/STM32F0xx_HAL_Driver/Src/stm32f0xx_hal_uart.c **** #endif
 512:Drivers/STM32F0xx_HAL_Driver/Src/stm32f0xx_hal_uart.c **** 
 513:Drivers/STM32F0xx_HAL_Driver/Src/stm32f0xx_hal_uart.c ****   if (WakeUpMethod == UART_WAKEUPMETHOD_ADDRESSMARK)
 514:Drivers/STM32F0xx_HAL_Driver/Src/stm32f0xx_hal_uart.c ****   {
 515:Drivers/STM32F0xx_HAL_Driver/Src/stm32f0xx_hal_uart.c ****     /* If address mark wake up method is chosen, set the USART address node */
 516:Drivers/STM32F0xx_HAL_Driver/Src/stm32f0xx_hal_uart.c ****     MODIFY_REG(huart->Instance->CR2, USART_CR2_ADD, ((uint32_t)Address << UART_CR2_ADDRESS_LSB_POS)
 517:Drivers/STM32F0xx_HAL_Driver/Src/stm32f0xx_hal_uart.c ****   }
 518:Drivers/STM32F0xx_HAL_Driver/Src/stm32f0xx_hal_uart.c **** 
 519:Drivers/STM32F0xx_HAL_Driver/Src/stm32f0xx_hal_uart.c ****   /* Set the wake up method by setting the WAKE bit in the CR1 register */
 520:Drivers/STM32F0xx_HAL_Driver/Src/stm32f0xx_hal_uart.c ****   MODIFY_REG(huart->Instance->CR1, USART_CR1_WAKE, WakeUpMethod);
 521:Drivers/STM32F0xx_HAL_Driver/Src/stm32f0xx_hal_uart.c **** 
 522:Drivers/STM32F0xx_HAL_Driver/Src/stm32f0xx_hal_uart.c ****   /* Enable the Peripheral */
 523:Drivers/STM32F0xx_HAL_Driver/Src/stm32f0xx_hal_uart.c ****   __HAL_UART_ENABLE(huart);
 524:Drivers/STM32F0xx_HAL_Driver/Src/stm32f0xx_hal_uart.c **** 
 525:Drivers/STM32F0xx_HAL_Driver/Src/stm32f0xx_hal_uart.c ****   /* TEACK and/or REACK to check before moving huart->gState and huart->RxState to Ready */
 526:Drivers/STM32F0xx_HAL_Driver/Src/stm32f0xx_hal_uart.c ****   return (UART_CheckIdleState(huart));
 527:Drivers/STM32F0xx_HAL_Driver/Src/stm32f0xx_hal_uart.c **** }
 528:Drivers/STM32F0xx_HAL_Driver/Src/stm32f0xx_hal_uart.c **** 
 529:Drivers/STM32F0xx_HAL_Driver/Src/stm32f0xx_hal_uart.c **** 
 530:Drivers/STM32F0xx_HAL_Driver/Src/stm32f0xx_hal_uart.c **** /**
 531:Drivers/STM32F0xx_HAL_Driver/Src/stm32f0xx_hal_uart.c ****   * @brief DeInitialize the UART peripheral.
 532:Drivers/STM32F0xx_HAL_Driver/Src/stm32f0xx_hal_uart.c ****   * @param huart UART handle.
 533:Drivers/STM32F0xx_HAL_Driver/Src/stm32f0xx_hal_uart.c ****   * @retval HAL status
 534:Drivers/STM32F0xx_HAL_Driver/Src/stm32f0xx_hal_uart.c ****   */
 535:Drivers/STM32F0xx_HAL_Driver/Src/stm32f0xx_hal_uart.c **** HAL_StatusTypeDef HAL_UART_DeInit(UART_HandleTypeDef *huart)
 536:Drivers/STM32F0xx_HAL_Driver/Src/stm32f0xx_hal_uart.c **** {
 537:Drivers/STM32F0xx_HAL_Driver/Src/stm32f0xx_hal_uart.c ****   /* Check the UART handle allocation */
 538:Drivers/STM32F0xx_HAL_Driver/Src/stm32f0xx_hal_uart.c ****   if(huart == NULL)
 539:Drivers/STM32F0xx_HAL_Driver/Src/stm32f0xx_hal_uart.c ****   {
 540:Drivers/STM32F0xx_HAL_Driver/Src/stm32f0xx_hal_uart.c ****     return HAL_ERROR;
 541:Drivers/STM32F0xx_HAL_Driver/Src/stm32f0xx_hal_uart.c ****   }
 542:Drivers/STM32F0xx_HAL_Driver/Src/stm32f0xx_hal_uart.c **** 
 543:Drivers/STM32F0xx_HAL_Driver/Src/stm32f0xx_hal_uart.c ****   /* Check the parameters */
ARM GAS  /tmp/ccDDwqiC.s 			page 11


 544:Drivers/STM32F0xx_HAL_Driver/Src/stm32f0xx_hal_uart.c ****   assert_param(IS_UART_INSTANCE(huart->Instance));
 545:Drivers/STM32F0xx_HAL_Driver/Src/stm32f0xx_hal_uart.c **** 
 546:Drivers/STM32F0xx_HAL_Driver/Src/stm32f0xx_hal_uart.c ****   huart->gState = HAL_UART_STATE_BUSY;
 547:Drivers/STM32F0xx_HAL_Driver/Src/stm32f0xx_hal_uart.c **** 
 548:Drivers/STM32F0xx_HAL_Driver/Src/stm32f0xx_hal_uart.c ****   /* Disable the Peripheral */
 549:Drivers/STM32F0xx_HAL_Driver/Src/stm32f0xx_hal_uart.c ****   __HAL_UART_DISABLE(huart);
 550:Drivers/STM32F0xx_HAL_Driver/Src/stm32f0xx_hal_uart.c **** 
 551:Drivers/STM32F0xx_HAL_Driver/Src/stm32f0xx_hal_uart.c ****   huart->Instance->CR1 = 0x0U;
 552:Drivers/STM32F0xx_HAL_Driver/Src/stm32f0xx_hal_uart.c ****   huart->Instance->CR2 = 0x0U;
 553:Drivers/STM32F0xx_HAL_Driver/Src/stm32f0xx_hal_uart.c ****   huart->Instance->CR3 = 0x0U;
 554:Drivers/STM32F0xx_HAL_Driver/Src/stm32f0xx_hal_uart.c **** 
 555:Drivers/STM32F0xx_HAL_Driver/Src/stm32f0xx_hal_uart.c ****   /* DeInit the low level hardware */
 556:Drivers/STM32F0xx_HAL_Driver/Src/stm32f0xx_hal_uart.c ****   HAL_UART_MspDeInit(huart);
 557:Drivers/STM32F0xx_HAL_Driver/Src/stm32f0xx_hal_uart.c **** 
 558:Drivers/STM32F0xx_HAL_Driver/Src/stm32f0xx_hal_uart.c ****   huart->ErrorCode = HAL_UART_ERROR_NONE;
 559:Drivers/STM32F0xx_HAL_Driver/Src/stm32f0xx_hal_uart.c ****   huart->gState    = HAL_UART_STATE_RESET;
 560:Drivers/STM32F0xx_HAL_Driver/Src/stm32f0xx_hal_uart.c ****   huart->RxState   = HAL_UART_STATE_RESET;
 561:Drivers/STM32F0xx_HAL_Driver/Src/stm32f0xx_hal_uart.c **** 
 562:Drivers/STM32F0xx_HAL_Driver/Src/stm32f0xx_hal_uart.c ****   /* Process Unlock */
 563:Drivers/STM32F0xx_HAL_Driver/Src/stm32f0xx_hal_uart.c ****   __HAL_UNLOCK(huart);
 564:Drivers/STM32F0xx_HAL_Driver/Src/stm32f0xx_hal_uart.c **** 
 565:Drivers/STM32F0xx_HAL_Driver/Src/stm32f0xx_hal_uart.c ****   return HAL_OK;
 566:Drivers/STM32F0xx_HAL_Driver/Src/stm32f0xx_hal_uart.c **** }
 567:Drivers/STM32F0xx_HAL_Driver/Src/stm32f0xx_hal_uart.c **** 
 568:Drivers/STM32F0xx_HAL_Driver/Src/stm32f0xx_hal_uart.c **** /**
 569:Drivers/STM32F0xx_HAL_Driver/Src/stm32f0xx_hal_uart.c ****   * @brief Initialize the UART MSP.
 570:Drivers/STM32F0xx_HAL_Driver/Src/stm32f0xx_hal_uart.c ****   * @param huart UART handle.
 571:Drivers/STM32F0xx_HAL_Driver/Src/stm32f0xx_hal_uart.c ****   * @retval None
 572:Drivers/STM32F0xx_HAL_Driver/Src/stm32f0xx_hal_uart.c ****   */
 573:Drivers/STM32F0xx_HAL_Driver/Src/stm32f0xx_hal_uart.c **** __weak void HAL_UART_MspInit(UART_HandleTypeDef *huart)
 574:Drivers/STM32F0xx_HAL_Driver/Src/stm32f0xx_hal_uart.c **** {
  29              		.loc 1 574 1 view -0
  30              		.cfi_startproc
  31              		@ args = 0, pretend = 0, frame = 0
  32              		@ frame_needed = 0, uses_anonymous_args = 0
  33              		@ link register save eliminated.
 575:Drivers/STM32F0xx_HAL_Driver/Src/stm32f0xx_hal_uart.c ****   /* Prevent unused argument(s) compilation warning */
 576:Drivers/STM32F0xx_HAL_Driver/Src/stm32f0xx_hal_uart.c ****   UNUSED(huart);
  34              		.loc 1 576 3 view .LVU1
 577:Drivers/STM32F0xx_HAL_Driver/Src/stm32f0xx_hal_uart.c **** 
 578:Drivers/STM32F0xx_HAL_Driver/Src/stm32f0xx_hal_uart.c ****   /* NOTE : This function should not be modified, when the callback is needed,
 579:Drivers/STM32F0xx_HAL_Driver/Src/stm32f0xx_hal_uart.c ****             the HAL_UART_MspInit can be implemented in the user file
 580:Drivers/STM32F0xx_HAL_Driver/Src/stm32f0xx_hal_uart.c ****    */
 581:Drivers/STM32F0xx_HAL_Driver/Src/stm32f0xx_hal_uart.c **** }
  35              		.loc 1 581 1 is_stmt 0 view .LVU2
  36              		@ sp needed
  37 0000 7047     		bx	lr
  38              		.cfi_endproc
  39              	.LFE41:
  41 0002 C046     		.section	.text.HAL_UART_MspDeInit,"ax",%progbits
  42              		.align	1
  43              		.p2align 2,,3
  44              		.weak	HAL_UART_MspDeInit
  45              		.syntax unified
  46              		.code	16
  47              		.thumb_func
  48              		.fpu softvfp
ARM GAS  /tmp/ccDDwqiC.s 			page 12


  50              	HAL_UART_MspDeInit:
  51              	.LFB97:
  52              		.cfi_startproc
  53              		@ args = 0, pretend = 0, frame = 0
  54              		@ frame_needed = 0, uses_anonymous_args = 0
  55              		@ link register save eliminated.
  56              		@ sp needed
  57 0000 7047     		bx	lr
  58              		.cfi_endproc
  59              	.LFE97:
  61 0002 C046     		.section	.text.HAL_UART_DeInit,"ax",%progbits
  62              		.align	1
  63              		.p2align 2,,3
  64              		.global	HAL_UART_DeInit
  65              		.syntax unified
  66              		.code	16
  67              		.thumb_func
  68              		.fpu softvfp
  70              	HAL_UART_DeInit:
  71              	.LVL1:
  72              	.LFB40:
 536:Drivers/STM32F0xx_HAL_Driver/Src/stm32f0xx_hal_uart.c ****   /* Check the UART handle allocation */
  73              		.loc 1 536 1 is_stmt 1 view -0
  74              		.cfi_startproc
  75              		@ args = 0, pretend = 0, frame = 0
  76              		@ frame_needed = 0, uses_anonymous_args = 0
 538:Drivers/STM32F0xx_HAL_Driver/Src/stm32f0xx_hal_uart.c ****   {
  77              		.loc 1 538 3 view .LVU4
 536:Drivers/STM32F0xx_HAL_Driver/Src/stm32f0xx_hal_uart.c ****   /* Check the UART handle allocation */
  78              		.loc 1 536 1 is_stmt 0 view .LVU5
  79 0000 70B5     		push	{r4, r5, r6, lr}
  80              	.LCFI0:
  81              		.cfi_def_cfa_offset 16
  82              		.cfi_offset 4, -16
  83              		.cfi_offset 5, -12
  84              		.cfi_offset 6, -8
  85              		.cfi_offset 14, -4
 536:Drivers/STM32F0xx_HAL_Driver/Src/stm32f0xx_hal_uart.c ****   /* Check the UART handle allocation */
  86              		.loc 1 536 1 view .LVU6
  87 0002 041E     		subs	r4, r0, #0
 538:Drivers/STM32F0xx_HAL_Driver/Src/stm32f0xx_hal_uart.c ****   {
  88              		.loc 1 538 5 view .LVU7
  89 0004 15D0     		beq	.L6
 544:Drivers/STM32F0xx_HAL_Driver/Src/stm32f0xx_hal_uart.c **** 
  90              		.loc 1 544 3 is_stmt 1 view .LVU8
 546:Drivers/STM32F0xx_HAL_Driver/Src/stm32f0xx_hal_uart.c **** 
  91              		.loc 1 546 3 view .LVU9
 546:Drivers/STM32F0xx_HAL_Driver/Src/stm32f0xx_hal_uart.c **** 
  92              		.loc 1 546 17 is_stmt 0 view .LVU10
  93 0006 6926     		movs	r6, #105
  94 0008 2423     		movs	r3, #36
 549:Drivers/STM32F0xx_HAL_Driver/Src/stm32f0xx_hal_uart.c **** 
  95              		.loc 1 549 3 view .LVU11
  96 000a 0121     		movs	r1, #1
 551:Drivers/STM32F0xx_HAL_Driver/Src/stm32f0xx_hal_uart.c ****   huart->Instance->CR2 = 0x0U;
  97              		.loc 1 551 24 view .LVU12
  98 000c 0025     		movs	r5, #0
ARM GAS  /tmp/ccDDwqiC.s 			page 13


 546:Drivers/STM32F0xx_HAL_Driver/Src/stm32f0xx_hal_uart.c **** 
  99              		.loc 1 546 17 view .LVU13
 100 000e 8355     		strb	r3, [r0, r6]
 549:Drivers/STM32F0xx_HAL_Driver/Src/stm32f0xx_hal_uart.c **** 
 101              		.loc 1 549 3 is_stmt 1 view .LVU14
 102 0010 0368     		ldr	r3, [r0]
 103 0012 1A68     		ldr	r2, [r3]
 104 0014 8A43     		bics	r2, r1
 105 0016 1A60     		str	r2, [r3]
 551:Drivers/STM32F0xx_HAL_Driver/Src/stm32f0xx_hal_uart.c ****   huart->Instance->CR2 = 0x0U;
 106              		.loc 1 551 3 view .LVU15
 551:Drivers/STM32F0xx_HAL_Driver/Src/stm32f0xx_hal_uart.c ****   huart->Instance->CR2 = 0x0U;
 107              		.loc 1 551 24 is_stmt 0 view .LVU16
 108 0018 1D60     		str	r5, [r3]
 552:Drivers/STM32F0xx_HAL_Driver/Src/stm32f0xx_hal_uart.c ****   huart->Instance->CR3 = 0x0U;
 109              		.loc 1 552 3 is_stmt 1 view .LVU17
 552:Drivers/STM32F0xx_HAL_Driver/Src/stm32f0xx_hal_uart.c ****   huart->Instance->CR3 = 0x0U;
 110              		.loc 1 552 24 is_stmt 0 view .LVU18
 111 001a 5D60     		str	r5, [r3, #4]
 553:Drivers/STM32F0xx_HAL_Driver/Src/stm32f0xx_hal_uart.c **** 
 112              		.loc 1 553 3 is_stmt 1 view .LVU19
 553:Drivers/STM32F0xx_HAL_Driver/Src/stm32f0xx_hal_uart.c **** 
 113              		.loc 1 553 24 is_stmt 0 view .LVU20
 114 001c 9D60     		str	r5, [r3, #8]
 556:Drivers/STM32F0xx_HAL_Driver/Src/stm32f0xx_hal_uart.c **** 
 115              		.loc 1 556 3 is_stmt 1 view .LVU21
 116 001e FFF7FEFF 		bl	HAL_UART_MspDeInit
 117              	.LVL2:
 558:Drivers/STM32F0xx_HAL_Driver/Src/stm32f0xx_hal_uart.c ****   huart->gState    = HAL_UART_STATE_RESET;
 118              		.loc 1 558 3 view .LVU22
 560:Drivers/STM32F0xx_HAL_Driver/Src/stm32f0xx_hal_uart.c **** 
 119              		.loc 1 560 20 is_stmt 0 view .LVU23
 120 0022 6A23     		movs	r3, #106
 565:Drivers/STM32F0xx_HAL_Driver/Src/stm32f0xx_hal_uart.c **** }
 121              		.loc 1 565 10 view .LVU24
 122 0024 0020     		movs	r0, #0
 558:Drivers/STM32F0xx_HAL_Driver/Src/stm32f0xx_hal_uart.c ****   huart->gState    = HAL_UART_STATE_RESET;
 123              		.loc 1 558 20 view .LVU25
 124 0026 E566     		str	r5, [r4, #108]
 559:Drivers/STM32F0xx_HAL_Driver/Src/stm32f0xx_hal_uart.c ****   huart->RxState   = HAL_UART_STATE_RESET;
 125              		.loc 1 559 3 is_stmt 1 view .LVU26
 559:Drivers/STM32F0xx_HAL_Driver/Src/stm32f0xx_hal_uart.c ****   huart->RxState   = HAL_UART_STATE_RESET;
 126              		.loc 1 559 20 is_stmt 0 view .LVU27
 127 0028 A555     		strb	r5, [r4, r6]
 560:Drivers/STM32F0xx_HAL_Driver/Src/stm32f0xx_hal_uart.c **** 
 128              		.loc 1 560 3 is_stmt 1 view .LVU28
 560:Drivers/STM32F0xx_HAL_Driver/Src/stm32f0xx_hal_uart.c **** 
 129              		.loc 1 560 20 is_stmt 0 view .LVU29
 130 002a E554     		strb	r5, [r4, r3]
 563:Drivers/STM32F0xx_HAL_Driver/Src/stm32f0xx_hal_uart.c **** 
 131              		.loc 1 563 3 is_stmt 1 view .LVU30
 563:Drivers/STM32F0xx_HAL_Driver/Src/stm32f0xx_hal_uart.c **** 
 132              		.loc 1 563 3 view .LVU31
 133 002c 023B     		subs	r3, r3, #2
 134 002e E554     		strb	r5, [r4, r3]
 565:Drivers/STM32F0xx_HAL_Driver/Src/stm32f0xx_hal_uart.c **** }
 135              		.loc 1 565 3 view .LVU32
ARM GAS  /tmp/ccDDwqiC.s 			page 14


 136              	.L5:
 566:Drivers/STM32F0xx_HAL_Driver/Src/stm32f0xx_hal_uart.c **** 
 137              		.loc 1 566 1 is_stmt 0 view .LVU33
 138              		@ sp needed
 139              	.LVL3:
 566:Drivers/STM32F0xx_HAL_Driver/Src/stm32f0xx_hal_uart.c **** 
 140              		.loc 1 566 1 view .LVU34
 141 0030 70BD     		pop	{r4, r5, r6, pc}
 142              	.LVL4:
 143              	.L6:
 540:Drivers/STM32F0xx_HAL_Driver/Src/stm32f0xx_hal_uart.c ****   }
 144              		.loc 1 540 12 view .LVU35
 145 0032 0120     		movs	r0, #1
 146              	.LVL5:
 540:Drivers/STM32F0xx_HAL_Driver/Src/stm32f0xx_hal_uart.c ****   }
 147              		.loc 1 540 12 view .LVU36
 148 0034 FCE7     		b	.L5
 149              		.cfi_endproc
 150              	.LFE40:
 152 0036 C046     		.section	.text.HAL_UART_Transmit,"ax",%progbits
 153              		.align	1
 154              		.p2align 2,,3
 155              		.global	HAL_UART_Transmit
 156              		.syntax unified
 157              		.code	16
 158              		.thumb_func
 159              		.fpu softvfp
 161              	HAL_UART_Transmit:
 162              	.LVL6:
 163              	.LFB43:
 582:Drivers/STM32F0xx_HAL_Driver/Src/stm32f0xx_hal_uart.c **** 
 583:Drivers/STM32F0xx_HAL_Driver/Src/stm32f0xx_hal_uart.c **** /**
 584:Drivers/STM32F0xx_HAL_Driver/Src/stm32f0xx_hal_uart.c ****   * @brief DeInitialize the UART MSP.
 585:Drivers/STM32F0xx_HAL_Driver/Src/stm32f0xx_hal_uart.c ****   * @param huart UART handle.
 586:Drivers/STM32F0xx_HAL_Driver/Src/stm32f0xx_hal_uart.c ****   * @retval None
 587:Drivers/STM32F0xx_HAL_Driver/Src/stm32f0xx_hal_uart.c ****   */
 588:Drivers/STM32F0xx_HAL_Driver/Src/stm32f0xx_hal_uart.c **** __weak void HAL_UART_MspDeInit(UART_HandleTypeDef *huart)
 589:Drivers/STM32F0xx_HAL_Driver/Src/stm32f0xx_hal_uart.c **** {
 590:Drivers/STM32F0xx_HAL_Driver/Src/stm32f0xx_hal_uart.c ****   /* Prevent unused argument(s) compilation warning */
 591:Drivers/STM32F0xx_HAL_Driver/Src/stm32f0xx_hal_uart.c ****   UNUSED(huart);
 592:Drivers/STM32F0xx_HAL_Driver/Src/stm32f0xx_hal_uart.c **** 
 593:Drivers/STM32F0xx_HAL_Driver/Src/stm32f0xx_hal_uart.c ****   /* NOTE : This function should not be modified, when the callback is needed,
 594:Drivers/STM32F0xx_HAL_Driver/Src/stm32f0xx_hal_uart.c ****             the HAL_UART_MspDeInit can be implemented in the user file
 595:Drivers/STM32F0xx_HAL_Driver/Src/stm32f0xx_hal_uart.c ****    */
 596:Drivers/STM32F0xx_HAL_Driver/Src/stm32f0xx_hal_uart.c **** }
 597:Drivers/STM32F0xx_HAL_Driver/Src/stm32f0xx_hal_uart.c **** 
 598:Drivers/STM32F0xx_HAL_Driver/Src/stm32f0xx_hal_uart.c **** /**
 599:Drivers/STM32F0xx_HAL_Driver/Src/stm32f0xx_hal_uart.c ****   * @}
 600:Drivers/STM32F0xx_HAL_Driver/Src/stm32f0xx_hal_uart.c ****   */
 601:Drivers/STM32F0xx_HAL_Driver/Src/stm32f0xx_hal_uart.c **** 
 602:Drivers/STM32F0xx_HAL_Driver/Src/stm32f0xx_hal_uart.c **** /** @defgroup UART_Exported_Functions_Group2 IO operation functions
 603:Drivers/STM32F0xx_HAL_Driver/Src/stm32f0xx_hal_uart.c ****   * @brief UART Transmit/Receive functions
 604:Drivers/STM32F0xx_HAL_Driver/Src/stm32f0xx_hal_uart.c ****   *
 605:Drivers/STM32F0xx_HAL_Driver/Src/stm32f0xx_hal_uart.c **** @verbatim
 606:Drivers/STM32F0xx_HAL_Driver/Src/stm32f0xx_hal_uart.c ****  ===============================================================================
 607:Drivers/STM32F0xx_HAL_Driver/Src/stm32f0xx_hal_uart.c ****                       ##### IO operation functions #####
 608:Drivers/STM32F0xx_HAL_Driver/Src/stm32f0xx_hal_uart.c ****  ===============================================================================
ARM GAS  /tmp/ccDDwqiC.s 			page 15


 609:Drivers/STM32F0xx_HAL_Driver/Src/stm32f0xx_hal_uart.c ****     This subsection provides a set of functions allowing to manage the UART asynchronous
 610:Drivers/STM32F0xx_HAL_Driver/Src/stm32f0xx_hal_uart.c ****     and Half duplex data transfers.
 611:Drivers/STM32F0xx_HAL_Driver/Src/stm32f0xx_hal_uart.c **** 
 612:Drivers/STM32F0xx_HAL_Driver/Src/stm32f0xx_hal_uart.c ****     (#) There are two mode of transfer:
 613:Drivers/STM32F0xx_HAL_Driver/Src/stm32f0xx_hal_uart.c ****        (++) Blocking mode: The communication is performed in polling mode.
 614:Drivers/STM32F0xx_HAL_Driver/Src/stm32f0xx_hal_uart.c ****            The HAL status of all data processing is returned by the same function
 615:Drivers/STM32F0xx_HAL_Driver/Src/stm32f0xx_hal_uart.c ****            after finishing transfer.
 616:Drivers/STM32F0xx_HAL_Driver/Src/stm32f0xx_hal_uart.c ****        (++) Non-Blocking mode: The communication is performed using Interrupts
 617:Drivers/STM32F0xx_HAL_Driver/Src/stm32f0xx_hal_uart.c ****            or DMA, These API's return the HAL status.
 618:Drivers/STM32F0xx_HAL_Driver/Src/stm32f0xx_hal_uart.c ****            The end of the data processing will be indicated through the
 619:Drivers/STM32F0xx_HAL_Driver/Src/stm32f0xx_hal_uart.c ****            dedicated UART IRQ when using Interrupt mode or the DMA IRQ when
 620:Drivers/STM32F0xx_HAL_Driver/Src/stm32f0xx_hal_uart.c ****            using DMA mode.
 621:Drivers/STM32F0xx_HAL_Driver/Src/stm32f0xx_hal_uart.c ****            The HAL_UART_TxCpltCallback(), HAL_UART_RxCpltCallback() user callbacks
 622:Drivers/STM32F0xx_HAL_Driver/Src/stm32f0xx_hal_uart.c ****            will be executed respectively at the end of the transmit or Receive process
 623:Drivers/STM32F0xx_HAL_Driver/Src/stm32f0xx_hal_uart.c ****            The HAL_UART_ErrorCallback()user callback will be executed when a communication error is
 624:Drivers/STM32F0xx_HAL_Driver/Src/stm32f0xx_hal_uart.c **** 
 625:Drivers/STM32F0xx_HAL_Driver/Src/stm32f0xx_hal_uart.c ****     (#) Blocking mode API's are :
 626:Drivers/STM32F0xx_HAL_Driver/Src/stm32f0xx_hal_uart.c ****         (++) HAL_UART_Transmit()
 627:Drivers/STM32F0xx_HAL_Driver/Src/stm32f0xx_hal_uart.c ****         (++) HAL_UART_Receive()
 628:Drivers/STM32F0xx_HAL_Driver/Src/stm32f0xx_hal_uart.c **** 
 629:Drivers/STM32F0xx_HAL_Driver/Src/stm32f0xx_hal_uart.c ****     (#) Non-Blocking mode API's with Interrupt are :
 630:Drivers/STM32F0xx_HAL_Driver/Src/stm32f0xx_hal_uart.c ****         (++) HAL_UART_Transmit_IT()
 631:Drivers/STM32F0xx_HAL_Driver/Src/stm32f0xx_hal_uart.c ****         (++) HAL_UART_Receive_IT()
 632:Drivers/STM32F0xx_HAL_Driver/Src/stm32f0xx_hal_uart.c ****         (++) HAL_UART_IRQHandler()
 633:Drivers/STM32F0xx_HAL_Driver/Src/stm32f0xx_hal_uart.c **** 
 634:Drivers/STM32F0xx_HAL_Driver/Src/stm32f0xx_hal_uart.c ****     (#) Non-Blocking mode API's with DMA are :
 635:Drivers/STM32F0xx_HAL_Driver/Src/stm32f0xx_hal_uart.c ****         (++) HAL_UART_Transmit_DMA()
 636:Drivers/STM32F0xx_HAL_Driver/Src/stm32f0xx_hal_uart.c ****         (++) HAL_UART_Receive_DMA()
 637:Drivers/STM32F0xx_HAL_Driver/Src/stm32f0xx_hal_uart.c ****         (++) HAL_UART_DMAPause()
 638:Drivers/STM32F0xx_HAL_Driver/Src/stm32f0xx_hal_uart.c ****         (++) HAL_UART_DMAResume()
 639:Drivers/STM32F0xx_HAL_Driver/Src/stm32f0xx_hal_uart.c ****         (++) HAL_UART_DMAStop()
 640:Drivers/STM32F0xx_HAL_Driver/Src/stm32f0xx_hal_uart.c **** 
 641:Drivers/STM32F0xx_HAL_Driver/Src/stm32f0xx_hal_uart.c ****     (#) A set of Transfer Complete Callbacks are provided in Non_Blocking mode:
 642:Drivers/STM32F0xx_HAL_Driver/Src/stm32f0xx_hal_uart.c ****         (++) HAL_UART_TxHalfCpltCallback()
 643:Drivers/STM32F0xx_HAL_Driver/Src/stm32f0xx_hal_uart.c ****         (++) HAL_UART_TxCpltCallback()
 644:Drivers/STM32F0xx_HAL_Driver/Src/stm32f0xx_hal_uart.c ****         (++) HAL_UART_RxHalfCpltCallback()
 645:Drivers/STM32F0xx_HAL_Driver/Src/stm32f0xx_hal_uart.c ****         (++) HAL_UART_RxCpltCallback()
 646:Drivers/STM32F0xx_HAL_Driver/Src/stm32f0xx_hal_uart.c ****         (++) HAL_UART_ErrorCallback()
 647:Drivers/STM32F0xx_HAL_Driver/Src/stm32f0xx_hal_uart.c **** 
 648:Drivers/STM32F0xx_HAL_Driver/Src/stm32f0xx_hal_uart.c ****     (#) Non-Blocking mode transfers could be aborted using Abort API's :
 649:Drivers/STM32F0xx_HAL_Driver/Src/stm32f0xx_hal_uart.c ****         (++) HAL_UART_Abort()
 650:Drivers/STM32F0xx_HAL_Driver/Src/stm32f0xx_hal_uart.c ****         (++) HAL_UART_AbortTransmit()
 651:Drivers/STM32F0xx_HAL_Driver/Src/stm32f0xx_hal_uart.c ****         (++) HAL_UART_AbortReceive()
 652:Drivers/STM32F0xx_HAL_Driver/Src/stm32f0xx_hal_uart.c ****         (++) HAL_UART_Abort_IT()
 653:Drivers/STM32F0xx_HAL_Driver/Src/stm32f0xx_hal_uart.c ****         (++) HAL_UART_AbortTransmit_IT()
 654:Drivers/STM32F0xx_HAL_Driver/Src/stm32f0xx_hal_uart.c ****         (++) HAL_UART_AbortReceive_IT()
 655:Drivers/STM32F0xx_HAL_Driver/Src/stm32f0xx_hal_uart.c **** 
 656:Drivers/STM32F0xx_HAL_Driver/Src/stm32f0xx_hal_uart.c ****     (#) For Abort services based on interrupts (HAL_UART_Abortxxx_IT), a set of Abort Complete Call
 657:Drivers/STM32F0xx_HAL_Driver/Src/stm32f0xx_hal_uart.c ****         (++) HAL_UART_AbortCpltCallback()
 658:Drivers/STM32F0xx_HAL_Driver/Src/stm32f0xx_hal_uart.c ****         (++) HAL_UART_AbortTransmitCpltCallback()
 659:Drivers/STM32F0xx_HAL_Driver/Src/stm32f0xx_hal_uart.c ****         (++) HAL_UART_AbortReceiveCpltCallback()
 660:Drivers/STM32F0xx_HAL_Driver/Src/stm32f0xx_hal_uart.c **** 
 661:Drivers/STM32F0xx_HAL_Driver/Src/stm32f0xx_hal_uart.c ****     (#) In Non-Blocking mode transfers, possible errors are split into 2 categories.
 662:Drivers/STM32F0xx_HAL_Driver/Src/stm32f0xx_hal_uart.c ****         Errors are handled as follows :
 663:Drivers/STM32F0xx_HAL_Driver/Src/stm32f0xx_hal_uart.c ****         (++) Error is considered as Recoverable and non blocking : Transfer could go till end, but 
 664:Drivers/STM32F0xx_HAL_Driver/Src/stm32f0xx_hal_uart.c ****              to be evaluated by user : this concerns Frame Error, Parity Error or Noise Error in In
 665:Drivers/STM32F0xx_HAL_Driver/Src/stm32f0xx_hal_uart.c ****              Received character is then retrieved and stored in Rx buffer, Error code is set to all
ARM GAS  /tmp/ccDDwqiC.s 			page 16


 666:Drivers/STM32F0xx_HAL_Driver/Src/stm32f0xx_hal_uart.c ****              and HAL_UART_ErrorCallback() user callback is executed. Transfer is kept ongoing on UA
 667:Drivers/STM32F0xx_HAL_Driver/Src/stm32f0xx_hal_uart.c ****              If user wants to abort it, Abort services should be called by user.
 668:Drivers/STM32F0xx_HAL_Driver/Src/stm32f0xx_hal_uart.c ****         (++) Error is considered as Blocking : Transfer could not be completed properly and is abor
 669:Drivers/STM32F0xx_HAL_Driver/Src/stm32f0xx_hal_uart.c ****              This concerns Overrun Error In Interrupt mode reception and all errors in DMA mode.
 670:Drivers/STM32F0xx_HAL_Driver/Src/stm32f0xx_hal_uart.c ****              Error code is set to allow user to identify error type, and HAL_UART_ErrorCallback() u
 671:Drivers/STM32F0xx_HAL_Driver/Src/stm32f0xx_hal_uart.c **** 
 672:Drivers/STM32F0xx_HAL_Driver/Src/stm32f0xx_hal_uart.c ****     -@- In the Half duplex communication, it is forbidden to run the transmit
 673:Drivers/STM32F0xx_HAL_Driver/Src/stm32f0xx_hal_uart.c ****         and receive process in parallel, the UART state HAL_UART_STATE_BUSY_TX_RX can't be useful.
 674:Drivers/STM32F0xx_HAL_Driver/Src/stm32f0xx_hal_uart.c **** 
 675:Drivers/STM32F0xx_HAL_Driver/Src/stm32f0xx_hal_uart.c **** @endverbatim
 676:Drivers/STM32F0xx_HAL_Driver/Src/stm32f0xx_hal_uart.c ****   * @{
 677:Drivers/STM32F0xx_HAL_Driver/Src/stm32f0xx_hal_uart.c ****   */
 678:Drivers/STM32F0xx_HAL_Driver/Src/stm32f0xx_hal_uart.c **** 
 679:Drivers/STM32F0xx_HAL_Driver/Src/stm32f0xx_hal_uart.c **** /**
 680:Drivers/STM32F0xx_HAL_Driver/Src/stm32f0xx_hal_uart.c ****   * @brief Send an amount of data in blocking mode.
 681:Drivers/STM32F0xx_HAL_Driver/Src/stm32f0xx_hal_uart.c ****   * @param huart UART handle.
 682:Drivers/STM32F0xx_HAL_Driver/Src/stm32f0xx_hal_uart.c ****   * @param pData Pointer to data buffer.
 683:Drivers/STM32F0xx_HAL_Driver/Src/stm32f0xx_hal_uart.c ****   * @param Size Amount of data to be sent.
 684:Drivers/STM32F0xx_HAL_Driver/Src/stm32f0xx_hal_uart.c ****   * @param Timeout Timeout duration.
 685:Drivers/STM32F0xx_HAL_Driver/Src/stm32f0xx_hal_uart.c ****   * @note   When UART parity is not enabled (PCE = 0), and Word Length is configured to 9 bits (M1-
 686:Drivers/STM32F0xx_HAL_Driver/Src/stm32f0xx_hal_uart.c ****   *         address of user data buffer containing data to be sent, should be aligned on a half wor
 687:Drivers/STM32F0xx_HAL_Driver/Src/stm32f0xx_hal_uart.c ****   *         (as sent data will be handled using u16 pointer cast). Depending on compilation chain,
 688:Drivers/STM32F0xx_HAL_Driver/Src/stm32f0xx_hal_uart.c ****   *         use of specific alignment compilation directives or pragmas might be required to ensure
 689:Drivers/STM32F0xx_HAL_Driver/Src/stm32f0xx_hal_uart.c ****   * @retval HAL status
 690:Drivers/STM32F0xx_HAL_Driver/Src/stm32f0xx_hal_uart.c ****   */
 691:Drivers/STM32F0xx_HAL_Driver/Src/stm32f0xx_hal_uart.c **** HAL_StatusTypeDef HAL_UART_Transmit(UART_HandleTypeDef *huart, uint8_t *pData, uint16_t Size, uint3
 692:Drivers/STM32F0xx_HAL_Driver/Src/stm32f0xx_hal_uart.c **** {
 164              		.loc 1 692 1 is_stmt 1 view -0
 165              		.cfi_startproc
 166              		@ args = 0, pretend = 0, frame = 0
 167              		@ frame_needed = 0, uses_anonymous_args = 0
 168              		.loc 1 692 1 is_stmt 0 view .LVU38
 169 0000 F8B5     		push	{r3, r4, r5, r6, r7, lr}
 170              	.LCFI1:
 171              		.cfi_def_cfa_offset 24
 172              		.cfi_offset 3, -24
 173              		.cfi_offset 4, -20
 174              		.cfi_offset 5, -16
 175              		.cfi_offset 6, -12
 176              		.cfi_offset 7, -8
 177              		.cfi_offset 14, -4
 178 0002 4746     		mov	r7, r8
 179 0004 CE46     		mov	lr, r9
 180 0006 80B5     		push	{r7, lr}
 181              	.LCFI2:
 182              		.cfi_def_cfa_offset 32
 183              		.cfi_offset 8, -32
 184              		.cfi_offset 9, -28
 185              		.loc 1 692 1 view .LVU39
 186 0008 1F00     		movs	r7, r3
 693:Drivers/STM32F0xx_HAL_Driver/Src/stm32f0xx_hal_uart.c ****   uint16_t* tmp;
 694:Drivers/STM32F0xx_HAL_Driver/Src/stm32f0xx_hal_uart.c ****   uint32_t tickstart = 0U;
 695:Drivers/STM32F0xx_HAL_Driver/Src/stm32f0xx_hal_uart.c **** 
 696:Drivers/STM32F0xx_HAL_Driver/Src/stm32f0xx_hal_uart.c ****   /* Check that a Tx process is not already ongoing */
 697:Drivers/STM32F0xx_HAL_Driver/Src/stm32f0xx_hal_uart.c ****   if(huart->gState == HAL_UART_STATE_READY)
 187              		.loc 1 697 11 view .LVU40
 188 000a 6923     		movs	r3, #105
ARM GAS  /tmp/ccDDwqiC.s 			page 17


 189              	.LVL7:
 190              		.loc 1 697 11 view .LVU41
 191 000c C35C     		ldrb	r3, [r0, r3]
 692:Drivers/STM32F0xx_HAL_Driver/Src/stm32f0xx_hal_uart.c ****   uint16_t* tmp;
 192              		.loc 1 692 1 view .LVU42
 193 000e 0400     		movs	r4, r0
 194 0010 0D00     		movs	r5, r1
 195 0012 1600     		movs	r6, r2
 693:Drivers/STM32F0xx_HAL_Driver/Src/stm32f0xx_hal_uart.c ****   uint16_t* tmp;
 196              		.loc 1 693 3 is_stmt 1 view .LVU43
 694:Drivers/STM32F0xx_HAL_Driver/Src/stm32f0xx_hal_uart.c **** 
 197              		.loc 1 694 3 view .LVU44
 198              	.LVL8:
 199              		.loc 1 697 3 view .LVU45
 200              		.loc 1 697 5 is_stmt 0 view .LVU46
 201 0014 202B     		cmp	r3, #32
 202 0016 00D0     		beq	.LCB132
 203 0018 6DE0     		b	.L29	@long jump
 204              	.LCB132:
 698:Drivers/STM32F0xx_HAL_Driver/Src/stm32f0xx_hal_uart.c ****   {
 699:Drivers/STM32F0xx_HAL_Driver/Src/stm32f0xx_hal_uart.c ****     if((pData == NULL ) || (Size == 0U))
 205              		.loc 1 699 5 is_stmt 1 view .LVU47
 206              		.loc 1 699 7 is_stmt 0 view .LVU48
 207 001a 0029     		cmp	r1, #0
 208 001c 47D0     		beq	.L28
 209              		.loc 1 699 25 discriminator 1 view .LVU49
 210 001e 002A     		cmp	r2, #0
 211 0020 45D0     		beq	.L28
 700:Drivers/STM32F0xx_HAL_Driver/Src/stm32f0xx_hal_uart.c ****     {
 701:Drivers/STM32F0xx_HAL_Driver/Src/stm32f0xx_hal_uart.c ****       return  HAL_ERROR;
 702:Drivers/STM32F0xx_HAL_Driver/Src/stm32f0xx_hal_uart.c ****     }
 703:Drivers/STM32F0xx_HAL_Driver/Src/stm32f0xx_hal_uart.c **** 
 704:Drivers/STM32F0xx_HAL_Driver/Src/stm32f0xx_hal_uart.c ****     /* In case of 9bits/No Parity transfer, pData buffer provided as input paramter 
 705:Drivers/STM32F0xx_HAL_Driver/Src/stm32f0xx_hal_uart.c ****        should be aligned on a u16 frontier, as data to be filled into TDR will be 
 706:Drivers/STM32F0xx_HAL_Driver/Src/stm32f0xx_hal_uart.c ****        handled through a u16 cast. */
 707:Drivers/STM32F0xx_HAL_Driver/Src/stm32f0xx_hal_uart.c ****     if ((huart->Init.WordLength == UART_WORDLENGTH_9B) && (huart->Init.Parity == UART_PARITY_NONE))
 212              		.loc 1 707 5 is_stmt 1 view .LVU50
 213              		.loc 1 707 8 is_stmt 0 view .LVU51
 214 0022 8023     		movs	r3, #128
 215 0024 8268     		ldr	r2, [r0, #8]
 216              	.LVL9:
 217              		.loc 1 707 8 view .LVU52
 218 0026 5B01     		lsls	r3, r3, #5
 219 0028 9A42     		cmp	r2, r3
 220 002a 3BD0     		beq	.L46
 221              	.L9:
 708:Drivers/STM32F0xx_HAL_Driver/Src/stm32f0xx_hal_uart.c ****     {
 709:Drivers/STM32F0xx_HAL_Driver/Src/stm32f0xx_hal_uart.c ****       if((((uint32_t)pData)&1U) != 0U)
 710:Drivers/STM32F0xx_HAL_Driver/Src/stm32f0xx_hal_uart.c ****       {
 711:Drivers/STM32F0xx_HAL_Driver/Src/stm32f0xx_hal_uart.c ****         return  HAL_ERROR;
 712:Drivers/STM32F0xx_HAL_Driver/Src/stm32f0xx_hal_uart.c ****       }
 713:Drivers/STM32F0xx_HAL_Driver/Src/stm32f0xx_hal_uart.c ****     }
 714:Drivers/STM32F0xx_HAL_Driver/Src/stm32f0xx_hal_uart.c **** 
 715:Drivers/STM32F0xx_HAL_Driver/Src/stm32f0xx_hal_uart.c ****     /* Process Locked */
 716:Drivers/STM32F0xx_HAL_Driver/Src/stm32f0xx_hal_uart.c ****     __HAL_LOCK(huart);
 222              		.loc 1 716 5 is_stmt 1 view .LVU53
 223              		.loc 1 716 5 view .LVU54
ARM GAS  /tmp/ccDDwqiC.s 			page 18


 224 002c 6823     		movs	r3, #104
 225 002e E25C     		ldrb	r2, [r4, r3]
 226 0030 012A     		cmp	r2, #1
 227 0032 60D0     		beq	.L29
 228              		.loc 1 716 5 discriminator 2 view .LVU55
 229 0034 0122     		movs	r2, #1
 230 0036 E254     		strb	r2, [r4, r3]
 717:Drivers/STM32F0xx_HAL_Driver/Src/stm32f0xx_hal_uart.c **** 
 718:Drivers/STM32F0xx_HAL_Driver/Src/stm32f0xx_hal_uart.c ****     huart->ErrorCode = HAL_UART_ERROR_NONE;
 231              		.loc 1 718 5 discriminator 2 view .LVU56
 232              		.loc 1 718 22 is_stmt 0 discriminator 2 view .LVU57
 233 0038 0023     		movs	r3, #0
 719:Drivers/STM32F0xx_HAL_Driver/Src/stm32f0xx_hal_uart.c ****     huart->gState = HAL_UART_STATE_BUSY_TX;
 234              		.loc 1 719 19 discriminator 2 view .LVU58
 235 003a 2032     		adds	r2, r2, #32
 718:Drivers/STM32F0xx_HAL_Driver/Src/stm32f0xx_hal_uart.c ****     huart->gState = HAL_UART_STATE_BUSY_TX;
 236              		.loc 1 718 22 discriminator 2 view .LVU59
 237 003c E366     		str	r3, [r4, #108]
 238              		.loc 1 719 5 is_stmt 1 discriminator 2 view .LVU60
 239              		.loc 1 719 19 is_stmt 0 discriminator 2 view .LVU61
 240 003e 6933     		adds	r3, r3, #105
 241 0040 E254     		strb	r2, [r4, r3]
 720:Drivers/STM32F0xx_HAL_Driver/Src/stm32f0xx_hal_uart.c **** 
 721:Drivers/STM32F0xx_HAL_Driver/Src/stm32f0xx_hal_uart.c ****     /* Init tickstart for timeout managment*/
 722:Drivers/STM32F0xx_HAL_Driver/Src/stm32f0xx_hal_uart.c ****     tickstart = HAL_GetTick();
 242              		.loc 1 722 5 is_stmt 1 discriminator 2 view .LVU62
 243              		.loc 1 722 17 is_stmt 0 discriminator 2 view .LVU63
 244 0042 FFF7FEFF 		bl	HAL_GetTick
 245              	.LVL10:
 723:Drivers/STM32F0xx_HAL_Driver/Src/stm32f0xx_hal_uart.c **** 
 724:Drivers/STM32F0xx_HAL_Driver/Src/stm32f0xx_hal_uart.c ****     huart->TxXferSize = Size;
 246              		.loc 1 724 23 discriminator 2 view .LVU64
 247 0046 5023     		movs	r3, #80
 248 0048 E652     		strh	r6, [r4, r3]
 725:Drivers/STM32F0xx_HAL_Driver/Src/stm32f0xx_hal_uart.c ****     huart->TxXferCount = Size;
 249              		.loc 1 725 24 discriminator 2 view .LVU65
 250 004a 0233     		adds	r3, r3, #2
 251 004c E652     		strh	r6, [r4, r3]
 252              	.LBB22:
 253              	.LBB23:
 726:Drivers/STM32F0xx_HAL_Driver/Src/stm32f0xx_hal_uart.c ****     while(huart->TxXferCount > 0)
 727:Drivers/STM32F0xx_HAL_Driver/Src/stm32f0xx_hal_uart.c ****     {
 728:Drivers/STM32F0xx_HAL_Driver/Src/stm32f0xx_hal_uart.c ****       huart->TxXferCount--;
 729:Drivers/STM32F0xx_HAL_Driver/Src/stm32f0xx_hal_uart.c ****       if(UART_WaitOnFlagUntilTimeout(huart, UART_FLAG_TXE, RESET, tickstart, Timeout) != HAL_OK)
 730:Drivers/STM32F0xx_HAL_Driver/Src/stm32f0xx_hal_uart.c ****       {
 731:Drivers/STM32F0xx_HAL_Driver/Src/stm32f0xx_hal_uart.c ****         return HAL_TIMEOUT;
 732:Drivers/STM32F0xx_HAL_Driver/Src/stm32f0xx_hal_uart.c ****       }
 733:Drivers/STM32F0xx_HAL_Driver/Src/stm32f0xx_hal_uart.c ****       if ((huart->Init.WordLength == UART_WORDLENGTH_9B) && (huart->Init.Parity == UART_PARITY_NONE
 734:Drivers/STM32F0xx_HAL_Driver/Src/stm32f0xx_hal_uart.c ****       {
 735:Drivers/STM32F0xx_HAL_Driver/Src/stm32f0xx_hal_uart.c ****         tmp = (uint16_t*) pData;
 736:Drivers/STM32F0xx_HAL_Driver/Src/stm32f0xx_hal_uart.c ****         huart->Instance->TDR = (*tmp & (uint16_t)0x01FFU);
 737:Drivers/STM32F0xx_HAL_Driver/Src/stm32f0xx_hal_uart.c ****         pData += 2;
 738:Drivers/STM32F0xx_HAL_Driver/Src/stm32f0xx_hal_uart.c ****       }
 739:Drivers/STM32F0xx_HAL_Driver/Src/stm32f0xx_hal_uart.c ****       else
 740:Drivers/STM32F0xx_HAL_Driver/Src/stm32f0xx_hal_uart.c ****       {
 741:Drivers/STM32F0xx_HAL_Driver/Src/stm32f0xx_hal_uart.c ****         huart->Instance->TDR = (*pData++ & (uint8_t)0xFFU);
 742:Drivers/STM32F0xx_HAL_Driver/Src/stm32f0xx_hal_uart.c ****       }
ARM GAS  /tmp/ccDDwqiC.s 			page 19


 743:Drivers/STM32F0xx_HAL_Driver/Src/stm32f0xx_hal_uart.c ****     }
 744:Drivers/STM32F0xx_HAL_Driver/Src/stm32f0xx_hal_uart.c ****     if(UART_WaitOnFlagUntilTimeout(huart, UART_FLAG_TC, RESET, tickstart, Timeout) != HAL_OK)
 745:Drivers/STM32F0xx_HAL_Driver/Src/stm32f0xx_hal_uart.c ****     {
 746:Drivers/STM32F0xx_HAL_Driver/Src/stm32f0xx_hal_uart.c ****       return HAL_TIMEOUT;
 747:Drivers/STM32F0xx_HAL_Driver/Src/stm32f0xx_hal_uart.c ****     }
 748:Drivers/STM32F0xx_HAL_Driver/Src/stm32f0xx_hal_uart.c **** 
 749:Drivers/STM32F0xx_HAL_Driver/Src/stm32f0xx_hal_uart.c ****     /* At end of Tx process, restore huart->gState to Ready */
 750:Drivers/STM32F0xx_HAL_Driver/Src/stm32f0xx_hal_uart.c ****     huart->gState = HAL_UART_STATE_READY;
 751:Drivers/STM32F0xx_HAL_Driver/Src/stm32f0xx_hal_uart.c **** 
 752:Drivers/STM32F0xx_HAL_Driver/Src/stm32f0xx_hal_uart.c ****     /* Process Unlocked */
 753:Drivers/STM32F0xx_HAL_Driver/Src/stm32f0xx_hal_uart.c ****     __HAL_UNLOCK(huart);
 754:Drivers/STM32F0xx_HAL_Driver/Src/stm32f0xx_hal_uart.c **** 
 755:Drivers/STM32F0xx_HAL_Driver/Src/stm32f0xx_hal_uart.c ****     return HAL_OK;
 756:Drivers/STM32F0xx_HAL_Driver/Src/stm32f0xx_hal_uart.c ****   }
 757:Drivers/STM32F0xx_HAL_Driver/Src/stm32f0xx_hal_uart.c ****   else
 758:Drivers/STM32F0xx_HAL_Driver/Src/stm32f0xx_hal_uart.c ****   {
 759:Drivers/STM32F0xx_HAL_Driver/Src/stm32f0xx_hal_uart.c ****     return HAL_BUSY;
 760:Drivers/STM32F0xx_HAL_Driver/Src/stm32f0xx_hal_uart.c ****   }
 761:Drivers/STM32F0xx_HAL_Driver/Src/stm32f0xx_hal_uart.c **** }
 762:Drivers/STM32F0xx_HAL_Driver/Src/stm32f0xx_hal_uart.c **** 
 763:Drivers/STM32F0xx_HAL_Driver/Src/stm32f0xx_hal_uart.c **** /**
 764:Drivers/STM32F0xx_HAL_Driver/Src/stm32f0xx_hal_uart.c ****   * @brief Receive an amount of data in blocking mode.
 765:Drivers/STM32F0xx_HAL_Driver/Src/stm32f0xx_hal_uart.c ****   * @param huart UART handle.
 766:Drivers/STM32F0xx_HAL_Driver/Src/stm32f0xx_hal_uart.c ****   * @param pData pointer to data buffer.
 767:Drivers/STM32F0xx_HAL_Driver/Src/stm32f0xx_hal_uart.c ****   * @param Size amount of data to be received.
 768:Drivers/STM32F0xx_HAL_Driver/Src/stm32f0xx_hal_uart.c ****   * @param Timeout Timeout duration.
 769:Drivers/STM32F0xx_HAL_Driver/Src/stm32f0xx_hal_uart.c ****   * @note   When UART parity is not enabled (PCE = 0), and Word Length is configured to 9 bits (M1-
 770:Drivers/STM32F0xx_HAL_Driver/Src/stm32f0xx_hal_uart.c ****   *         address of user data buffer for storing data to be received, should be aligned on a hal
 771:Drivers/STM32F0xx_HAL_Driver/Src/stm32f0xx_hal_uart.c ****   *         (as received data will be handled using u16 pointer cast). Depending on compilation cha
 772:Drivers/STM32F0xx_HAL_Driver/Src/stm32f0xx_hal_uart.c ****   *         use of specific alignment compilation directives or pragmas might be required to ensure
 773:Drivers/STM32F0xx_HAL_Driver/Src/stm32f0xx_hal_uart.c ****   * @retval HAL status
 774:Drivers/STM32F0xx_HAL_Driver/Src/stm32f0xx_hal_uart.c ****   */
 775:Drivers/STM32F0xx_HAL_Driver/Src/stm32f0xx_hal_uart.c **** HAL_StatusTypeDef HAL_UART_Receive(UART_HandleTypeDef *huart, uint8_t *pData, uint16_t Size, uint32
 776:Drivers/STM32F0xx_HAL_Driver/Src/stm32f0xx_hal_uart.c **** {
 777:Drivers/STM32F0xx_HAL_Driver/Src/stm32f0xx_hal_uart.c ****   uint16_t* tmp;
 778:Drivers/STM32F0xx_HAL_Driver/Src/stm32f0xx_hal_uart.c ****   uint16_t uhMask;
 779:Drivers/STM32F0xx_HAL_Driver/Src/stm32f0xx_hal_uart.c ****   uint32_t tickstart = 0;
 780:Drivers/STM32F0xx_HAL_Driver/Src/stm32f0xx_hal_uart.c **** 
 781:Drivers/STM32F0xx_HAL_Driver/Src/stm32f0xx_hal_uart.c ****   /* Check that a Rx process is not already ongoing */
 782:Drivers/STM32F0xx_HAL_Driver/Src/stm32f0xx_hal_uart.c ****   if(huart->RxState == HAL_UART_STATE_READY)
 783:Drivers/STM32F0xx_HAL_Driver/Src/stm32f0xx_hal_uart.c ****   {
 784:Drivers/STM32F0xx_HAL_Driver/Src/stm32f0xx_hal_uart.c ****     if((pData == NULL ) || (Size == 0U))
 785:Drivers/STM32F0xx_HAL_Driver/Src/stm32f0xx_hal_uart.c ****     {
 786:Drivers/STM32F0xx_HAL_Driver/Src/stm32f0xx_hal_uart.c ****       return  HAL_ERROR;
 787:Drivers/STM32F0xx_HAL_Driver/Src/stm32f0xx_hal_uart.c ****     }
 788:Drivers/STM32F0xx_HAL_Driver/Src/stm32f0xx_hal_uart.c **** 
 789:Drivers/STM32F0xx_HAL_Driver/Src/stm32f0xx_hal_uart.c ****     /* In case of 9bits/No Parity transfer, pData buffer provided as input paramter 
 790:Drivers/STM32F0xx_HAL_Driver/Src/stm32f0xx_hal_uart.c ****        should be aligned on a u16 frontier, as data to be received from RDR will be 
 791:Drivers/STM32F0xx_HAL_Driver/Src/stm32f0xx_hal_uart.c ****        handled through a u16 cast. */
 792:Drivers/STM32F0xx_HAL_Driver/Src/stm32f0xx_hal_uart.c ****     if ((huart->Init.WordLength == UART_WORDLENGTH_9B) && (huart->Init.Parity == UART_PARITY_NONE))
 793:Drivers/STM32F0xx_HAL_Driver/Src/stm32f0xx_hal_uart.c ****     {
 794:Drivers/STM32F0xx_HAL_Driver/Src/stm32f0xx_hal_uart.c ****       if((((uint32_t)pData)&1U) != 0U)
 795:Drivers/STM32F0xx_HAL_Driver/Src/stm32f0xx_hal_uart.c ****       {
 796:Drivers/STM32F0xx_HAL_Driver/Src/stm32f0xx_hal_uart.c ****         return  HAL_ERROR;
 797:Drivers/STM32F0xx_HAL_Driver/Src/stm32f0xx_hal_uart.c ****       }
 798:Drivers/STM32F0xx_HAL_Driver/Src/stm32f0xx_hal_uart.c ****     }
 799:Drivers/STM32F0xx_HAL_Driver/Src/stm32f0xx_hal_uart.c **** 
ARM GAS  /tmp/ccDDwqiC.s 			page 20


 800:Drivers/STM32F0xx_HAL_Driver/Src/stm32f0xx_hal_uart.c ****     /* Process Locked */
 801:Drivers/STM32F0xx_HAL_Driver/Src/stm32f0xx_hal_uart.c ****     __HAL_LOCK(huart);
 802:Drivers/STM32F0xx_HAL_Driver/Src/stm32f0xx_hal_uart.c **** 
 803:Drivers/STM32F0xx_HAL_Driver/Src/stm32f0xx_hal_uart.c ****     huart->ErrorCode = HAL_UART_ERROR_NONE;
 804:Drivers/STM32F0xx_HAL_Driver/Src/stm32f0xx_hal_uart.c ****     huart->RxState = HAL_UART_STATE_BUSY_RX;
 805:Drivers/STM32F0xx_HAL_Driver/Src/stm32f0xx_hal_uart.c **** 
 806:Drivers/STM32F0xx_HAL_Driver/Src/stm32f0xx_hal_uart.c ****     /* Init tickstart for timeout managment*/
 807:Drivers/STM32F0xx_HAL_Driver/Src/stm32f0xx_hal_uart.c ****     tickstart = HAL_GetTick();
 808:Drivers/STM32F0xx_HAL_Driver/Src/stm32f0xx_hal_uart.c **** 
 809:Drivers/STM32F0xx_HAL_Driver/Src/stm32f0xx_hal_uart.c ****     huart->RxXferSize = Size;
 810:Drivers/STM32F0xx_HAL_Driver/Src/stm32f0xx_hal_uart.c ****     huart->RxXferCount = Size;
 811:Drivers/STM32F0xx_HAL_Driver/Src/stm32f0xx_hal_uart.c **** 
 812:Drivers/STM32F0xx_HAL_Driver/Src/stm32f0xx_hal_uart.c ****     /* Computation of UART mask to apply to RDR register */
 813:Drivers/STM32F0xx_HAL_Driver/Src/stm32f0xx_hal_uart.c ****     UART_MASK_COMPUTATION(huart);
 814:Drivers/STM32F0xx_HAL_Driver/Src/stm32f0xx_hal_uart.c ****     uhMask = huart->Mask;
 815:Drivers/STM32F0xx_HAL_Driver/Src/stm32f0xx_hal_uart.c **** 
 816:Drivers/STM32F0xx_HAL_Driver/Src/stm32f0xx_hal_uart.c ****     /* as long as data have to be received */
 817:Drivers/STM32F0xx_HAL_Driver/Src/stm32f0xx_hal_uart.c ****     while(huart->RxXferCount > 0U)
 818:Drivers/STM32F0xx_HAL_Driver/Src/stm32f0xx_hal_uart.c ****     {
 819:Drivers/STM32F0xx_HAL_Driver/Src/stm32f0xx_hal_uart.c ****       huart->RxXferCount--;
 820:Drivers/STM32F0xx_HAL_Driver/Src/stm32f0xx_hal_uart.c ****       if(UART_WaitOnFlagUntilTimeout(huart, UART_FLAG_RXNE, RESET, tickstart, Timeout) != HAL_OK)
 821:Drivers/STM32F0xx_HAL_Driver/Src/stm32f0xx_hal_uart.c ****       {
 822:Drivers/STM32F0xx_HAL_Driver/Src/stm32f0xx_hal_uart.c ****         return HAL_TIMEOUT;
 823:Drivers/STM32F0xx_HAL_Driver/Src/stm32f0xx_hal_uart.c ****       }
 824:Drivers/STM32F0xx_HAL_Driver/Src/stm32f0xx_hal_uart.c ****       if ((huart->Init.WordLength == UART_WORDLENGTH_9B) && (huart->Init.Parity == UART_PARITY_NONE
 825:Drivers/STM32F0xx_HAL_Driver/Src/stm32f0xx_hal_uart.c ****       {
 826:Drivers/STM32F0xx_HAL_Driver/Src/stm32f0xx_hal_uart.c ****         tmp = (uint16_t*) pData ;
 827:Drivers/STM32F0xx_HAL_Driver/Src/stm32f0xx_hal_uart.c ****         *tmp = (uint16_t)(huart->Instance->RDR & uhMask);
 828:Drivers/STM32F0xx_HAL_Driver/Src/stm32f0xx_hal_uart.c ****         pData +=2U;
 829:Drivers/STM32F0xx_HAL_Driver/Src/stm32f0xx_hal_uart.c ****       }
 830:Drivers/STM32F0xx_HAL_Driver/Src/stm32f0xx_hal_uart.c ****       else
 831:Drivers/STM32F0xx_HAL_Driver/Src/stm32f0xx_hal_uart.c ****       {
 832:Drivers/STM32F0xx_HAL_Driver/Src/stm32f0xx_hal_uart.c ****         *pData++ = (uint8_t)(huart->Instance->RDR & (uint8_t)uhMask);
 833:Drivers/STM32F0xx_HAL_Driver/Src/stm32f0xx_hal_uart.c ****       }
 834:Drivers/STM32F0xx_HAL_Driver/Src/stm32f0xx_hal_uart.c ****     }
 835:Drivers/STM32F0xx_HAL_Driver/Src/stm32f0xx_hal_uart.c **** 
 836:Drivers/STM32F0xx_HAL_Driver/Src/stm32f0xx_hal_uart.c ****     /* At end of Rx process, restore huart->RxState to Ready */
 837:Drivers/STM32F0xx_HAL_Driver/Src/stm32f0xx_hal_uart.c ****     huart->RxState = HAL_UART_STATE_READY;
 838:Drivers/STM32F0xx_HAL_Driver/Src/stm32f0xx_hal_uart.c **** 
 839:Drivers/STM32F0xx_HAL_Driver/Src/stm32f0xx_hal_uart.c ****     /* Process Unlocked */
 840:Drivers/STM32F0xx_HAL_Driver/Src/stm32f0xx_hal_uart.c ****     __HAL_UNLOCK(huart);
 841:Drivers/STM32F0xx_HAL_Driver/Src/stm32f0xx_hal_uart.c **** 
 842:Drivers/STM32F0xx_HAL_Driver/Src/stm32f0xx_hal_uart.c ****     return HAL_OK;
 843:Drivers/STM32F0xx_HAL_Driver/Src/stm32f0xx_hal_uart.c ****   }
 844:Drivers/STM32F0xx_HAL_Driver/Src/stm32f0xx_hal_uart.c ****   else
 845:Drivers/STM32F0xx_HAL_Driver/Src/stm32f0xx_hal_uart.c ****   {
 846:Drivers/STM32F0xx_HAL_Driver/Src/stm32f0xx_hal_uart.c ****     return HAL_BUSY;
 847:Drivers/STM32F0xx_HAL_Driver/Src/stm32f0xx_hal_uart.c ****   }
 848:Drivers/STM32F0xx_HAL_Driver/Src/stm32f0xx_hal_uart.c **** }
 849:Drivers/STM32F0xx_HAL_Driver/Src/stm32f0xx_hal_uart.c **** 
 850:Drivers/STM32F0xx_HAL_Driver/Src/stm32f0xx_hal_uart.c **** /**
 851:Drivers/STM32F0xx_HAL_Driver/Src/stm32f0xx_hal_uart.c ****   * @brief Send an amount of data in interrupt mode.
 852:Drivers/STM32F0xx_HAL_Driver/Src/stm32f0xx_hal_uart.c ****   * @param huart UART handle.
 853:Drivers/STM32F0xx_HAL_Driver/Src/stm32f0xx_hal_uart.c ****   * @param pData pointer to data buffer.
 854:Drivers/STM32F0xx_HAL_Driver/Src/stm32f0xx_hal_uart.c ****   * @param Size amount of data to be sent.
 855:Drivers/STM32F0xx_HAL_Driver/Src/stm32f0xx_hal_uart.c ****   * @note   When UART parity is not enabled (PCE = 0), and Word Length is configured to 9 bits (M1-
 856:Drivers/STM32F0xx_HAL_Driver/Src/stm32f0xx_hal_uart.c ****   *         address of user data buffer containing data to be sent, should be aligned on a half wor
ARM GAS  /tmp/ccDDwqiC.s 			page 21


 857:Drivers/STM32F0xx_HAL_Driver/Src/stm32f0xx_hal_uart.c ****   *         (as sent data will be handled using u16 pointer cast). Depending on compilation chain,
 858:Drivers/STM32F0xx_HAL_Driver/Src/stm32f0xx_hal_uart.c ****   *         use of specific alignment compilation directives or pragmas might be required to ensure
 859:Drivers/STM32F0xx_HAL_Driver/Src/stm32f0xx_hal_uart.c ****   * @retval HAL status
 860:Drivers/STM32F0xx_HAL_Driver/Src/stm32f0xx_hal_uart.c ****   */
 861:Drivers/STM32F0xx_HAL_Driver/Src/stm32f0xx_hal_uart.c **** HAL_StatusTypeDef HAL_UART_Transmit_IT(UART_HandleTypeDef *huart, uint8_t *pData, uint16_t Size)
 862:Drivers/STM32F0xx_HAL_Driver/Src/stm32f0xx_hal_uart.c **** {
 863:Drivers/STM32F0xx_HAL_Driver/Src/stm32f0xx_hal_uart.c ****   /* Check that a Tx process is not already ongoing */
 864:Drivers/STM32F0xx_HAL_Driver/Src/stm32f0xx_hal_uart.c ****   if(huart->gState == HAL_UART_STATE_READY)
 865:Drivers/STM32F0xx_HAL_Driver/Src/stm32f0xx_hal_uart.c ****   {
 866:Drivers/STM32F0xx_HAL_Driver/Src/stm32f0xx_hal_uart.c ****     if((pData == NULL ) || (Size == 0U))
 867:Drivers/STM32F0xx_HAL_Driver/Src/stm32f0xx_hal_uart.c ****     {
 868:Drivers/STM32F0xx_HAL_Driver/Src/stm32f0xx_hal_uart.c ****       return HAL_ERROR;
 869:Drivers/STM32F0xx_HAL_Driver/Src/stm32f0xx_hal_uart.c ****     }
 870:Drivers/STM32F0xx_HAL_Driver/Src/stm32f0xx_hal_uart.c **** 
 871:Drivers/STM32F0xx_HAL_Driver/Src/stm32f0xx_hal_uart.c ****     /* In case of 9bits/No Parity transfer, pData buffer provided as input paramter 
 872:Drivers/STM32F0xx_HAL_Driver/Src/stm32f0xx_hal_uart.c ****        should be aligned on a u16 frontier, as data to be filled into TDR will be 
 873:Drivers/STM32F0xx_HAL_Driver/Src/stm32f0xx_hal_uart.c ****        handled through a u16 cast. */
 874:Drivers/STM32F0xx_HAL_Driver/Src/stm32f0xx_hal_uart.c ****     if ((huart->Init.WordLength == UART_WORDLENGTH_9B) && (huart->Init.Parity == UART_PARITY_NONE))
 875:Drivers/STM32F0xx_HAL_Driver/Src/stm32f0xx_hal_uart.c ****     {
 876:Drivers/STM32F0xx_HAL_Driver/Src/stm32f0xx_hal_uart.c ****       if((((uint32_t)pData)&1U) != 0U)
 877:Drivers/STM32F0xx_HAL_Driver/Src/stm32f0xx_hal_uart.c ****       {
 878:Drivers/STM32F0xx_HAL_Driver/Src/stm32f0xx_hal_uart.c ****         return  HAL_ERROR;
 879:Drivers/STM32F0xx_HAL_Driver/Src/stm32f0xx_hal_uart.c ****       }
 880:Drivers/STM32F0xx_HAL_Driver/Src/stm32f0xx_hal_uart.c ****     }
 881:Drivers/STM32F0xx_HAL_Driver/Src/stm32f0xx_hal_uart.c **** 
 882:Drivers/STM32F0xx_HAL_Driver/Src/stm32f0xx_hal_uart.c ****     /* Process Locked */
 883:Drivers/STM32F0xx_HAL_Driver/Src/stm32f0xx_hal_uart.c ****     __HAL_LOCK(huart);
 884:Drivers/STM32F0xx_HAL_Driver/Src/stm32f0xx_hal_uart.c **** 
 885:Drivers/STM32F0xx_HAL_Driver/Src/stm32f0xx_hal_uart.c ****     huart->pTxBuffPtr = pData;
 886:Drivers/STM32F0xx_HAL_Driver/Src/stm32f0xx_hal_uart.c ****     huart->TxXferSize = Size;
 887:Drivers/STM32F0xx_HAL_Driver/Src/stm32f0xx_hal_uart.c ****     huart->TxXferCount = Size;
 888:Drivers/STM32F0xx_HAL_Driver/Src/stm32f0xx_hal_uart.c **** 
 889:Drivers/STM32F0xx_HAL_Driver/Src/stm32f0xx_hal_uart.c ****     huart->ErrorCode = HAL_UART_ERROR_NONE;
 890:Drivers/STM32F0xx_HAL_Driver/Src/stm32f0xx_hal_uart.c ****     huart->gState = HAL_UART_STATE_BUSY_TX;
 891:Drivers/STM32F0xx_HAL_Driver/Src/stm32f0xx_hal_uart.c **** 
 892:Drivers/STM32F0xx_HAL_Driver/Src/stm32f0xx_hal_uart.c ****     /* Process Unlocked */
 893:Drivers/STM32F0xx_HAL_Driver/Src/stm32f0xx_hal_uart.c ****     __HAL_UNLOCK(huart);
 894:Drivers/STM32F0xx_HAL_Driver/Src/stm32f0xx_hal_uart.c **** 
 895:Drivers/STM32F0xx_HAL_Driver/Src/stm32f0xx_hal_uart.c ****     /* Enable the UART Transmit Data Register Empty Interrupt */
 896:Drivers/STM32F0xx_HAL_Driver/Src/stm32f0xx_hal_uart.c ****     SET_BIT(huart->Instance->CR1, USART_CR1_TXEIE);
 897:Drivers/STM32F0xx_HAL_Driver/Src/stm32f0xx_hal_uart.c **** 
 898:Drivers/STM32F0xx_HAL_Driver/Src/stm32f0xx_hal_uart.c ****     return HAL_OK;
 899:Drivers/STM32F0xx_HAL_Driver/Src/stm32f0xx_hal_uart.c ****   }
 900:Drivers/STM32F0xx_HAL_Driver/Src/stm32f0xx_hal_uart.c ****   else
 901:Drivers/STM32F0xx_HAL_Driver/Src/stm32f0xx_hal_uart.c ****   {
 902:Drivers/STM32F0xx_HAL_Driver/Src/stm32f0xx_hal_uart.c ****     return HAL_BUSY;
 903:Drivers/STM32F0xx_HAL_Driver/Src/stm32f0xx_hal_uart.c ****   }
 904:Drivers/STM32F0xx_HAL_Driver/Src/stm32f0xx_hal_uart.c **** }
 905:Drivers/STM32F0xx_HAL_Driver/Src/stm32f0xx_hal_uart.c **** 
 906:Drivers/STM32F0xx_HAL_Driver/Src/stm32f0xx_hal_uart.c **** /**
 907:Drivers/STM32F0xx_HAL_Driver/Src/stm32f0xx_hal_uart.c ****   * @brief Receive an amount of data in interrupt mode.
 908:Drivers/STM32F0xx_HAL_Driver/Src/stm32f0xx_hal_uart.c ****   * @param huart UART handle.
 909:Drivers/STM32F0xx_HAL_Driver/Src/stm32f0xx_hal_uart.c ****   * @param pData pointer to data buffer.
 910:Drivers/STM32F0xx_HAL_Driver/Src/stm32f0xx_hal_uart.c ****   * @param Size amount of data to be received.
 911:Drivers/STM32F0xx_HAL_Driver/Src/stm32f0xx_hal_uart.c ****   * @note   When UART parity is not enabled (PCE = 0), and Word Length is configured to 9 bits (M1-
 912:Drivers/STM32F0xx_HAL_Driver/Src/stm32f0xx_hal_uart.c ****   *         address of user data buffer for storing data to be received, should be aligned on a hal
 913:Drivers/STM32F0xx_HAL_Driver/Src/stm32f0xx_hal_uart.c ****   *         (as received data will be handled using u16 pointer cast). Depending on compilation cha
ARM GAS  /tmp/ccDDwqiC.s 			page 22


 914:Drivers/STM32F0xx_HAL_Driver/Src/stm32f0xx_hal_uart.c ****   *         use of specific alignment compilation directives or pragmas might be required to ensure
 915:Drivers/STM32F0xx_HAL_Driver/Src/stm32f0xx_hal_uart.c ****   * @retval HAL status
 916:Drivers/STM32F0xx_HAL_Driver/Src/stm32f0xx_hal_uart.c ****   */
 917:Drivers/STM32F0xx_HAL_Driver/Src/stm32f0xx_hal_uart.c **** HAL_StatusTypeDef HAL_UART_Receive_IT(UART_HandleTypeDef *huart, uint8_t *pData, uint16_t Size)
 918:Drivers/STM32F0xx_HAL_Driver/Src/stm32f0xx_hal_uart.c **** {
 919:Drivers/STM32F0xx_HAL_Driver/Src/stm32f0xx_hal_uart.c ****   /* Check that a Rx process is not already ongoing */
 920:Drivers/STM32F0xx_HAL_Driver/Src/stm32f0xx_hal_uart.c ****   if(huart->RxState == HAL_UART_STATE_READY)
 921:Drivers/STM32F0xx_HAL_Driver/Src/stm32f0xx_hal_uart.c ****   {
 922:Drivers/STM32F0xx_HAL_Driver/Src/stm32f0xx_hal_uart.c ****     if((pData == NULL ) || (Size == 0U))
 923:Drivers/STM32F0xx_HAL_Driver/Src/stm32f0xx_hal_uart.c ****     {
 924:Drivers/STM32F0xx_HAL_Driver/Src/stm32f0xx_hal_uart.c ****       return HAL_ERROR;
 925:Drivers/STM32F0xx_HAL_Driver/Src/stm32f0xx_hal_uart.c ****     }
 926:Drivers/STM32F0xx_HAL_Driver/Src/stm32f0xx_hal_uart.c **** 
 927:Drivers/STM32F0xx_HAL_Driver/Src/stm32f0xx_hal_uart.c ****     /* In case of 9bits/No Parity transfer, pData buffer provided as input paramter 
 928:Drivers/STM32F0xx_HAL_Driver/Src/stm32f0xx_hal_uart.c ****        should be aligned on a u16 frontier, as data to be received from RDR will be 
 929:Drivers/STM32F0xx_HAL_Driver/Src/stm32f0xx_hal_uart.c ****        handled through a u16 cast. */
 930:Drivers/STM32F0xx_HAL_Driver/Src/stm32f0xx_hal_uart.c ****     if ((huart->Init.WordLength == UART_WORDLENGTH_9B) && (huart->Init.Parity == UART_PARITY_NONE))
 931:Drivers/STM32F0xx_HAL_Driver/Src/stm32f0xx_hal_uart.c ****     {
 932:Drivers/STM32F0xx_HAL_Driver/Src/stm32f0xx_hal_uart.c ****       if((((uint32_t)pData)&1U) != 0U)
 933:Drivers/STM32F0xx_HAL_Driver/Src/stm32f0xx_hal_uart.c ****       {
 934:Drivers/STM32F0xx_HAL_Driver/Src/stm32f0xx_hal_uart.c ****         return  HAL_ERROR;
 935:Drivers/STM32F0xx_HAL_Driver/Src/stm32f0xx_hal_uart.c ****       }
 936:Drivers/STM32F0xx_HAL_Driver/Src/stm32f0xx_hal_uart.c ****     }
 937:Drivers/STM32F0xx_HAL_Driver/Src/stm32f0xx_hal_uart.c **** 
 938:Drivers/STM32F0xx_HAL_Driver/Src/stm32f0xx_hal_uart.c ****     /* Process Locked */
 939:Drivers/STM32F0xx_HAL_Driver/Src/stm32f0xx_hal_uart.c ****     __HAL_LOCK(huart);
 940:Drivers/STM32F0xx_HAL_Driver/Src/stm32f0xx_hal_uart.c **** 
 941:Drivers/STM32F0xx_HAL_Driver/Src/stm32f0xx_hal_uart.c ****     huart->pRxBuffPtr = pData;
 942:Drivers/STM32F0xx_HAL_Driver/Src/stm32f0xx_hal_uart.c ****     huart->RxXferSize = Size;
 943:Drivers/STM32F0xx_HAL_Driver/Src/stm32f0xx_hal_uart.c ****     huart->RxXferCount = Size;
 944:Drivers/STM32F0xx_HAL_Driver/Src/stm32f0xx_hal_uart.c **** 
 945:Drivers/STM32F0xx_HAL_Driver/Src/stm32f0xx_hal_uart.c ****     /* Computation of UART mask to apply to RDR register */
 946:Drivers/STM32F0xx_HAL_Driver/Src/stm32f0xx_hal_uart.c ****     UART_MASK_COMPUTATION(huart);
 947:Drivers/STM32F0xx_HAL_Driver/Src/stm32f0xx_hal_uart.c **** 
 948:Drivers/STM32F0xx_HAL_Driver/Src/stm32f0xx_hal_uart.c ****     huart->ErrorCode = HAL_UART_ERROR_NONE;
 949:Drivers/STM32F0xx_HAL_Driver/Src/stm32f0xx_hal_uart.c ****     huart->RxState = HAL_UART_STATE_BUSY_RX;
 950:Drivers/STM32F0xx_HAL_Driver/Src/stm32f0xx_hal_uart.c **** 
 951:Drivers/STM32F0xx_HAL_Driver/Src/stm32f0xx_hal_uart.c ****     /* Process Unlocked */
 952:Drivers/STM32F0xx_HAL_Driver/Src/stm32f0xx_hal_uart.c ****     __HAL_UNLOCK(huart);
 953:Drivers/STM32F0xx_HAL_Driver/Src/stm32f0xx_hal_uart.c **** 
 954:Drivers/STM32F0xx_HAL_Driver/Src/stm32f0xx_hal_uart.c ****     /* Enable the UART Error Interrupt: (Frame error, noise error, overrun error) */
 955:Drivers/STM32F0xx_HAL_Driver/Src/stm32f0xx_hal_uart.c ****     SET_BIT(huart->Instance->CR3, USART_CR3_EIE);
 956:Drivers/STM32F0xx_HAL_Driver/Src/stm32f0xx_hal_uart.c **** 
 957:Drivers/STM32F0xx_HAL_Driver/Src/stm32f0xx_hal_uart.c ****     /* Enable the UART Parity Error and Data Register not empty Interrupts */
 958:Drivers/STM32F0xx_HAL_Driver/Src/stm32f0xx_hal_uart.c ****     SET_BIT(huart->Instance->CR1, USART_CR1_PEIE | USART_CR1_RXNEIE);
 959:Drivers/STM32F0xx_HAL_Driver/Src/stm32f0xx_hal_uart.c **** 
 960:Drivers/STM32F0xx_HAL_Driver/Src/stm32f0xx_hal_uart.c ****     return HAL_OK;
 961:Drivers/STM32F0xx_HAL_Driver/Src/stm32f0xx_hal_uart.c ****   }
 962:Drivers/STM32F0xx_HAL_Driver/Src/stm32f0xx_hal_uart.c ****   else
 963:Drivers/STM32F0xx_HAL_Driver/Src/stm32f0xx_hal_uart.c ****   {
 964:Drivers/STM32F0xx_HAL_Driver/Src/stm32f0xx_hal_uart.c ****     return HAL_BUSY;
 965:Drivers/STM32F0xx_HAL_Driver/Src/stm32f0xx_hal_uart.c ****   }
 966:Drivers/STM32F0xx_HAL_Driver/Src/stm32f0xx_hal_uart.c **** }
 967:Drivers/STM32F0xx_HAL_Driver/Src/stm32f0xx_hal_uart.c **** 
 968:Drivers/STM32F0xx_HAL_Driver/Src/stm32f0xx_hal_uart.c **** /**
 969:Drivers/STM32F0xx_HAL_Driver/Src/stm32f0xx_hal_uart.c ****   * @brief Send an amount of data in DMA mode.
 970:Drivers/STM32F0xx_HAL_Driver/Src/stm32f0xx_hal_uart.c ****   * @param huart UART handle.
ARM GAS  /tmp/ccDDwqiC.s 			page 23


 971:Drivers/STM32F0xx_HAL_Driver/Src/stm32f0xx_hal_uart.c ****   * @param pData pointer to data buffer.
 972:Drivers/STM32F0xx_HAL_Driver/Src/stm32f0xx_hal_uart.c ****   * @param Size amount of data to be sent.
 973:Drivers/STM32F0xx_HAL_Driver/Src/stm32f0xx_hal_uart.c ****   * @note   When UART parity is not enabled (PCE = 0), and Word Length is configured to 9 bits (M1-
 974:Drivers/STM32F0xx_HAL_Driver/Src/stm32f0xx_hal_uart.c ****   *         address of user data buffer containing data to be sent, should be aligned on a half wor
 975:Drivers/STM32F0xx_HAL_Driver/Src/stm32f0xx_hal_uart.c ****   *         (as sent data will be handled by DMA from halfword frontier). Depending on compilation 
 976:Drivers/STM32F0xx_HAL_Driver/Src/stm32f0xx_hal_uart.c ****   *         use of specific alignment compilation directives or pragmas might be required to ensure
 977:Drivers/STM32F0xx_HAL_Driver/Src/stm32f0xx_hal_uart.c ****   * @retval HAL status
 978:Drivers/STM32F0xx_HAL_Driver/Src/stm32f0xx_hal_uart.c ****   */
 979:Drivers/STM32F0xx_HAL_Driver/Src/stm32f0xx_hal_uart.c **** HAL_StatusTypeDef HAL_UART_Transmit_DMA(UART_HandleTypeDef *huart, uint8_t *pData, uint16_t Size)
 980:Drivers/STM32F0xx_HAL_Driver/Src/stm32f0xx_hal_uart.c **** {
 981:Drivers/STM32F0xx_HAL_Driver/Src/stm32f0xx_hal_uart.c ****   /* Check that a Tx process is not already ongoing */
 982:Drivers/STM32F0xx_HAL_Driver/Src/stm32f0xx_hal_uart.c ****   if(huart->gState == HAL_UART_STATE_READY)
 983:Drivers/STM32F0xx_HAL_Driver/Src/stm32f0xx_hal_uart.c ****   {
 984:Drivers/STM32F0xx_HAL_Driver/Src/stm32f0xx_hal_uart.c ****     if((pData == NULL ) || (Size == 0U))
 985:Drivers/STM32F0xx_HAL_Driver/Src/stm32f0xx_hal_uart.c ****     {
 986:Drivers/STM32F0xx_HAL_Driver/Src/stm32f0xx_hal_uart.c ****       return HAL_ERROR;
 987:Drivers/STM32F0xx_HAL_Driver/Src/stm32f0xx_hal_uart.c ****     }
 988:Drivers/STM32F0xx_HAL_Driver/Src/stm32f0xx_hal_uart.c **** 
 989:Drivers/STM32F0xx_HAL_Driver/Src/stm32f0xx_hal_uart.c ****     /* In case of 9bits/No Parity transfer, pData buffer provided as input paramter 
 990:Drivers/STM32F0xx_HAL_Driver/Src/stm32f0xx_hal_uart.c ****        should be aligned on a u16 frontier, as data copy into TDR will be 
 991:Drivers/STM32F0xx_HAL_Driver/Src/stm32f0xx_hal_uart.c ****        handled by DMA from a u16 frontier. */
 992:Drivers/STM32F0xx_HAL_Driver/Src/stm32f0xx_hal_uart.c ****     if ((huart->Init.WordLength == UART_WORDLENGTH_9B) && (huart->Init.Parity == UART_PARITY_NONE))
 993:Drivers/STM32F0xx_HAL_Driver/Src/stm32f0xx_hal_uart.c ****     {
 994:Drivers/STM32F0xx_HAL_Driver/Src/stm32f0xx_hal_uart.c ****       if((((uint32_t)pData)&1U) != 0U)
 995:Drivers/STM32F0xx_HAL_Driver/Src/stm32f0xx_hal_uart.c ****       {
 996:Drivers/STM32F0xx_HAL_Driver/Src/stm32f0xx_hal_uart.c ****         return  HAL_ERROR;
 997:Drivers/STM32F0xx_HAL_Driver/Src/stm32f0xx_hal_uart.c ****       }
 998:Drivers/STM32F0xx_HAL_Driver/Src/stm32f0xx_hal_uart.c ****     }
 999:Drivers/STM32F0xx_HAL_Driver/Src/stm32f0xx_hal_uart.c **** 
1000:Drivers/STM32F0xx_HAL_Driver/Src/stm32f0xx_hal_uart.c ****     /* Process Locked */
1001:Drivers/STM32F0xx_HAL_Driver/Src/stm32f0xx_hal_uart.c ****     __HAL_LOCK(huart);
1002:Drivers/STM32F0xx_HAL_Driver/Src/stm32f0xx_hal_uart.c **** 
1003:Drivers/STM32F0xx_HAL_Driver/Src/stm32f0xx_hal_uart.c ****     huart->pTxBuffPtr = pData;
1004:Drivers/STM32F0xx_HAL_Driver/Src/stm32f0xx_hal_uart.c ****     huart->TxXferSize = Size;
1005:Drivers/STM32F0xx_HAL_Driver/Src/stm32f0xx_hal_uart.c ****     huart->TxXferCount = Size;
1006:Drivers/STM32F0xx_HAL_Driver/Src/stm32f0xx_hal_uart.c **** 
1007:Drivers/STM32F0xx_HAL_Driver/Src/stm32f0xx_hal_uart.c ****     huart->ErrorCode = HAL_UART_ERROR_NONE;
1008:Drivers/STM32F0xx_HAL_Driver/Src/stm32f0xx_hal_uart.c ****     huart->gState = HAL_UART_STATE_BUSY_TX;
1009:Drivers/STM32F0xx_HAL_Driver/Src/stm32f0xx_hal_uart.c **** 
1010:Drivers/STM32F0xx_HAL_Driver/Src/stm32f0xx_hal_uart.c ****     /* Set the UART DMA transfer complete callback */
1011:Drivers/STM32F0xx_HAL_Driver/Src/stm32f0xx_hal_uart.c ****     huart->hdmatx->XferCpltCallback = UART_DMATransmitCplt;
1012:Drivers/STM32F0xx_HAL_Driver/Src/stm32f0xx_hal_uart.c **** 
1013:Drivers/STM32F0xx_HAL_Driver/Src/stm32f0xx_hal_uart.c ****     /* Set the UART DMA Half transfer complete callback */
1014:Drivers/STM32F0xx_HAL_Driver/Src/stm32f0xx_hal_uart.c ****     huart->hdmatx->XferHalfCpltCallback = UART_DMATxHalfCplt;
1015:Drivers/STM32F0xx_HAL_Driver/Src/stm32f0xx_hal_uart.c **** 
1016:Drivers/STM32F0xx_HAL_Driver/Src/stm32f0xx_hal_uart.c ****     /* Set the DMA error callback */
1017:Drivers/STM32F0xx_HAL_Driver/Src/stm32f0xx_hal_uart.c ****     huart->hdmatx->XferErrorCallback = UART_DMAError;
1018:Drivers/STM32F0xx_HAL_Driver/Src/stm32f0xx_hal_uart.c **** 
1019:Drivers/STM32F0xx_HAL_Driver/Src/stm32f0xx_hal_uart.c ****     /* Set the DMA abort callback */
1020:Drivers/STM32F0xx_HAL_Driver/Src/stm32f0xx_hal_uart.c ****     huart->hdmatx->XferAbortCallback = NULL;
1021:Drivers/STM32F0xx_HAL_Driver/Src/stm32f0xx_hal_uart.c **** 
1022:Drivers/STM32F0xx_HAL_Driver/Src/stm32f0xx_hal_uart.c ****     /* Enable the UART transmit DMA channel */
1023:Drivers/STM32F0xx_HAL_Driver/Src/stm32f0xx_hal_uart.c ****     HAL_DMA_Start_IT(huart->hdmatx, (uint32_t)huart->pTxBuffPtr, (uint32_t)&huart->Instance->TDR, S
1024:Drivers/STM32F0xx_HAL_Driver/Src/stm32f0xx_hal_uart.c **** 
1025:Drivers/STM32F0xx_HAL_Driver/Src/stm32f0xx_hal_uart.c ****     /* Clear the TC flag in the ICR register */
1026:Drivers/STM32F0xx_HAL_Driver/Src/stm32f0xx_hal_uart.c ****     __HAL_UART_CLEAR_FLAG(huart, UART_CLEAR_TCF);
1027:Drivers/STM32F0xx_HAL_Driver/Src/stm32f0xx_hal_uart.c **** 
ARM GAS  /tmp/ccDDwqiC.s 			page 24


1028:Drivers/STM32F0xx_HAL_Driver/Src/stm32f0xx_hal_uart.c ****     /* Process Unlocked */
1029:Drivers/STM32F0xx_HAL_Driver/Src/stm32f0xx_hal_uart.c ****     __HAL_UNLOCK(huart);
1030:Drivers/STM32F0xx_HAL_Driver/Src/stm32f0xx_hal_uart.c **** 
1031:Drivers/STM32F0xx_HAL_Driver/Src/stm32f0xx_hal_uart.c ****     /* Enable the DMA transfer for transmit request by setting the DMAT bit
1032:Drivers/STM32F0xx_HAL_Driver/Src/stm32f0xx_hal_uart.c ****        in the UART CR3 register */
1033:Drivers/STM32F0xx_HAL_Driver/Src/stm32f0xx_hal_uart.c ****     SET_BIT(huart->Instance->CR3, USART_CR3_DMAT);
1034:Drivers/STM32F0xx_HAL_Driver/Src/stm32f0xx_hal_uart.c **** 
1035:Drivers/STM32F0xx_HAL_Driver/Src/stm32f0xx_hal_uart.c ****     return HAL_OK;
1036:Drivers/STM32F0xx_HAL_Driver/Src/stm32f0xx_hal_uart.c ****   }
1037:Drivers/STM32F0xx_HAL_Driver/Src/stm32f0xx_hal_uart.c ****   else
1038:Drivers/STM32F0xx_HAL_Driver/Src/stm32f0xx_hal_uart.c ****   {
1039:Drivers/STM32F0xx_HAL_Driver/Src/stm32f0xx_hal_uart.c ****     return HAL_BUSY;
1040:Drivers/STM32F0xx_HAL_Driver/Src/stm32f0xx_hal_uart.c ****   }
1041:Drivers/STM32F0xx_HAL_Driver/Src/stm32f0xx_hal_uart.c **** }
1042:Drivers/STM32F0xx_HAL_Driver/Src/stm32f0xx_hal_uart.c **** 
1043:Drivers/STM32F0xx_HAL_Driver/Src/stm32f0xx_hal_uart.c **** /**
1044:Drivers/STM32F0xx_HAL_Driver/Src/stm32f0xx_hal_uart.c ****   * @brief Receive an amount of data in DMA mode.
1045:Drivers/STM32F0xx_HAL_Driver/Src/stm32f0xx_hal_uart.c ****   * @param huart UART handle.
1046:Drivers/STM32F0xx_HAL_Driver/Src/stm32f0xx_hal_uart.c ****   * @param pData pointer to data buffer.
1047:Drivers/STM32F0xx_HAL_Driver/Src/stm32f0xx_hal_uart.c ****   * @param Size amount of data to be received.
1048:Drivers/STM32F0xx_HAL_Driver/Src/stm32f0xx_hal_uart.c ****   * @note   When UART parity is not enabled (PCE = 0), and Word Length is configured to 9 bits (M1-
1049:Drivers/STM32F0xx_HAL_Driver/Src/stm32f0xx_hal_uart.c ****   *         address of user data buffer for storing data to be received, should be aligned on a hal
1050:Drivers/STM32F0xx_HAL_Driver/Src/stm32f0xx_hal_uart.c ****   *         (as received data will be handled by DMA from halfword frontier). Depending on compilat
1051:Drivers/STM32F0xx_HAL_Driver/Src/stm32f0xx_hal_uart.c ****   *         use of specific alignment compilation directives or pragmas might be required to ensure
1052:Drivers/STM32F0xx_HAL_Driver/Src/stm32f0xx_hal_uart.c ****   * @retval HAL status
1053:Drivers/STM32F0xx_HAL_Driver/Src/stm32f0xx_hal_uart.c ****   */
1054:Drivers/STM32F0xx_HAL_Driver/Src/stm32f0xx_hal_uart.c **** HAL_StatusTypeDef HAL_UART_Receive_DMA(UART_HandleTypeDef *huart, uint8_t *pData, uint16_t Size)
1055:Drivers/STM32F0xx_HAL_Driver/Src/stm32f0xx_hal_uart.c **** {
1056:Drivers/STM32F0xx_HAL_Driver/Src/stm32f0xx_hal_uart.c ****   /* Check that a Rx process is not already ongoing */
1057:Drivers/STM32F0xx_HAL_Driver/Src/stm32f0xx_hal_uart.c ****   if(huart->RxState == HAL_UART_STATE_READY)
1058:Drivers/STM32F0xx_HAL_Driver/Src/stm32f0xx_hal_uart.c ****   {
1059:Drivers/STM32F0xx_HAL_Driver/Src/stm32f0xx_hal_uart.c ****     if((pData == NULL ) || (Size == 0U))
1060:Drivers/STM32F0xx_HAL_Driver/Src/stm32f0xx_hal_uart.c ****     {
1061:Drivers/STM32F0xx_HAL_Driver/Src/stm32f0xx_hal_uart.c ****       return HAL_ERROR;
1062:Drivers/STM32F0xx_HAL_Driver/Src/stm32f0xx_hal_uart.c ****     }
1063:Drivers/STM32F0xx_HAL_Driver/Src/stm32f0xx_hal_uart.c **** 
1064:Drivers/STM32F0xx_HAL_Driver/Src/stm32f0xx_hal_uart.c ****     /* In case of 9bits/No Parity transfer, pData buffer provided as input paramter 
1065:Drivers/STM32F0xx_HAL_Driver/Src/stm32f0xx_hal_uart.c ****        should be aligned on a u16 frontier, as data copy from RDR will be 
1066:Drivers/STM32F0xx_HAL_Driver/Src/stm32f0xx_hal_uart.c ****        handled by DMA from a u16 frontier. */
1067:Drivers/STM32F0xx_HAL_Driver/Src/stm32f0xx_hal_uart.c ****     if ((huart->Init.WordLength == UART_WORDLENGTH_9B) && (huart->Init.Parity == UART_PARITY_NONE))
1068:Drivers/STM32F0xx_HAL_Driver/Src/stm32f0xx_hal_uart.c ****     {
1069:Drivers/STM32F0xx_HAL_Driver/Src/stm32f0xx_hal_uart.c ****       if((((uint32_t)pData)&1U) != 0U)
1070:Drivers/STM32F0xx_HAL_Driver/Src/stm32f0xx_hal_uart.c ****       {
1071:Drivers/STM32F0xx_HAL_Driver/Src/stm32f0xx_hal_uart.c ****         return  HAL_ERROR;
1072:Drivers/STM32F0xx_HAL_Driver/Src/stm32f0xx_hal_uart.c ****       }
1073:Drivers/STM32F0xx_HAL_Driver/Src/stm32f0xx_hal_uart.c ****     }
1074:Drivers/STM32F0xx_HAL_Driver/Src/stm32f0xx_hal_uart.c **** 
1075:Drivers/STM32F0xx_HAL_Driver/Src/stm32f0xx_hal_uart.c ****     /* Process Locked */
1076:Drivers/STM32F0xx_HAL_Driver/Src/stm32f0xx_hal_uart.c ****     __HAL_LOCK(huart);
1077:Drivers/STM32F0xx_HAL_Driver/Src/stm32f0xx_hal_uart.c **** 
1078:Drivers/STM32F0xx_HAL_Driver/Src/stm32f0xx_hal_uart.c ****     huart->pRxBuffPtr = pData;
1079:Drivers/STM32F0xx_HAL_Driver/Src/stm32f0xx_hal_uart.c ****     huart->RxXferSize = Size;
1080:Drivers/STM32F0xx_HAL_Driver/Src/stm32f0xx_hal_uart.c **** 
1081:Drivers/STM32F0xx_HAL_Driver/Src/stm32f0xx_hal_uart.c ****     huart->ErrorCode = HAL_UART_ERROR_NONE;
1082:Drivers/STM32F0xx_HAL_Driver/Src/stm32f0xx_hal_uart.c ****     huart->RxState = HAL_UART_STATE_BUSY_RX;
1083:Drivers/STM32F0xx_HAL_Driver/Src/stm32f0xx_hal_uart.c **** 
1084:Drivers/STM32F0xx_HAL_Driver/Src/stm32f0xx_hal_uart.c ****     /* Set the UART DMA transfer complete callback */
ARM GAS  /tmp/ccDDwqiC.s 			page 25


1085:Drivers/STM32F0xx_HAL_Driver/Src/stm32f0xx_hal_uart.c ****     huart->hdmarx->XferCpltCallback = UART_DMAReceiveCplt;
1086:Drivers/STM32F0xx_HAL_Driver/Src/stm32f0xx_hal_uart.c **** 
1087:Drivers/STM32F0xx_HAL_Driver/Src/stm32f0xx_hal_uart.c ****     /* Set the UART DMA Half transfer complete callback */
1088:Drivers/STM32F0xx_HAL_Driver/Src/stm32f0xx_hal_uart.c ****     huart->hdmarx->XferHalfCpltCallback = UART_DMARxHalfCplt;
1089:Drivers/STM32F0xx_HAL_Driver/Src/stm32f0xx_hal_uart.c **** 
1090:Drivers/STM32F0xx_HAL_Driver/Src/stm32f0xx_hal_uart.c ****     /* Set the DMA error callback */
1091:Drivers/STM32F0xx_HAL_Driver/Src/stm32f0xx_hal_uart.c ****     huart->hdmarx->XferErrorCallback = UART_DMAError;
1092:Drivers/STM32F0xx_HAL_Driver/Src/stm32f0xx_hal_uart.c **** 
1093:Drivers/STM32F0xx_HAL_Driver/Src/stm32f0xx_hal_uart.c ****     /* Set the DMA abort callback */
1094:Drivers/STM32F0xx_HAL_Driver/Src/stm32f0xx_hal_uart.c ****     huart->hdmarx->XferAbortCallback = NULL;
1095:Drivers/STM32F0xx_HAL_Driver/Src/stm32f0xx_hal_uart.c **** 
1096:Drivers/STM32F0xx_HAL_Driver/Src/stm32f0xx_hal_uart.c ****     /* Enable the DMA channel */
1097:Drivers/STM32F0xx_HAL_Driver/Src/stm32f0xx_hal_uart.c ****     HAL_DMA_Start_IT(huart->hdmarx, (uint32_t)&huart->Instance->RDR, (uint32_t)huart->pRxBuffPtr, S
1098:Drivers/STM32F0xx_HAL_Driver/Src/stm32f0xx_hal_uart.c **** 
1099:Drivers/STM32F0xx_HAL_Driver/Src/stm32f0xx_hal_uart.c ****     /* Process Unlocked */
1100:Drivers/STM32F0xx_HAL_Driver/Src/stm32f0xx_hal_uart.c ****     __HAL_UNLOCK(huart);
1101:Drivers/STM32F0xx_HAL_Driver/Src/stm32f0xx_hal_uart.c **** 
1102:Drivers/STM32F0xx_HAL_Driver/Src/stm32f0xx_hal_uart.c ****     /* Enable the UART Parity Error Interrupt */
1103:Drivers/STM32F0xx_HAL_Driver/Src/stm32f0xx_hal_uart.c ****     SET_BIT(huart->Instance->CR1, USART_CR1_PEIE);
1104:Drivers/STM32F0xx_HAL_Driver/Src/stm32f0xx_hal_uart.c **** 
1105:Drivers/STM32F0xx_HAL_Driver/Src/stm32f0xx_hal_uart.c ****     /* Enable the UART Error Interrupt: (Frame error, noise error, overrun error) */
1106:Drivers/STM32F0xx_HAL_Driver/Src/stm32f0xx_hal_uart.c ****     SET_BIT(huart->Instance->CR3, USART_CR3_EIE);
1107:Drivers/STM32F0xx_HAL_Driver/Src/stm32f0xx_hal_uart.c **** 
1108:Drivers/STM32F0xx_HAL_Driver/Src/stm32f0xx_hal_uart.c ****     /* Enable the DMA transfer for the receiver request by setting the DMAR bit
1109:Drivers/STM32F0xx_HAL_Driver/Src/stm32f0xx_hal_uart.c ****        in the UART CR3 register */
1110:Drivers/STM32F0xx_HAL_Driver/Src/stm32f0xx_hal_uart.c ****     SET_BIT(huart->Instance->CR3, USART_CR3_DMAR);
1111:Drivers/STM32F0xx_HAL_Driver/Src/stm32f0xx_hal_uart.c **** 
1112:Drivers/STM32F0xx_HAL_Driver/Src/stm32f0xx_hal_uart.c ****     return HAL_OK;
1113:Drivers/STM32F0xx_HAL_Driver/Src/stm32f0xx_hal_uart.c ****   }
1114:Drivers/STM32F0xx_HAL_Driver/Src/stm32f0xx_hal_uart.c ****   else
1115:Drivers/STM32F0xx_HAL_Driver/Src/stm32f0xx_hal_uart.c ****   {
1116:Drivers/STM32F0xx_HAL_Driver/Src/stm32f0xx_hal_uart.c ****     return HAL_BUSY;
1117:Drivers/STM32F0xx_HAL_Driver/Src/stm32f0xx_hal_uart.c ****   }
1118:Drivers/STM32F0xx_HAL_Driver/Src/stm32f0xx_hal_uart.c **** }
1119:Drivers/STM32F0xx_HAL_Driver/Src/stm32f0xx_hal_uart.c **** 
1120:Drivers/STM32F0xx_HAL_Driver/Src/stm32f0xx_hal_uart.c **** /**
1121:Drivers/STM32F0xx_HAL_Driver/Src/stm32f0xx_hal_uart.c ****   * @brief Pause the DMA Transfer.
1122:Drivers/STM32F0xx_HAL_Driver/Src/stm32f0xx_hal_uart.c ****   * @param huart UART handle.
1123:Drivers/STM32F0xx_HAL_Driver/Src/stm32f0xx_hal_uart.c ****   * @retval HAL status
1124:Drivers/STM32F0xx_HAL_Driver/Src/stm32f0xx_hal_uart.c ****   */
1125:Drivers/STM32F0xx_HAL_Driver/Src/stm32f0xx_hal_uart.c **** HAL_StatusTypeDef HAL_UART_DMAPause(UART_HandleTypeDef *huart)
1126:Drivers/STM32F0xx_HAL_Driver/Src/stm32f0xx_hal_uart.c **** {
1127:Drivers/STM32F0xx_HAL_Driver/Src/stm32f0xx_hal_uart.c ****   /* Process Locked */
1128:Drivers/STM32F0xx_HAL_Driver/Src/stm32f0xx_hal_uart.c ****   __HAL_LOCK(huart);
1129:Drivers/STM32F0xx_HAL_Driver/Src/stm32f0xx_hal_uart.c **** 
1130:Drivers/STM32F0xx_HAL_Driver/Src/stm32f0xx_hal_uart.c ****   if ((huart->gState == HAL_UART_STATE_BUSY_TX) &&
1131:Drivers/STM32F0xx_HAL_Driver/Src/stm32f0xx_hal_uart.c ****       (HAL_IS_BIT_SET(huart->Instance->CR3, USART_CR3_DMAT)))
1132:Drivers/STM32F0xx_HAL_Driver/Src/stm32f0xx_hal_uart.c ****   {
1133:Drivers/STM32F0xx_HAL_Driver/Src/stm32f0xx_hal_uart.c ****     /* Disable the UART DMA Tx request */
1134:Drivers/STM32F0xx_HAL_Driver/Src/stm32f0xx_hal_uart.c ****     CLEAR_BIT(huart->Instance->CR3, USART_CR3_DMAT);
1135:Drivers/STM32F0xx_HAL_Driver/Src/stm32f0xx_hal_uart.c ****   }
1136:Drivers/STM32F0xx_HAL_Driver/Src/stm32f0xx_hal_uart.c ****   if ((huart->RxState == HAL_UART_STATE_BUSY_RX) &&
1137:Drivers/STM32F0xx_HAL_Driver/Src/stm32f0xx_hal_uart.c ****       (HAL_IS_BIT_SET(huart->Instance->CR3, USART_CR3_DMAR)))
1138:Drivers/STM32F0xx_HAL_Driver/Src/stm32f0xx_hal_uart.c ****   {
1139:Drivers/STM32F0xx_HAL_Driver/Src/stm32f0xx_hal_uart.c ****     /* Disable PE and ERR (Frame error, noise error, overrun error) interrupts */
1140:Drivers/STM32F0xx_HAL_Driver/Src/stm32f0xx_hal_uart.c ****     CLEAR_BIT(huart->Instance->CR1, USART_CR1_PEIE);
1141:Drivers/STM32F0xx_HAL_Driver/Src/stm32f0xx_hal_uart.c ****     CLEAR_BIT(huart->Instance->CR3, USART_CR3_EIE);
ARM GAS  /tmp/ccDDwqiC.s 			page 26


1142:Drivers/STM32F0xx_HAL_Driver/Src/stm32f0xx_hal_uart.c **** 
1143:Drivers/STM32F0xx_HAL_Driver/Src/stm32f0xx_hal_uart.c ****     /* Disable the UART DMA Rx request */
1144:Drivers/STM32F0xx_HAL_Driver/Src/stm32f0xx_hal_uart.c ****     CLEAR_BIT(huart->Instance->CR3, USART_CR3_DMAR);
1145:Drivers/STM32F0xx_HAL_Driver/Src/stm32f0xx_hal_uart.c ****   }
1146:Drivers/STM32F0xx_HAL_Driver/Src/stm32f0xx_hal_uart.c **** 
1147:Drivers/STM32F0xx_HAL_Driver/Src/stm32f0xx_hal_uart.c ****   /* Process Unlocked */
1148:Drivers/STM32F0xx_HAL_Driver/Src/stm32f0xx_hal_uart.c ****   __HAL_UNLOCK(huart);
1149:Drivers/STM32F0xx_HAL_Driver/Src/stm32f0xx_hal_uart.c **** 
1150:Drivers/STM32F0xx_HAL_Driver/Src/stm32f0xx_hal_uart.c ****   return HAL_OK;
1151:Drivers/STM32F0xx_HAL_Driver/Src/stm32f0xx_hal_uart.c **** }
1152:Drivers/STM32F0xx_HAL_Driver/Src/stm32f0xx_hal_uart.c **** 
1153:Drivers/STM32F0xx_HAL_Driver/Src/stm32f0xx_hal_uart.c **** /**
1154:Drivers/STM32F0xx_HAL_Driver/Src/stm32f0xx_hal_uart.c ****   * @brief Resume the DMA Transfer.
1155:Drivers/STM32F0xx_HAL_Driver/Src/stm32f0xx_hal_uart.c ****   * @param huart UART handle.
1156:Drivers/STM32F0xx_HAL_Driver/Src/stm32f0xx_hal_uart.c ****   * @retval HAL status
1157:Drivers/STM32F0xx_HAL_Driver/Src/stm32f0xx_hal_uart.c ****   */
1158:Drivers/STM32F0xx_HAL_Driver/Src/stm32f0xx_hal_uart.c **** HAL_StatusTypeDef HAL_UART_DMAResume(UART_HandleTypeDef *huart)
1159:Drivers/STM32F0xx_HAL_Driver/Src/stm32f0xx_hal_uart.c **** {
1160:Drivers/STM32F0xx_HAL_Driver/Src/stm32f0xx_hal_uart.c ****   /* Process Locked */
1161:Drivers/STM32F0xx_HAL_Driver/Src/stm32f0xx_hal_uart.c ****   __HAL_LOCK(huart);
1162:Drivers/STM32F0xx_HAL_Driver/Src/stm32f0xx_hal_uart.c **** 
1163:Drivers/STM32F0xx_HAL_Driver/Src/stm32f0xx_hal_uart.c ****   if(huart->gState == HAL_UART_STATE_BUSY_TX)
1164:Drivers/STM32F0xx_HAL_Driver/Src/stm32f0xx_hal_uart.c ****   {
1165:Drivers/STM32F0xx_HAL_Driver/Src/stm32f0xx_hal_uart.c ****     /* Enable the UART DMA Tx request */
1166:Drivers/STM32F0xx_HAL_Driver/Src/stm32f0xx_hal_uart.c ****     SET_BIT(huart->Instance->CR3, USART_CR3_DMAT);
1167:Drivers/STM32F0xx_HAL_Driver/Src/stm32f0xx_hal_uart.c ****   }
1168:Drivers/STM32F0xx_HAL_Driver/Src/stm32f0xx_hal_uart.c ****   if(huart->RxState == HAL_UART_STATE_BUSY_RX)
1169:Drivers/STM32F0xx_HAL_Driver/Src/stm32f0xx_hal_uart.c ****   {
1170:Drivers/STM32F0xx_HAL_Driver/Src/stm32f0xx_hal_uart.c ****     /* Clear the Overrun flag before resuming the Rx transfer */
1171:Drivers/STM32F0xx_HAL_Driver/Src/stm32f0xx_hal_uart.c ****     __HAL_UART_CLEAR_FLAG(huart, UART_CLEAR_OREF);
1172:Drivers/STM32F0xx_HAL_Driver/Src/stm32f0xx_hal_uart.c **** 
1173:Drivers/STM32F0xx_HAL_Driver/Src/stm32f0xx_hal_uart.c ****     /* Reenable PE and ERR (Frame error, noise error, overrun error) interrupts */
1174:Drivers/STM32F0xx_HAL_Driver/Src/stm32f0xx_hal_uart.c ****     SET_BIT(huart->Instance->CR1, USART_CR1_PEIE);
1175:Drivers/STM32F0xx_HAL_Driver/Src/stm32f0xx_hal_uart.c ****     SET_BIT(huart->Instance->CR3, USART_CR3_EIE);
1176:Drivers/STM32F0xx_HAL_Driver/Src/stm32f0xx_hal_uart.c **** 
1177:Drivers/STM32F0xx_HAL_Driver/Src/stm32f0xx_hal_uart.c ****     /* Enable the UART DMA Rx request */
1178:Drivers/STM32F0xx_HAL_Driver/Src/stm32f0xx_hal_uart.c ****     SET_BIT(huart->Instance->CR3, USART_CR3_DMAR);
1179:Drivers/STM32F0xx_HAL_Driver/Src/stm32f0xx_hal_uart.c ****   }
1180:Drivers/STM32F0xx_HAL_Driver/Src/stm32f0xx_hal_uart.c **** 
1181:Drivers/STM32F0xx_HAL_Driver/Src/stm32f0xx_hal_uart.c ****   /* Process Unlocked */
1182:Drivers/STM32F0xx_HAL_Driver/Src/stm32f0xx_hal_uart.c ****   __HAL_UNLOCK(huart);
1183:Drivers/STM32F0xx_HAL_Driver/Src/stm32f0xx_hal_uart.c **** 
1184:Drivers/STM32F0xx_HAL_Driver/Src/stm32f0xx_hal_uart.c ****   return HAL_OK;
1185:Drivers/STM32F0xx_HAL_Driver/Src/stm32f0xx_hal_uart.c **** }
1186:Drivers/STM32F0xx_HAL_Driver/Src/stm32f0xx_hal_uart.c **** 
1187:Drivers/STM32F0xx_HAL_Driver/Src/stm32f0xx_hal_uart.c **** /**
1188:Drivers/STM32F0xx_HAL_Driver/Src/stm32f0xx_hal_uart.c ****   * @brief Stop the DMA Transfer.
1189:Drivers/STM32F0xx_HAL_Driver/Src/stm32f0xx_hal_uart.c ****   * @param huart UART handle.
1190:Drivers/STM32F0xx_HAL_Driver/Src/stm32f0xx_hal_uart.c ****   * @retval HAL status
1191:Drivers/STM32F0xx_HAL_Driver/Src/stm32f0xx_hal_uart.c ****   */
1192:Drivers/STM32F0xx_HAL_Driver/Src/stm32f0xx_hal_uart.c **** HAL_StatusTypeDef HAL_UART_DMAStop(UART_HandleTypeDef *huart)
1193:Drivers/STM32F0xx_HAL_Driver/Src/stm32f0xx_hal_uart.c **** {
1194:Drivers/STM32F0xx_HAL_Driver/Src/stm32f0xx_hal_uart.c ****   /* The Lock is not implemented on this API to allow the user application
1195:Drivers/STM32F0xx_HAL_Driver/Src/stm32f0xx_hal_uart.c ****      to call the HAL UART API under callbacks HAL_UART_TxCpltCallback() / HAL_UART_RxCpltCallback()
1196:Drivers/STM32F0xx_HAL_Driver/Src/stm32f0xx_hal_uart.c ****      HAL_UART_TxHalfCpltCallback / HAL_UART_RxHalfCpltCallback: 
1197:Drivers/STM32F0xx_HAL_Driver/Src/stm32f0xx_hal_uart.c ****      indeed, when HAL_DMA_Abort() API is called, the DMA TX/RX Transfer or Half Transfer complete  
1198:Drivers/STM32F0xx_HAL_Driver/Src/stm32f0xx_hal_uart.c ****      interrupt is generated if the DMA transfer interruption occurs at the middle or at the end of 
ARM GAS  /tmp/ccDDwqiC.s 			page 27


1199:Drivers/STM32F0xx_HAL_Driver/Src/stm32f0xx_hal_uart.c ****      the stream and the corresponding call back is executed. */
1200:Drivers/STM32F0xx_HAL_Driver/Src/stm32f0xx_hal_uart.c **** 
1201:Drivers/STM32F0xx_HAL_Driver/Src/stm32f0xx_hal_uart.c ****   /* Stop UART DMA Tx request if ongoing */
1202:Drivers/STM32F0xx_HAL_Driver/Src/stm32f0xx_hal_uart.c ****   if ((huart->gState == HAL_UART_STATE_BUSY_TX) &&
1203:Drivers/STM32F0xx_HAL_Driver/Src/stm32f0xx_hal_uart.c ****       (HAL_IS_BIT_SET(huart->Instance->CR3, USART_CR3_DMAT)))
1204:Drivers/STM32F0xx_HAL_Driver/Src/stm32f0xx_hal_uart.c ****   {
1205:Drivers/STM32F0xx_HAL_Driver/Src/stm32f0xx_hal_uart.c ****     CLEAR_BIT(huart->Instance->CR3, USART_CR3_DMAT);
1206:Drivers/STM32F0xx_HAL_Driver/Src/stm32f0xx_hal_uart.c **** 
1207:Drivers/STM32F0xx_HAL_Driver/Src/stm32f0xx_hal_uart.c ****     /* Abort the UART DMA Tx channel */
1208:Drivers/STM32F0xx_HAL_Driver/Src/stm32f0xx_hal_uart.c ****     if(huart->hdmatx != NULL)
1209:Drivers/STM32F0xx_HAL_Driver/Src/stm32f0xx_hal_uart.c ****     {
1210:Drivers/STM32F0xx_HAL_Driver/Src/stm32f0xx_hal_uart.c ****       HAL_DMA_Abort(huart->hdmatx);
1211:Drivers/STM32F0xx_HAL_Driver/Src/stm32f0xx_hal_uart.c ****     }
1212:Drivers/STM32F0xx_HAL_Driver/Src/stm32f0xx_hal_uart.c **** 
1213:Drivers/STM32F0xx_HAL_Driver/Src/stm32f0xx_hal_uart.c ****     UART_EndTxTransfer(huart);
1214:Drivers/STM32F0xx_HAL_Driver/Src/stm32f0xx_hal_uart.c ****   }
1215:Drivers/STM32F0xx_HAL_Driver/Src/stm32f0xx_hal_uart.c **** 
1216:Drivers/STM32F0xx_HAL_Driver/Src/stm32f0xx_hal_uart.c ****   /* Stop UART DMA Rx request if ongoing */
1217:Drivers/STM32F0xx_HAL_Driver/Src/stm32f0xx_hal_uart.c ****   if ((huart->RxState == HAL_UART_STATE_BUSY_RX) &&
1218:Drivers/STM32F0xx_HAL_Driver/Src/stm32f0xx_hal_uart.c ****       (HAL_IS_BIT_SET(huart->Instance->CR3, USART_CR3_DMAR)))
1219:Drivers/STM32F0xx_HAL_Driver/Src/stm32f0xx_hal_uart.c ****   {
1220:Drivers/STM32F0xx_HAL_Driver/Src/stm32f0xx_hal_uart.c ****     CLEAR_BIT(huart->Instance->CR3, USART_CR3_DMAR);
1221:Drivers/STM32F0xx_HAL_Driver/Src/stm32f0xx_hal_uart.c **** 
1222:Drivers/STM32F0xx_HAL_Driver/Src/stm32f0xx_hal_uart.c ****     /* Abort the UART DMA Rx channel */
1223:Drivers/STM32F0xx_HAL_Driver/Src/stm32f0xx_hal_uart.c ****     if(huart->hdmarx != NULL)
1224:Drivers/STM32F0xx_HAL_Driver/Src/stm32f0xx_hal_uart.c ****     {
1225:Drivers/STM32F0xx_HAL_Driver/Src/stm32f0xx_hal_uart.c ****       HAL_DMA_Abort(huart->hdmarx);
1226:Drivers/STM32F0xx_HAL_Driver/Src/stm32f0xx_hal_uart.c ****     }
1227:Drivers/STM32F0xx_HAL_Driver/Src/stm32f0xx_hal_uart.c **** 
1228:Drivers/STM32F0xx_HAL_Driver/Src/stm32f0xx_hal_uart.c ****     UART_EndRxTransfer(huart);
1229:Drivers/STM32F0xx_HAL_Driver/Src/stm32f0xx_hal_uart.c ****   }
1230:Drivers/STM32F0xx_HAL_Driver/Src/stm32f0xx_hal_uart.c **** 
1231:Drivers/STM32F0xx_HAL_Driver/Src/stm32f0xx_hal_uart.c ****   return HAL_OK;
1232:Drivers/STM32F0xx_HAL_Driver/Src/stm32f0xx_hal_uart.c **** }
1233:Drivers/STM32F0xx_HAL_Driver/Src/stm32f0xx_hal_uart.c **** 
1234:Drivers/STM32F0xx_HAL_Driver/Src/stm32f0xx_hal_uart.c **** /**
1235:Drivers/STM32F0xx_HAL_Driver/Src/stm32f0xx_hal_uart.c ****   * @brief  Abort ongoing transfers (blocking mode).
1236:Drivers/STM32F0xx_HAL_Driver/Src/stm32f0xx_hal_uart.c ****   * @param  huart UART handle.
1237:Drivers/STM32F0xx_HAL_Driver/Src/stm32f0xx_hal_uart.c ****   * @note   This procedure could be used for aborting any ongoing transfer started in Interrupt or 
1238:Drivers/STM32F0xx_HAL_Driver/Src/stm32f0xx_hal_uart.c ****   *         This procedure performs following operations :
1239:Drivers/STM32F0xx_HAL_Driver/Src/stm32f0xx_hal_uart.c ****   *           - Disable UART Interrupts (Tx and Rx)
1240:Drivers/STM32F0xx_HAL_Driver/Src/stm32f0xx_hal_uart.c ****   *           - Disable the DMA transfer in the peripheral register (if enabled)
1241:Drivers/STM32F0xx_HAL_Driver/Src/stm32f0xx_hal_uart.c ****   *           - Abort DMA transfer by calling HAL_DMA_Abort (in case of transfer in DMA mode)
1242:Drivers/STM32F0xx_HAL_Driver/Src/stm32f0xx_hal_uart.c ****   *           - Set handle State to READY
1243:Drivers/STM32F0xx_HAL_Driver/Src/stm32f0xx_hal_uart.c ****   * @note   This procedure is executed in blocking mode : when exiting function, Abort is considere
1244:Drivers/STM32F0xx_HAL_Driver/Src/stm32f0xx_hal_uart.c ****   * @retval HAL status
1245:Drivers/STM32F0xx_HAL_Driver/Src/stm32f0xx_hal_uart.c **** */
1246:Drivers/STM32F0xx_HAL_Driver/Src/stm32f0xx_hal_uart.c **** HAL_StatusTypeDef HAL_UART_Abort(UART_HandleTypeDef *huart)
1247:Drivers/STM32F0xx_HAL_Driver/Src/stm32f0xx_hal_uart.c **** {
1248:Drivers/STM32F0xx_HAL_Driver/Src/stm32f0xx_hal_uart.c ****   /* Disable TXEIE, TCIE, RXNE, PE and ERR (Frame error, noise error, overrun error) interrupts */
1249:Drivers/STM32F0xx_HAL_Driver/Src/stm32f0xx_hal_uart.c ****   CLEAR_BIT(huart->Instance->CR1, (USART_CR1_RXNEIE | USART_CR1_PEIE | USART_CR1_TXEIE | USART_CR1_
1250:Drivers/STM32F0xx_HAL_Driver/Src/stm32f0xx_hal_uart.c ****   CLEAR_BIT(huart->Instance->CR3, USART_CR3_EIE);
1251:Drivers/STM32F0xx_HAL_Driver/Src/stm32f0xx_hal_uart.c **** 
1252:Drivers/STM32F0xx_HAL_Driver/Src/stm32f0xx_hal_uart.c ****   /* Disable the UART DMA Tx request if enabled */
1253:Drivers/STM32F0xx_HAL_Driver/Src/stm32f0xx_hal_uart.c ****   if (HAL_IS_BIT_SET(huart->Instance->CR3, USART_CR3_DMAT))
1254:Drivers/STM32F0xx_HAL_Driver/Src/stm32f0xx_hal_uart.c ****   {
1255:Drivers/STM32F0xx_HAL_Driver/Src/stm32f0xx_hal_uart.c ****     CLEAR_BIT(huart->Instance->CR3, USART_CR3_DMAT);
ARM GAS  /tmp/ccDDwqiC.s 			page 28


1256:Drivers/STM32F0xx_HAL_Driver/Src/stm32f0xx_hal_uart.c **** 
1257:Drivers/STM32F0xx_HAL_Driver/Src/stm32f0xx_hal_uart.c ****     /* Abort the UART DMA Tx channel : use blocking DMA Abort API (no callback) */
1258:Drivers/STM32F0xx_HAL_Driver/Src/stm32f0xx_hal_uart.c ****     if(huart->hdmatx != NULL)
1259:Drivers/STM32F0xx_HAL_Driver/Src/stm32f0xx_hal_uart.c ****     {
1260:Drivers/STM32F0xx_HAL_Driver/Src/stm32f0xx_hal_uart.c ****       /* Set the UART DMA Abort callback to Null. 
1261:Drivers/STM32F0xx_HAL_Driver/Src/stm32f0xx_hal_uart.c ****          No call back execution at end of DMA abort procedure */
1262:Drivers/STM32F0xx_HAL_Driver/Src/stm32f0xx_hal_uart.c ****       huart->hdmatx->XferAbortCallback = NULL;
1263:Drivers/STM32F0xx_HAL_Driver/Src/stm32f0xx_hal_uart.c **** 
1264:Drivers/STM32F0xx_HAL_Driver/Src/stm32f0xx_hal_uart.c ****       HAL_DMA_Abort(huart->hdmatx);
1265:Drivers/STM32F0xx_HAL_Driver/Src/stm32f0xx_hal_uart.c ****     }
1266:Drivers/STM32F0xx_HAL_Driver/Src/stm32f0xx_hal_uart.c ****   }
1267:Drivers/STM32F0xx_HAL_Driver/Src/stm32f0xx_hal_uart.c **** 
1268:Drivers/STM32F0xx_HAL_Driver/Src/stm32f0xx_hal_uart.c ****   /* Disable the UART DMA Rx request if enabled */
1269:Drivers/STM32F0xx_HAL_Driver/Src/stm32f0xx_hal_uart.c ****   if (HAL_IS_BIT_SET(huart->Instance->CR3, USART_CR3_DMAR))
1270:Drivers/STM32F0xx_HAL_Driver/Src/stm32f0xx_hal_uart.c ****   {
1271:Drivers/STM32F0xx_HAL_Driver/Src/stm32f0xx_hal_uart.c ****     CLEAR_BIT(huart->Instance->CR3, USART_CR3_DMAR);
1272:Drivers/STM32F0xx_HAL_Driver/Src/stm32f0xx_hal_uart.c **** 
1273:Drivers/STM32F0xx_HAL_Driver/Src/stm32f0xx_hal_uart.c ****     /* Abort the UART DMA Rx channel : use blocking DMA Abort API (no callback) */
1274:Drivers/STM32F0xx_HAL_Driver/Src/stm32f0xx_hal_uart.c ****     if(huart->hdmarx != NULL)
1275:Drivers/STM32F0xx_HAL_Driver/Src/stm32f0xx_hal_uart.c ****     {
1276:Drivers/STM32F0xx_HAL_Driver/Src/stm32f0xx_hal_uart.c ****       /* Set the UART DMA Abort callback to Null. 
1277:Drivers/STM32F0xx_HAL_Driver/Src/stm32f0xx_hal_uart.c ****          No call back execution at end of DMA abort procedure */
1278:Drivers/STM32F0xx_HAL_Driver/Src/stm32f0xx_hal_uart.c ****       huart->hdmarx->XferAbortCallback = NULL;
1279:Drivers/STM32F0xx_HAL_Driver/Src/stm32f0xx_hal_uart.c **** 
1280:Drivers/STM32F0xx_HAL_Driver/Src/stm32f0xx_hal_uart.c ****       HAL_DMA_Abort(huart->hdmarx);
1281:Drivers/STM32F0xx_HAL_Driver/Src/stm32f0xx_hal_uart.c ****     }
1282:Drivers/STM32F0xx_HAL_Driver/Src/stm32f0xx_hal_uart.c ****   }
1283:Drivers/STM32F0xx_HAL_Driver/Src/stm32f0xx_hal_uart.c **** 
1284:Drivers/STM32F0xx_HAL_Driver/Src/stm32f0xx_hal_uart.c ****   /* Reset Tx and Rx transfer counters */
1285:Drivers/STM32F0xx_HAL_Driver/Src/stm32f0xx_hal_uart.c ****   huart->TxXferCount = 0U; 
1286:Drivers/STM32F0xx_HAL_Driver/Src/stm32f0xx_hal_uart.c ****   huart->RxXferCount = 0U; 
1287:Drivers/STM32F0xx_HAL_Driver/Src/stm32f0xx_hal_uart.c **** 
1288:Drivers/STM32F0xx_HAL_Driver/Src/stm32f0xx_hal_uart.c ****   /* Clear the Error flags in the ICR register */
1289:Drivers/STM32F0xx_HAL_Driver/Src/stm32f0xx_hal_uart.c ****   __HAL_UART_CLEAR_FLAG(huart, UART_CLEAR_OREF | UART_CLEAR_NEF | UART_CLEAR_PEF | UART_CLEAR_FEF);
1290:Drivers/STM32F0xx_HAL_Driver/Src/stm32f0xx_hal_uart.c **** 
1291:Drivers/STM32F0xx_HAL_Driver/Src/stm32f0xx_hal_uart.c ****   /* Restore huart->gState and huart->RxState to Ready */
1292:Drivers/STM32F0xx_HAL_Driver/Src/stm32f0xx_hal_uart.c ****   huart->gState  = HAL_UART_STATE_READY;
1293:Drivers/STM32F0xx_HAL_Driver/Src/stm32f0xx_hal_uart.c ****   huart->RxState = HAL_UART_STATE_READY;
1294:Drivers/STM32F0xx_HAL_Driver/Src/stm32f0xx_hal_uart.c **** 
1295:Drivers/STM32F0xx_HAL_Driver/Src/stm32f0xx_hal_uart.c ****   /* Reset Handle ErrorCode to No Error */
1296:Drivers/STM32F0xx_HAL_Driver/Src/stm32f0xx_hal_uart.c ****   huart->ErrorCode = HAL_UART_ERROR_NONE;
1297:Drivers/STM32F0xx_HAL_Driver/Src/stm32f0xx_hal_uart.c **** 
1298:Drivers/STM32F0xx_HAL_Driver/Src/stm32f0xx_hal_uart.c ****   return HAL_OK;
1299:Drivers/STM32F0xx_HAL_Driver/Src/stm32f0xx_hal_uart.c **** }
1300:Drivers/STM32F0xx_HAL_Driver/Src/stm32f0xx_hal_uart.c **** 
1301:Drivers/STM32F0xx_HAL_Driver/Src/stm32f0xx_hal_uart.c **** /**
1302:Drivers/STM32F0xx_HAL_Driver/Src/stm32f0xx_hal_uart.c ****   * @brief  Abort ongoing Transmit transfer (blocking mode).
1303:Drivers/STM32F0xx_HAL_Driver/Src/stm32f0xx_hal_uart.c ****   * @param  huart UART handle.
1304:Drivers/STM32F0xx_HAL_Driver/Src/stm32f0xx_hal_uart.c ****   * @note   This procedure could be used for aborting any ongoing Tx transfer started in Interrupt 
1305:Drivers/STM32F0xx_HAL_Driver/Src/stm32f0xx_hal_uart.c ****   *         This procedure performs following operations :
1306:Drivers/STM32F0xx_HAL_Driver/Src/stm32f0xx_hal_uart.c ****   *           - Disable UART Interrupts (Tx)
1307:Drivers/STM32F0xx_HAL_Driver/Src/stm32f0xx_hal_uart.c ****   *           - Disable the DMA transfer in the peripheral register (if enabled)
1308:Drivers/STM32F0xx_HAL_Driver/Src/stm32f0xx_hal_uart.c ****   *           - Abort DMA transfer by calling HAL_DMA_Abort (in case of transfer in DMA mode)
1309:Drivers/STM32F0xx_HAL_Driver/Src/stm32f0xx_hal_uart.c ****   *           - Set handle State to READY
1310:Drivers/STM32F0xx_HAL_Driver/Src/stm32f0xx_hal_uart.c ****   * @note   This procedure is executed in blocking mode : when exiting function, Abort is considere
1311:Drivers/STM32F0xx_HAL_Driver/Src/stm32f0xx_hal_uart.c ****   * @retval HAL status
1312:Drivers/STM32F0xx_HAL_Driver/Src/stm32f0xx_hal_uart.c **** */
ARM GAS  /tmp/ccDDwqiC.s 			page 29


1313:Drivers/STM32F0xx_HAL_Driver/Src/stm32f0xx_hal_uart.c **** HAL_StatusTypeDef HAL_UART_AbortTransmit(UART_HandleTypeDef *huart)
1314:Drivers/STM32F0xx_HAL_Driver/Src/stm32f0xx_hal_uart.c **** {
1315:Drivers/STM32F0xx_HAL_Driver/Src/stm32f0xx_hal_uart.c ****   /* Disable TXEIE and TCIE interrupts */
1316:Drivers/STM32F0xx_HAL_Driver/Src/stm32f0xx_hal_uart.c ****   CLEAR_BIT(huart->Instance->CR1, (USART_CR1_TXEIE | USART_CR1_TCIE));
1317:Drivers/STM32F0xx_HAL_Driver/Src/stm32f0xx_hal_uart.c **** 
1318:Drivers/STM32F0xx_HAL_Driver/Src/stm32f0xx_hal_uart.c ****   /* Disable the UART DMA Tx request if enabled */
1319:Drivers/STM32F0xx_HAL_Driver/Src/stm32f0xx_hal_uart.c ****   if (HAL_IS_BIT_SET(huart->Instance->CR3, USART_CR3_DMAT))
1320:Drivers/STM32F0xx_HAL_Driver/Src/stm32f0xx_hal_uart.c ****   {
1321:Drivers/STM32F0xx_HAL_Driver/Src/stm32f0xx_hal_uart.c ****     CLEAR_BIT(huart->Instance->CR3, USART_CR3_DMAT);
1322:Drivers/STM32F0xx_HAL_Driver/Src/stm32f0xx_hal_uart.c **** 
1323:Drivers/STM32F0xx_HAL_Driver/Src/stm32f0xx_hal_uart.c ****     /* Abort the UART DMA Tx channel : use blocking DMA Abort API (no callback) */
1324:Drivers/STM32F0xx_HAL_Driver/Src/stm32f0xx_hal_uart.c ****     if(huart->hdmatx != NULL)
1325:Drivers/STM32F0xx_HAL_Driver/Src/stm32f0xx_hal_uart.c ****     {
1326:Drivers/STM32F0xx_HAL_Driver/Src/stm32f0xx_hal_uart.c ****       /* Set the UART DMA Abort callback to Null. 
1327:Drivers/STM32F0xx_HAL_Driver/Src/stm32f0xx_hal_uart.c ****          No call back execution at end of DMA abort procedure */
1328:Drivers/STM32F0xx_HAL_Driver/Src/stm32f0xx_hal_uart.c ****       huart->hdmatx->XferAbortCallback = NULL;
1329:Drivers/STM32F0xx_HAL_Driver/Src/stm32f0xx_hal_uart.c **** 
1330:Drivers/STM32F0xx_HAL_Driver/Src/stm32f0xx_hal_uart.c ****       HAL_DMA_Abort(huart->hdmatx);
1331:Drivers/STM32F0xx_HAL_Driver/Src/stm32f0xx_hal_uart.c ****     }
1332:Drivers/STM32F0xx_HAL_Driver/Src/stm32f0xx_hal_uart.c ****   }
1333:Drivers/STM32F0xx_HAL_Driver/Src/stm32f0xx_hal_uart.c **** 
1334:Drivers/STM32F0xx_HAL_Driver/Src/stm32f0xx_hal_uart.c ****   /* Reset Tx transfer counter */
1335:Drivers/STM32F0xx_HAL_Driver/Src/stm32f0xx_hal_uart.c ****   huart->TxXferCount = 0U; 
1336:Drivers/STM32F0xx_HAL_Driver/Src/stm32f0xx_hal_uart.c **** 
1337:Drivers/STM32F0xx_HAL_Driver/Src/stm32f0xx_hal_uart.c ****   /* Restore huart->gState to Ready */
1338:Drivers/STM32F0xx_HAL_Driver/Src/stm32f0xx_hal_uart.c ****   huart->gState = HAL_UART_STATE_READY;
1339:Drivers/STM32F0xx_HAL_Driver/Src/stm32f0xx_hal_uart.c **** 
1340:Drivers/STM32F0xx_HAL_Driver/Src/stm32f0xx_hal_uart.c ****   return HAL_OK;
1341:Drivers/STM32F0xx_HAL_Driver/Src/stm32f0xx_hal_uart.c **** }
1342:Drivers/STM32F0xx_HAL_Driver/Src/stm32f0xx_hal_uart.c **** 
1343:Drivers/STM32F0xx_HAL_Driver/Src/stm32f0xx_hal_uart.c **** /**
1344:Drivers/STM32F0xx_HAL_Driver/Src/stm32f0xx_hal_uart.c ****   * @brief  Abort ongoing Receive transfer (blocking mode).
1345:Drivers/STM32F0xx_HAL_Driver/Src/stm32f0xx_hal_uart.c ****   * @param  huart UART handle.
1346:Drivers/STM32F0xx_HAL_Driver/Src/stm32f0xx_hal_uart.c ****   * @note   This procedure could be used for aborting any ongoing Rx transfer started in Interrupt 
1347:Drivers/STM32F0xx_HAL_Driver/Src/stm32f0xx_hal_uart.c ****   *         This procedure performs following operations :
1348:Drivers/STM32F0xx_HAL_Driver/Src/stm32f0xx_hal_uart.c ****   *           - Disable UART Interrupts (Rx)
1349:Drivers/STM32F0xx_HAL_Driver/Src/stm32f0xx_hal_uart.c ****   *           - Disable the DMA transfer in the peripheral register (if enabled)
1350:Drivers/STM32F0xx_HAL_Driver/Src/stm32f0xx_hal_uart.c ****   *           - Abort DMA transfer by calling HAL_DMA_Abort (in case of transfer in DMA mode)
1351:Drivers/STM32F0xx_HAL_Driver/Src/stm32f0xx_hal_uart.c ****   *           - Set handle State to READY
1352:Drivers/STM32F0xx_HAL_Driver/Src/stm32f0xx_hal_uart.c ****   * @note   This procedure is executed in blocking mode : when exiting function, Abort is considere
1353:Drivers/STM32F0xx_HAL_Driver/Src/stm32f0xx_hal_uart.c ****   * @retval HAL status
1354:Drivers/STM32F0xx_HAL_Driver/Src/stm32f0xx_hal_uart.c **** */
1355:Drivers/STM32F0xx_HAL_Driver/Src/stm32f0xx_hal_uart.c **** HAL_StatusTypeDef HAL_UART_AbortReceive(UART_HandleTypeDef *huart)
1356:Drivers/STM32F0xx_HAL_Driver/Src/stm32f0xx_hal_uart.c **** {
1357:Drivers/STM32F0xx_HAL_Driver/Src/stm32f0xx_hal_uart.c ****   /* Disable RXNE, PE and ERR (Frame error, noise error, overrun error) interrupts */
1358:Drivers/STM32F0xx_HAL_Driver/Src/stm32f0xx_hal_uart.c ****   CLEAR_BIT(huart->Instance->CR1, (USART_CR1_RXNEIE | USART_CR1_PEIE));
1359:Drivers/STM32F0xx_HAL_Driver/Src/stm32f0xx_hal_uart.c ****   CLEAR_BIT(huart->Instance->CR3, USART_CR3_EIE);
1360:Drivers/STM32F0xx_HAL_Driver/Src/stm32f0xx_hal_uart.c **** 
1361:Drivers/STM32F0xx_HAL_Driver/Src/stm32f0xx_hal_uart.c ****   /* Disable the UART DMA Rx request if enabled */
1362:Drivers/STM32F0xx_HAL_Driver/Src/stm32f0xx_hal_uart.c ****   if (HAL_IS_BIT_SET(huart->Instance->CR3, USART_CR3_DMAR))
1363:Drivers/STM32F0xx_HAL_Driver/Src/stm32f0xx_hal_uart.c ****   {
1364:Drivers/STM32F0xx_HAL_Driver/Src/stm32f0xx_hal_uart.c ****     CLEAR_BIT(huart->Instance->CR3, USART_CR3_DMAR);
1365:Drivers/STM32F0xx_HAL_Driver/Src/stm32f0xx_hal_uart.c **** 
1366:Drivers/STM32F0xx_HAL_Driver/Src/stm32f0xx_hal_uart.c ****     /* Abort the UART DMA Rx channel : use blocking DMA Abort API (no callback) */
1367:Drivers/STM32F0xx_HAL_Driver/Src/stm32f0xx_hal_uart.c ****     if(huart->hdmarx != NULL)
1368:Drivers/STM32F0xx_HAL_Driver/Src/stm32f0xx_hal_uart.c ****     {
1369:Drivers/STM32F0xx_HAL_Driver/Src/stm32f0xx_hal_uart.c ****       /* Set the UART DMA Abort callback to Null. 
ARM GAS  /tmp/ccDDwqiC.s 			page 30


1370:Drivers/STM32F0xx_HAL_Driver/Src/stm32f0xx_hal_uart.c ****          No call back execution at end of DMA abort procedure */
1371:Drivers/STM32F0xx_HAL_Driver/Src/stm32f0xx_hal_uart.c ****       huart->hdmarx->XferAbortCallback = NULL;
1372:Drivers/STM32F0xx_HAL_Driver/Src/stm32f0xx_hal_uart.c **** 
1373:Drivers/STM32F0xx_HAL_Driver/Src/stm32f0xx_hal_uart.c ****       HAL_DMA_Abort(huart->hdmarx);
1374:Drivers/STM32F0xx_HAL_Driver/Src/stm32f0xx_hal_uart.c ****     }
1375:Drivers/STM32F0xx_HAL_Driver/Src/stm32f0xx_hal_uart.c ****   }
1376:Drivers/STM32F0xx_HAL_Driver/Src/stm32f0xx_hal_uart.c **** 
1377:Drivers/STM32F0xx_HAL_Driver/Src/stm32f0xx_hal_uart.c ****   /* Reset Rx transfer counter */
1378:Drivers/STM32F0xx_HAL_Driver/Src/stm32f0xx_hal_uart.c ****   huart->RxXferCount = 0U; 
1379:Drivers/STM32F0xx_HAL_Driver/Src/stm32f0xx_hal_uart.c **** 
1380:Drivers/STM32F0xx_HAL_Driver/Src/stm32f0xx_hal_uart.c ****   /* Clear the Error flags in the ICR register */
1381:Drivers/STM32F0xx_HAL_Driver/Src/stm32f0xx_hal_uart.c ****   __HAL_UART_CLEAR_FLAG(huart, UART_CLEAR_OREF | UART_CLEAR_NEF | UART_CLEAR_PEF | UART_CLEAR_FEF);
1382:Drivers/STM32F0xx_HAL_Driver/Src/stm32f0xx_hal_uart.c **** 
1383:Drivers/STM32F0xx_HAL_Driver/Src/stm32f0xx_hal_uart.c ****   /* Restore huart->RxState to Ready */
1384:Drivers/STM32F0xx_HAL_Driver/Src/stm32f0xx_hal_uart.c ****   huart->RxState = HAL_UART_STATE_READY;
1385:Drivers/STM32F0xx_HAL_Driver/Src/stm32f0xx_hal_uart.c **** 
1386:Drivers/STM32F0xx_HAL_Driver/Src/stm32f0xx_hal_uart.c ****   return HAL_OK;
1387:Drivers/STM32F0xx_HAL_Driver/Src/stm32f0xx_hal_uart.c **** }
1388:Drivers/STM32F0xx_HAL_Driver/Src/stm32f0xx_hal_uart.c **** 
1389:Drivers/STM32F0xx_HAL_Driver/Src/stm32f0xx_hal_uart.c **** /**
1390:Drivers/STM32F0xx_HAL_Driver/Src/stm32f0xx_hal_uart.c ****   * @brief  Abort ongoing transfers (Interrupt mode).
1391:Drivers/STM32F0xx_HAL_Driver/Src/stm32f0xx_hal_uart.c ****   * @param  huart UART handle.
1392:Drivers/STM32F0xx_HAL_Driver/Src/stm32f0xx_hal_uart.c ****   * @note   This procedure could be used for aborting any ongoing transfer started in Interrupt or 
1393:Drivers/STM32F0xx_HAL_Driver/Src/stm32f0xx_hal_uart.c ****   *         This procedure performs following operations :
1394:Drivers/STM32F0xx_HAL_Driver/Src/stm32f0xx_hal_uart.c ****   *           - Disable UART Interrupts (Tx and Rx)
1395:Drivers/STM32F0xx_HAL_Driver/Src/stm32f0xx_hal_uart.c ****   *           - Disable the DMA transfer in the peripheral register (if enabled)
1396:Drivers/STM32F0xx_HAL_Driver/Src/stm32f0xx_hal_uart.c ****   *           - Abort DMA transfer by calling HAL_DMA_Abort_IT (in case of transfer in DMA mode)
1397:Drivers/STM32F0xx_HAL_Driver/Src/stm32f0xx_hal_uart.c ****   *           - Set handle State to READY
1398:Drivers/STM32F0xx_HAL_Driver/Src/stm32f0xx_hal_uart.c ****   *           - At abort completion, call user abort complete callback
1399:Drivers/STM32F0xx_HAL_Driver/Src/stm32f0xx_hal_uart.c ****   * @note   This procedure is executed in Interrupt mode, meaning that abort procedure could be
1400:Drivers/STM32F0xx_HAL_Driver/Src/stm32f0xx_hal_uart.c ****   *         considered as completed only when user abort complete callback is executed (not when ex
1401:Drivers/STM32F0xx_HAL_Driver/Src/stm32f0xx_hal_uart.c ****   * @retval HAL status
1402:Drivers/STM32F0xx_HAL_Driver/Src/stm32f0xx_hal_uart.c **** */
1403:Drivers/STM32F0xx_HAL_Driver/Src/stm32f0xx_hal_uart.c **** HAL_StatusTypeDef HAL_UART_Abort_IT(UART_HandleTypeDef *huart)
1404:Drivers/STM32F0xx_HAL_Driver/Src/stm32f0xx_hal_uart.c **** {
1405:Drivers/STM32F0xx_HAL_Driver/Src/stm32f0xx_hal_uart.c ****   uint32_t abortcplt = 1U;
1406:Drivers/STM32F0xx_HAL_Driver/Src/stm32f0xx_hal_uart.c ****   
1407:Drivers/STM32F0xx_HAL_Driver/Src/stm32f0xx_hal_uart.c ****   /* Disable TXEIE, TCIE, RXNE, PE and ERR (Frame error, noise error, overrun error) interrupts */
1408:Drivers/STM32F0xx_HAL_Driver/Src/stm32f0xx_hal_uart.c ****   CLEAR_BIT(huart->Instance->CR1, (USART_CR1_RXNEIE | USART_CR1_PEIE | USART_CR1_TXEIE | USART_CR1_
1409:Drivers/STM32F0xx_HAL_Driver/Src/stm32f0xx_hal_uart.c ****   CLEAR_BIT(huart->Instance->CR3, USART_CR3_EIE);
1410:Drivers/STM32F0xx_HAL_Driver/Src/stm32f0xx_hal_uart.c **** 
1411:Drivers/STM32F0xx_HAL_Driver/Src/stm32f0xx_hal_uart.c ****   /* If DMA Tx and/or DMA Rx Handles are associated to UART Handle, DMA Abort complete callbacks sh
1412:Drivers/STM32F0xx_HAL_Driver/Src/stm32f0xx_hal_uart.c ****      before any call to DMA Abort functions */
1413:Drivers/STM32F0xx_HAL_Driver/Src/stm32f0xx_hal_uart.c ****   /* DMA Tx Handle is valid */
1414:Drivers/STM32F0xx_HAL_Driver/Src/stm32f0xx_hal_uart.c ****   if(huart->hdmatx != NULL)
1415:Drivers/STM32F0xx_HAL_Driver/Src/stm32f0xx_hal_uart.c ****   {
1416:Drivers/STM32F0xx_HAL_Driver/Src/stm32f0xx_hal_uart.c ****     /* Set DMA Abort Complete callback if UART DMA Tx request if enabled.
1417:Drivers/STM32F0xx_HAL_Driver/Src/stm32f0xx_hal_uart.c ****        Otherwise, set it to NULL */
1418:Drivers/STM32F0xx_HAL_Driver/Src/stm32f0xx_hal_uart.c ****     if(HAL_IS_BIT_SET(huart->Instance->CR3, USART_CR3_DMAT))
1419:Drivers/STM32F0xx_HAL_Driver/Src/stm32f0xx_hal_uart.c ****     {
1420:Drivers/STM32F0xx_HAL_Driver/Src/stm32f0xx_hal_uart.c ****       huart->hdmatx->XferAbortCallback = UART_DMATxAbortCallback;
1421:Drivers/STM32F0xx_HAL_Driver/Src/stm32f0xx_hal_uart.c ****     }
1422:Drivers/STM32F0xx_HAL_Driver/Src/stm32f0xx_hal_uart.c ****     else
1423:Drivers/STM32F0xx_HAL_Driver/Src/stm32f0xx_hal_uart.c ****     {
1424:Drivers/STM32F0xx_HAL_Driver/Src/stm32f0xx_hal_uart.c ****       huart->hdmatx->XferAbortCallback = NULL;
1425:Drivers/STM32F0xx_HAL_Driver/Src/stm32f0xx_hal_uart.c ****     }
1426:Drivers/STM32F0xx_HAL_Driver/Src/stm32f0xx_hal_uart.c ****   }
ARM GAS  /tmp/ccDDwqiC.s 			page 31


1427:Drivers/STM32F0xx_HAL_Driver/Src/stm32f0xx_hal_uart.c ****   /* DMA Rx Handle is valid */
1428:Drivers/STM32F0xx_HAL_Driver/Src/stm32f0xx_hal_uart.c ****   if(huart->hdmarx != NULL)
1429:Drivers/STM32F0xx_HAL_Driver/Src/stm32f0xx_hal_uart.c ****   {
1430:Drivers/STM32F0xx_HAL_Driver/Src/stm32f0xx_hal_uart.c ****     /* Set DMA Abort Complete callback if UART DMA Rx request if enabled.
1431:Drivers/STM32F0xx_HAL_Driver/Src/stm32f0xx_hal_uart.c ****        Otherwise, set it to NULL */
1432:Drivers/STM32F0xx_HAL_Driver/Src/stm32f0xx_hal_uart.c ****     if(HAL_IS_BIT_SET(huart->Instance->CR3, USART_CR3_DMAR))
1433:Drivers/STM32F0xx_HAL_Driver/Src/stm32f0xx_hal_uart.c ****     {
1434:Drivers/STM32F0xx_HAL_Driver/Src/stm32f0xx_hal_uart.c ****       huart->hdmarx->XferAbortCallback = UART_DMARxAbortCallback;
1435:Drivers/STM32F0xx_HAL_Driver/Src/stm32f0xx_hal_uart.c ****     }
1436:Drivers/STM32F0xx_HAL_Driver/Src/stm32f0xx_hal_uart.c ****     else
1437:Drivers/STM32F0xx_HAL_Driver/Src/stm32f0xx_hal_uart.c ****     {
1438:Drivers/STM32F0xx_HAL_Driver/Src/stm32f0xx_hal_uart.c ****       huart->hdmarx->XferAbortCallback = NULL;
1439:Drivers/STM32F0xx_HAL_Driver/Src/stm32f0xx_hal_uart.c ****     }
1440:Drivers/STM32F0xx_HAL_Driver/Src/stm32f0xx_hal_uart.c ****   }
1441:Drivers/STM32F0xx_HAL_Driver/Src/stm32f0xx_hal_uart.c ****   
1442:Drivers/STM32F0xx_HAL_Driver/Src/stm32f0xx_hal_uart.c ****   /* Disable the UART DMA Tx request if enabled */
1443:Drivers/STM32F0xx_HAL_Driver/Src/stm32f0xx_hal_uart.c ****   if(HAL_IS_BIT_SET(huart->Instance->CR3, USART_CR3_DMAT))
1444:Drivers/STM32F0xx_HAL_Driver/Src/stm32f0xx_hal_uart.c ****   {
1445:Drivers/STM32F0xx_HAL_Driver/Src/stm32f0xx_hal_uart.c ****     /* Disable DMA Tx at UART level */
1446:Drivers/STM32F0xx_HAL_Driver/Src/stm32f0xx_hal_uart.c ****     CLEAR_BIT(huart->Instance->CR3, USART_CR3_DMAT);
1447:Drivers/STM32F0xx_HAL_Driver/Src/stm32f0xx_hal_uart.c **** 
1448:Drivers/STM32F0xx_HAL_Driver/Src/stm32f0xx_hal_uart.c ****     /* Abort the UART DMA Tx channel : use non blocking DMA Abort API (callback) */
1449:Drivers/STM32F0xx_HAL_Driver/Src/stm32f0xx_hal_uart.c ****     if(huart->hdmatx != NULL)
1450:Drivers/STM32F0xx_HAL_Driver/Src/stm32f0xx_hal_uart.c ****     {
1451:Drivers/STM32F0xx_HAL_Driver/Src/stm32f0xx_hal_uart.c ****       /* UART Tx DMA Abort callback has already been initialised : 
1452:Drivers/STM32F0xx_HAL_Driver/Src/stm32f0xx_hal_uart.c ****          will lead to call HAL_UART_AbortCpltCallback() at end of DMA abort procedure */
1453:Drivers/STM32F0xx_HAL_Driver/Src/stm32f0xx_hal_uart.c **** 
1454:Drivers/STM32F0xx_HAL_Driver/Src/stm32f0xx_hal_uart.c ****       /* Abort DMA TX */
1455:Drivers/STM32F0xx_HAL_Driver/Src/stm32f0xx_hal_uart.c ****       if(HAL_DMA_Abort_IT(huart->hdmatx) != HAL_OK)
1456:Drivers/STM32F0xx_HAL_Driver/Src/stm32f0xx_hal_uart.c ****       {
1457:Drivers/STM32F0xx_HAL_Driver/Src/stm32f0xx_hal_uart.c ****         huart->hdmatx->XferAbortCallback = NULL;
1458:Drivers/STM32F0xx_HAL_Driver/Src/stm32f0xx_hal_uart.c ****       }
1459:Drivers/STM32F0xx_HAL_Driver/Src/stm32f0xx_hal_uart.c ****       else
1460:Drivers/STM32F0xx_HAL_Driver/Src/stm32f0xx_hal_uart.c ****       {
1461:Drivers/STM32F0xx_HAL_Driver/Src/stm32f0xx_hal_uart.c ****         abortcplt = 0U;
1462:Drivers/STM32F0xx_HAL_Driver/Src/stm32f0xx_hal_uart.c ****       }
1463:Drivers/STM32F0xx_HAL_Driver/Src/stm32f0xx_hal_uart.c ****     }
1464:Drivers/STM32F0xx_HAL_Driver/Src/stm32f0xx_hal_uart.c ****   }
1465:Drivers/STM32F0xx_HAL_Driver/Src/stm32f0xx_hal_uart.c **** 
1466:Drivers/STM32F0xx_HAL_Driver/Src/stm32f0xx_hal_uart.c ****   /* Disable the UART DMA Rx request if enabled */
1467:Drivers/STM32F0xx_HAL_Driver/Src/stm32f0xx_hal_uart.c ****   if (HAL_IS_BIT_SET(huart->Instance->CR3, USART_CR3_DMAR))
1468:Drivers/STM32F0xx_HAL_Driver/Src/stm32f0xx_hal_uart.c ****   {
1469:Drivers/STM32F0xx_HAL_Driver/Src/stm32f0xx_hal_uart.c ****     CLEAR_BIT(huart->Instance->CR3, USART_CR3_DMAR);
1470:Drivers/STM32F0xx_HAL_Driver/Src/stm32f0xx_hal_uart.c **** 
1471:Drivers/STM32F0xx_HAL_Driver/Src/stm32f0xx_hal_uart.c ****     /* Abort the UART DMA Rx channel : use non blocking DMA Abort API (callback) */
1472:Drivers/STM32F0xx_HAL_Driver/Src/stm32f0xx_hal_uart.c ****     if(huart->hdmarx != NULL)
1473:Drivers/STM32F0xx_HAL_Driver/Src/stm32f0xx_hal_uart.c ****     {
1474:Drivers/STM32F0xx_HAL_Driver/Src/stm32f0xx_hal_uart.c ****       /* UART Rx DMA Abort callback has already been initialised : 
1475:Drivers/STM32F0xx_HAL_Driver/Src/stm32f0xx_hal_uart.c ****          will lead to call HAL_UART_AbortCpltCallback() at end of DMA abort procedure */
1476:Drivers/STM32F0xx_HAL_Driver/Src/stm32f0xx_hal_uart.c **** 
1477:Drivers/STM32F0xx_HAL_Driver/Src/stm32f0xx_hal_uart.c ****       /* Abort DMA RX */
1478:Drivers/STM32F0xx_HAL_Driver/Src/stm32f0xx_hal_uart.c ****       if(HAL_DMA_Abort_IT(huart->hdmarx) != HAL_OK)
1479:Drivers/STM32F0xx_HAL_Driver/Src/stm32f0xx_hal_uart.c ****       {
1480:Drivers/STM32F0xx_HAL_Driver/Src/stm32f0xx_hal_uart.c ****         huart->hdmarx->XferAbortCallback = NULL;
1481:Drivers/STM32F0xx_HAL_Driver/Src/stm32f0xx_hal_uart.c ****         abortcplt = 1U;
1482:Drivers/STM32F0xx_HAL_Driver/Src/stm32f0xx_hal_uart.c ****       }
1483:Drivers/STM32F0xx_HAL_Driver/Src/stm32f0xx_hal_uart.c ****       else
ARM GAS  /tmp/ccDDwqiC.s 			page 32


1484:Drivers/STM32F0xx_HAL_Driver/Src/stm32f0xx_hal_uart.c ****       {
1485:Drivers/STM32F0xx_HAL_Driver/Src/stm32f0xx_hal_uart.c ****         abortcplt = 0U;
1486:Drivers/STM32F0xx_HAL_Driver/Src/stm32f0xx_hal_uart.c ****       }
1487:Drivers/STM32F0xx_HAL_Driver/Src/stm32f0xx_hal_uart.c ****     }
1488:Drivers/STM32F0xx_HAL_Driver/Src/stm32f0xx_hal_uart.c ****   }
1489:Drivers/STM32F0xx_HAL_Driver/Src/stm32f0xx_hal_uart.c **** 
1490:Drivers/STM32F0xx_HAL_Driver/Src/stm32f0xx_hal_uart.c ****   /* if no DMA abort complete callback execution is required => call user Abort Complete callback *
1491:Drivers/STM32F0xx_HAL_Driver/Src/stm32f0xx_hal_uart.c ****   if (abortcplt == 1U)
1492:Drivers/STM32F0xx_HAL_Driver/Src/stm32f0xx_hal_uart.c ****   {
1493:Drivers/STM32F0xx_HAL_Driver/Src/stm32f0xx_hal_uart.c ****     /* Reset Tx and Rx transfer counters */
1494:Drivers/STM32F0xx_HAL_Driver/Src/stm32f0xx_hal_uart.c ****     huart->TxXferCount = 0U; 
1495:Drivers/STM32F0xx_HAL_Driver/Src/stm32f0xx_hal_uart.c ****     huart->RxXferCount = 0U;
1496:Drivers/STM32F0xx_HAL_Driver/Src/stm32f0xx_hal_uart.c **** 
1497:Drivers/STM32F0xx_HAL_Driver/Src/stm32f0xx_hal_uart.c ****     /* Reset errorCode */
1498:Drivers/STM32F0xx_HAL_Driver/Src/stm32f0xx_hal_uart.c ****     huart->ErrorCode = HAL_UART_ERROR_NONE;
1499:Drivers/STM32F0xx_HAL_Driver/Src/stm32f0xx_hal_uart.c **** 
1500:Drivers/STM32F0xx_HAL_Driver/Src/stm32f0xx_hal_uart.c ****     /* Clear the Error flags in the ICR register */
1501:Drivers/STM32F0xx_HAL_Driver/Src/stm32f0xx_hal_uart.c ****     __HAL_UART_CLEAR_FLAG(huart, UART_CLEAR_OREF | UART_CLEAR_NEF | UART_CLEAR_PEF | UART_CLEAR_FEF
1502:Drivers/STM32F0xx_HAL_Driver/Src/stm32f0xx_hal_uart.c **** 
1503:Drivers/STM32F0xx_HAL_Driver/Src/stm32f0xx_hal_uart.c ****     /* Restore huart->gState and huart->RxState to Ready */
1504:Drivers/STM32F0xx_HAL_Driver/Src/stm32f0xx_hal_uart.c ****     huart->gState  = HAL_UART_STATE_READY;
1505:Drivers/STM32F0xx_HAL_Driver/Src/stm32f0xx_hal_uart.c ****     huart->RxState = HAL_UART_STATE_READY;
1506:Drivers/STM32F0xx_HAL_Driver/Src/stm32f0xx_hal_uart.c **** 
1507:Drivers/STM32F0xx_HAL_Driver/Src/stm32f0xx_hal_uart.c ****     /* As no DMA to be aborted, call directly user Abort complete callback */
1508:Drivers/STM32F0xx_HAL_Driver/Src/stm32f0xx_hal_uart.c ****     HAL_UART_AbortCpltCallback(huart);
1509:Drivers/STM32F0xx_HAL_Driver/Src/stm32f0xx_hal_uart.c ****   }
1510:Drivers/STM32F0xx_HAL_Driver/Src/stm32f0xx_hal_uart.c **** 
1511:Drivers/STM32F0xx_HAL_Driver/Src/stm32f0xx_hal_uart.c ****   return HAL_OK;
1512:Drivers/STM32F0xx_HAL_Driver/Src/stm32f0xx_hal_uart.c **** }
1513:Drivers/STM32F0xx_HAL_Driver/Src/stm32f0xx_hal_uart.c **** 
1514:Drivers/STM32F0xx_HAL_Driver/Src/stm32f0xx_hal_uart.c **** /**
1515:Drivers/STM32F0xx_HAL_Driver/Src/stm32f0xx_hal_uart.c ****   * @brief  Abort ongoing Transmit transfer (Interrupt mode).
1516:Drivers/STM32F0xx_HAL_Driver/Src/stm32f0xx_hal_uart.c ****   * @param  huart UART handle.
1517:Drivers/STM32F0xx_HAL_Driver/Src/stm32f0xx_hal_uart.c ****   * @note   This procedure could be used for aborting any ongoing Tx transfer started in Interrupt 
1518:Drivers/STM32F0xx_HAL_Driver/Src/stm32f0xx_hal_uart.c ****   *         This procedure performs following operations :
1519:Drivers/STM32F0xx_HAL_Driver/Src/stm32f0xx_hal_uart.c ****   *           - Disable UART Interrupts (Tx)
1520:Drivers/STM32F0xx_HAL_Driver/Src/stm32f0xx_hal_uart.c ****   *           - Disable the DMA transfer in the peripheral register (if enabled)
1521:Drivers/STM32F0xx_HAL_Driver/Src/stm32f0xx_hal_uart.c ****   *           - Abort DMA transfer by calling HAL_DMA_Abort_IT (in case of transfer in DMA mode)
1522:Drivers/STM32F0xx_HAL_Driver/Src/stm32f0xx_hal_uart.c ****   *           - Set handle State to READY
1523:Drivers/STM32F0xx_HAL_Driver/Src/stm32f0xx_hal_uart.c ****   *           - At abort completion, call user abort complete callback
1524:Drivers/STM32F0xx_HAL_Driver/Src/stm32f0xx_hal_uart.c ****   * @note   This procedure is executed in Interrupt mode, meaning that abort procedure could be
1525:Drivers/STM32F0xx_HAL_Driver/Src/stm32f0xx_hal_uart.c ****   *         considered as completed only when user abort complete callback is executed (not when ex
1526:Drivers/STM32F0xx_HAL_Driver/Src/stm32f0xx_hal_uart.c ****   * @retval HAL status
1527:Drivers/STM32F0xx_HAL_Driver/Src/stm32f0xx_hal_uart.c **** */
1528:Drivers/STM32F0xx_HAL_Driver/Src/stm32f0xx_hal_uart.c **** HAL_StatusTypeDef HAL_UART_AbortTransmit_IT(UART_HandleTypeDef *huart)
1529:Drivers/STM32F0xx_HAL_Driver/Src/stm32f0xx_hal_uart.c **** {
1530:Drivers/STM32F0xx_HAL_Driver/Src/stm32f0xx_hal_uart.c ****   /* Disable TXEIE and TCIE interrupts */
1531:Drivers/STM32F0xx_HAL_Driver/Src/stm32f0xx_hal_uart.c ****   CLEAR_BIT(huart->Instance->CR1, (USART_CR1_TXEIE | USART_CR1_TCIE));
1532:Drivers/STM32F0xx_HAL_Driver/Src/stm32f0xx_hal_uart.c **** 
1533:Drivers/STM32F0xx_HAL_Driver/Src/stm32f0xx_hal_uart.c ****   /* Disable the UART DMA Tx request if enabled */
1534:Drivers/STM32F0xx_HAL_Driver/Src/stm32f0xx_hal_uart.c ****   if (HAL_IS_BIT_SET(huart->Instance->CR3, USART_CR3_DMAT))
1535:Drivers/STM32F0xx_HAL_Driver/Src/stm32f0xx_hal_uart.c ****   {
1536:Drivers/STM32F0xx_HAL_Driver/Src/stm32f0xx_hal_uart.c ****     CLEAR_BIT(huart->Instance->CR3, USART_CR3_DMAT);
1537:Drivers/STM32F0xx_HAL_Driver/Src/stm32f0xx_hal_uart.c **** 
1538:Drivers/STM32F0xx_HAL_Driver/Src/stm32f0xx_hal_uart.c ****     /* Abort the UART DMA Tx channel : use non blocking DMA Abort API (callback) */
1539:Drivers/STM32F0xx_HAL_Driver/Src/stm32f0xx_hal_uart.c ****     if(huart->hdmatx != NULL)
1540:Drivers/STM32F0xx_HAL_Driver/Src/stm32f0xx_hal_uart.c ****     {
ARM GAS  /tmp/ccDDwqiC.s 			page 33


1541:Drivers/STM32F0xx_HAL_Driver/Src/stm32f0xx_hal_uart.c ****       /* Set the UART DMA Abort callback : 
1542:Drivers/STM32F0xx_HAL_Driver/Src/stm32f0xx_hal_uart.c ****          will lead to call HAL_UART_AbortCpltCallback() at end of DMA abort procedure */
1543:Drivers/STM32F0xx_HAL_Driver/Src/stm32f0xx_hal_uart.c ****       huart->hdmatx->XferAbortCallback = UART_DMATxOnlyAbortCallback;
1544:Drivers/STM32F0xx_HAL_Driver/Src/stm32f0xx_hal_uart.c **** 
1545:Drivers/STM32F0xx_HAL_Driver/Src/stm32f0xx_hal_uart.c ****       /* Abort DMA TX */
1546:Drivers/STM32F0xx_HAL_Driver/Src/stm32f0xx_hal_uart.c ****       if(HAL_DMA_Abort_IT(huart->hdmatx) != HAL_OK)
1547:Drivers/STM32F0xx_HAL_Driver/Src/stm32f0xx_hal_uart.c ****       {
1548:Drivers/STM32F0xx_HAL_Driver/Src/stm32f0xx_hal_uart.c ****         /* Call Directly huart->hdmatx->XferAbortCallback function in case of error */
1549:Drivers/STM32F0xx_HAL_Driver/Src/stm32f0xx_hal_uart.c ****         huart->hdmatx->XferAbortCallback(huart->hdmatx);
1550:Drivers/STM32F0xx_HAL_Driver/Src/stm32f0xx_hal_uart.c ****       }
1551:Drivers/STM32F0xx_HAL_Driver/Src/stm32f0xx_hal_uart.c ****     }
1552:Drivers/STM32F0xx_HAL_Driver/Src/stm32f0xx_hal_uart.c ****     else
1553:Drivers/STM32F0xx_HAL_Driver/Src/stm32f0xx_hal_uart.c ****     {
1554:Drivers/STM32F0xx_HAL_Driver/Src/stm32f0xx_hal_uart.c ****       /* Reset Tx transfer counter */
1555:Drivers/STM32F0xx_HAL_Driver/Src/stm32f0xx_hal_uart.c ****       huart->TxXferCount = 0U; 
1556:Drivers/STM32F0xx_HAL_Driver/Src/stm32f0xx_hal_uart.c **** 
1557:Drivers/STM32F0xx_HAL_Driver/Src/stm32f0xx_hal_uart.c ****       /* Restore huart->gState to Ready */
1558:Drivers/STM32F0xx_HAL_Driver/Src/stm32f0xx_hal_uart.c ****       huart->gState = HAL_UART_STATE_READY;
1559:Drivers/STM32F0xx_HAL_Driver/Src/stm32f0xx_hal_uart.c **** 
1560:Drivers/STM32F0xx_HAL_Driver/Src/stm32f0xx_hal_uart.c ****       /* As no DMA to be aborted, call directly user Abort complete callback */
1561:Drivers/STM32F0xx_HAL_Driver/Src/stm32f0xx_hal_uart.c ****       HAL_UART_AbortTransmitCpltCallback(huart);
1562:Drivers/STM32F0xx_HAL_Driver/Src/stm32f0xx_hal_uart.c ****     }
1563:Drivers/STM32F0xx_HAL_Driver/Src/stm32f0xx_hal_uart.c ****   }
1564:Drivers/STM32F0xx_HAL_Driver/Src/stm32f0xx_hal_uart.c ****   else
1565:Drivers/STM32F0xx_HAL_Driver/Src/stm32f0xx_hal_uart.c ****   {
1566:Drivers/STM32F0xx_HAL_Driver/Src/stm32f0xx_hal_uart.c ****     /* Reset Tx transfer counter */
1567:Drivers/STM32F0xx_HAL_Driver/Src/stm32f0xx_hal_uart.c ****     huart->TxXferCount = 0U; 
1568:Drivers/STM32F0xx_HAL_Driver/Src/stm32f0xx_hal_uart.c **** 
1569:Drivers/STM32F0xx_HAL_Driver/Src/stm32f0xx_hal_uart.c ****     /* Restore huart->gState to Ready */
1570:Drivers/STM32F0xx_HAL_Driver/Src/stm32f0xx_hal_uart.c ****     huart->gState = HAL_UART_STATE_READY;
1571:Drivers/STM32F0xx_HAL_Driver/Src/stm32f0xx_hal_uart.c **** 
1572:Drivers/STM32F0xx_HAL_Driver/Src/stm32f0xx_hal_uart.c ****     /* As no DMA to be aborted, call directly user Abort complete callback */
1573:Drivers/STM32F0xx_HAL_Driver/Src/stm32f0xx_hal_uart.c ****     HAL_UART_AbortTransmitCpltCallback(huart);
1574:Drivers/STM32F0xx_HAL_Driver/Src/stm32f0xx_hal_uart.c ****   }
1575:Drivers/STM32F0xx_HAL_Driver/Src/stm32f0xx_hal_uart.c **** 
1576:Drivers/STM32F0xx_HAL_Driver/Src/stm32f0xx_hal_uart.c ****   return HAL_OK;
1577:Drivers/STM32F0xx_HAL_Driver/Src/stm32f0xx_hal_uart.c **** }
1578:Drivers/STM32F0xx_HAL_Driver/Src/stm32f0xx_hal_uart.c **** 
1579:Drivers/STM32F0xx_HAL_Driver/Src/stm32f0xx_hal_uart.c **** /**
1580:Drivers/STM32F0xx_HAL_Driver/Src/stm32f0xx_hal_uart.c ****   * @brief  Abort ongoing Receive transfer (Interrupt mode).
1581:Drivers/STM32F0xx_HAL_Driver/Src/stm32f0xx_hal_uart.c ****   * @param  huart UART handle.
1582:Drivers/STM32F0xx_HAL_Driver/Src/stm32f0xx_hal_uart.c ****   * @note   This procedure could be used for aborting any ongoing Rx transfer started in Interrupt 
1583:Drivers/STM32F0xx_HAL_Driver/Src/stm32f0xx_hal_uart.c ****   *         This procedure performs following operations :
1584:Drivers/STM32F0xx_HAL_Driver/Src/stm32f0xx_hal_uart.c ****   *           - Disable UART Interrupts (Rx)
1585:Drivers/STM32F0xx_HAL_Driver/Src/stm32f0xx_hal_uart.c ****   *           - Disable the DMA transfer in the peripheral register (if enabled)
1586:Drivers/STM32F0xx_HAL_Driver/Src/stm32f0xx_hal_uart.c ****   *           - Abort DMA transfer by calling HAL_DMA_Abort_IT (in case of transfer in DMA mode)
1587:Drivers/STM32F0xx_HAL_Driver/Src/stm32f0xx_hal_uart.c ****   *           - Set handle State to READY
1588:Drivers/STM32F0xx_HAL_Driver/Src/stm32f0xx_hal_uart.c ****   *           - At abort completion, call user abort complete callback
1589:Drivers/STM32F0xx_HAL_Driver/Src/stm32f0xx_hal_uart.c ****   * @note   This procedure is executed in Interrupt mode, meaning that abort procedure could be
1590:Drivers/STM32F0xx_HAL_Driver/Src/stm32f0xx_hal_uart.c ****   *         considered as completed only when user abort complete callback is executed (not when ex
1591:Drivers/STM32F0xx_HAL_Driver/Src/stm32f0xx_hal_uart.c ****   * @retval HAL status
1592:Drivers/STM32F0xx_HAL_Driver/Src/stm32f0xx_hal_uart.c **** */
1593:Drivers/STM32F0xx_HAL_Driver/Src/stm32f0xx_hal_uart.c **** HAL_StatusTypeDef HAL_UART_AbortReceive_IT(UART_HandleTypeDef *huart)
1594:Drivers/STM32F0xx_HAL_Driver/Src/stm32f0xx_hal_uart.c **** {
1595:Drivers/STM32F0xx_HAL_Driver/Src/stm32f0xx_hal_uart.c ****   /* Disable RXNE, PE and ERR (Frame error, noise error, overrun error) interrupts */
1596:Drivers/STM32F0xx_HAL_Driver/Src/stm32f0xx_hal_uart.c ****   CLEAR_BIT(huart->Instance->CR1, (USART_CR1_RXNEIE | USART_CR1_PEIE));
1597:Drivers/STM32F0xx_HAL_Driver/Src/stm32f0xx_hal_uart.c ****   CLEAR_BIT(huart->Instance->CR3, USART_CR3_EIE);
ARM GAS  /tmp/ccDDwqiC.s 			page 34


1598:Drivers/STM32F0xx_HAL_Driver/Src/stm32f0xx_hal_uart.c **** 
1599:Drivers/STM32F0xx_HAL_Driver/Src/stm32f0xx_hal_uart.c ****   /* Disable the UART DMA Rx request if enabled */
1600:Drivers/STM32F0xx_HAL_Driver/Src/stm32f0xx_hal_uart.c ****   if (HAL_IS_BIT_SET(huart->Instance->CR3, USART_CR3_DMAR))
1601:Drivers/STM32F0xx_HAL_Driver/Src/stm32f0xx_hal_uart.c ****   {
1602:Drivers/STM32F0xx_HAL_Driver/Src/stm32f0xx_hal_uart.c ****     CLEAR_BIT(huart->Instance->CR3, USART_CR3_DMAR);
1603:Drivers/STM32F0xx_HAL_Driver/Src/stm32f0xx_hal_uart.c **** 
1604:Drivers/STM32F0xx_HAL_Driver/Src/stm32f0xx_hal_uart.c ****     /* Abort the UART DMA Rx channel : use non blocking DMA Abort API (callback) */
1605:Drivers/STM32F0xx_HAL_Driver/Src/stm32f0xx_hal_uart.c ****     if(huart->hdmarx != NULL)
1606:Drivers/STM32F0xx_HAL_Driver/Src/stm32f0xx_hal_uart.c ****     {
1607:Drivers/STM32F0xx_HAL_Driver/Src/stm32f0xx_hal_uart.c ****       /* Set the UART DMA Abort callback : 
1608:Drivers/STM32F0xx_HAL_Driver/Src/stm32f0xx_hal_uart.c ****          will lead to call HAL_UART_AbortCpltCallback() at end of DMA abort procedure */
1609:Drivers/STM32F0xx_HAL_Driver/Src/stm32f0xx_hal_uart.c ****       huart->hdmarx->XferAbortCallback = UART_DMARxOnlyAbortCallback;
1610:Drivers/STM32F0xx_HAL_Driver/Src/stm32f0xx_hal_uart.c **** 
1611:Drivers/STM32F0xx_HAL_Driver/Src/stm32f0xx_hal_uart.c ****       /* Abort DMA RX */
1612:Drivers/STM32F0xx_HAL_Driver/Src/stm32f0xx_hal_uart.c ****       if(HAL_DMA_Abort_IT(huart->hdmarx) != HAL_OK)
1613:Drivers/STM32F0xx_HAL_Driver/Src/stm32f0xx_hal_uart.c ****       {
1614:Drivers/STM32F0xx_HAL_Driver/Src/stm32f0xx_hal_uart.c ****         /* Call Directly huart->hdmarx->XferAbortCallback function in case of error */
1615:Drivers/STM32F0xx_HAL_Driver/Src/stm32f0xx_hal_uart.c ****         huart->hdmarx->XferAbortCallback(huart->hdmarx);
1616:Drivers/STM32F0xx_HAL_Driver/Src/stm32f0xx_hal_uart.c ****       }
1617:Drivers/STM32F0xx_HAL_Driver/Src/stm32f0xx_hal_uart.c ****     }
1618:Drivers/STM32F0xx_HAL_Driver/Src/stm32f0xx_hal_uart.c ****     else
1619:Drivers/STM32F0xx_HAL_Driver/Src/stm32f0xx_hal_uart.c ****     {
1620:Drivers/STM32F0xx_HAL_Driver/Src/stm32f0xx_hal_uart.c ****       /* Reset Rx transfer counter */
1621:Drivers/STM32F0xx_HAL_Driver/Src/stm32f0xx_hal_uart.c ****       huart->RxXferCount = 0U; 
1622:Drivers/STM32F0xx_HAL_Driver/Src/stm32f0xx_hal_uart.c **** 
1623:Drivers/STM32F0xx_HAL_Driver/Src/stm32f0xx_hal_uart.c ****       /* Clear the Error flags in the ICR register */
1624:Drivers/STM32F0xx_HAL_Driver/Src/stm32f0xx_hal_uart.c ****       __HAL_UART_CLEAR_FLAG(huart, UART_CLEAR_OREF | UART_CLEAR_NEF | UART_CLEAR_PEF | UART_CLEAR_F
1625:Drivers/STM32F0xx_HAL_Driver/Src/stm32f0xx_hal_uart.c **** 
1626:Drivers/STM32F0xx_HAL_Driver/Src/stm32f0xx_hal_uart.c ****       /* Restore huart->RxState to Ready */
1627:Drivers/STM32F0xx_HAL_Driver/Src/stm32f0xx_hal_uart.c ****       huart->RxState = HAL_UART_STATE_READY;
1628:Drivers/STM32F0xx_HAL_Driver/Src/stm32f0xx_hal_uart.c **** 
1629:Drivers/STM32F0xx_HAL_Driver/Src/stm32f0xx_hal_uart.c ****       /* As no DMA to be aborted, call directly user Abort complete callback */
1630:Drivers/STM32F0xx_HAL_Driver/Src/stm32f0xx_hal_uart.c ****       HAL_UART_AbortReceiveCpltCallback(huart);
1631:Drivers/STM32F0xx_HAL_Driver/Src/stm32f0xx_hal_uart.c ****     }
1632:Drivers/STM32F0xx_HAL_Driver/Src/stm32f0xx_hal_uart.c ****   }
1633:Drivers/STM32F0xx_HAL_Driver/Src/stm32f0xx_hal_uart.c ****   else
1634:Drivers/STM32F0xx_HAL_Driver/Src/stm32f0xx_hal_uart.c ****   {
1635:Drivers/STM32F0xx_HAL_Driver/Src/stm32f0xx_hal_uart.c ****     /* Reset Rx transfer counter */
1636:Drivers/STM32F0xx_HAL_Driver/Src/stm32f0xx_hal_uart.c ****     huart->RxXferCount = 0U; 
1637:Drivers/STM32F0xx_HAL_Driver/Src/stm32f0xx_hal_uart.c **** 
1638:Drivers/STM32F0xx_HAL_Driver/Src/stm32f0xx_hal_uart.c ****     /* Clear the Error flags in the ICR register */
1639:Drivers/STM32F0xx_HAL_Driver/Src/stm32f0xx_hal_uart.c ****     __HAL_UART_CLEAR_FLAG(huart, UART_CLEAR_OREF | UART_CLEAR_NEF | UART_CLEAR_PEF | UART_CLEAR_FEF
1640:Drivers/STM32F0xx_HAL_Driver/Src/stm32f0xx_hal_uart.c **** 
1641:Drivers/STM32F0xx_HAL_Driver/Src/stm32f0xx_hal_uart.c ****     /* Restore huart->RxState to Ready */
1642:Drivers/STM32F0xx_HAL_Driver/Src/stm32f0xx_hal_uart.c ****     huart->RxState = HAL_UART_STATE_READY;
1643:Drivers/STM32F0xx_HAL_Driver/Src/stm32f0xx_hal_uart.c **** 
1644:Drivers/STM32F0xx_HAL_Driver/Src/stm32f0xx_hal_uart.c ****     /* As no DMA to be aborted, call directly user Abort complete callback */
1645:Drivers/STM32F0xx_HAL_Driver/Src/stm32f0xx_hal_uart.c ****     HAL_UART_AbortReceiveCpltCallback(huart);
1646:Drivers/STM32F0xx_HAL_Driver/Src/stm32f0xx_hal_uart.c ****   }
1647:Drivers/STM32F0xx_HAL_Driver/Src/stm32f0xx_hal_uart.c **** 
1648:Drivers/STM32F0xx_HAL_Driver/Src/stm32f0xx_hal_uart.c ****   return HAL_OK;
1649:Drivers/STM32F0xx_HAL_Driver/Src/stm32f0xx_hal_uart.c **** }
1650:Drivers/STM32F0xx_HAL_Driver/Src/stm32f0xx_hal_uart.c **** 
1651:Drivers/STM32F0xx_HAL_Driver/Src/stm32f0xx_hal_uart.c **** /**
1652:Drivers/STM32F0xx_HAL_Driver/Src/stm32f0xx_hal_uart.c ****   * @brief Handle UART interrupt request.
1653:Drivers/STM32F0xx_HAL_Driver/Src/stm32f0xx_hal_uart.c ****   * @param huart UART handle.
1654:Drivers/STM32F0xx_HAL_Driver/Src/stm32f0xx_hal_uart.c ****   * @retval None
ARM GAS  /tmp/ccDDwqiC.s 			page 35


1655:Drivers/STM32F0xx_HAL_Driver/Src/stm32f0xx_hal_uart.c ****   */
1656:Drivers/STM32F0xx_HAL_Driver/Src/stm32f0xx_hal_uart.c **** void HAL_UART_IRQHandler(UART_HandleTypeDef *huart)
1657:Drivers/STM32F0xx_HAL_Driver/Src/stm32f0xx_hal_uart.c **** {
1658:Drivers/STM32F0xx_HAL_Driver/Src/stm32f0xx_hal_uart.c ****   uint32_t isrflags   = READ_REG(huart->Instance->ISR);
1659:Drivers/STM32F0xx_HAL_Driver/Src/stm32f0xx_hal_uart.c ****   uint32_t cr1its     = READ_REG(huart->Instance->CR1);
1660:Drivers/STM32F0xx_HAL_Driver/Src/stm32f0xx_hal_uart.c ****   uint32_t cr3its;
1661:Drivers/STM32F0xx_HAL_Driver/Src/stm32f0xx_hal_uart.c ****   uint32_t errorflags;
1662:Drivers/STM32F0xx_HAL_Driver/Src/stm32f0xx_hal_uart.c **** 
1663:Drivers/STM32F0xx_HAL_Driver/Src/stm32f0xx_hal_uart.c ****   /* If no error occurs */
1664:Drivers/STM32F0xx_HAL_Driver/Src/stm32f0xx_hal_uart.c ****   errorflags = (isrflags & (uint32_t)(USART_ISR_PE | USART_ISR_FE | USART_ISR_ORE | USART_ISR_NE));
1665:Drivers/STM32F0xx_HAL_Driver/Src/stm32f0xx_hal_uart.c ****   if (errorflags == RESET)
1666:Drivers/STM32F0xx_HAL_Driver/Src/stm32f0xx_hal_uart.c ****   {
1667:Drivers/STM32F0xx_HAL_Driver/Src/stm32f0xx_hal_uart.c ****     /* UART in mode Receiver ---------------------------------------------------*/
1668:Drivers/STM32F0xx_HAL_Driver/Src/stm32f0xx_hal_uart.c ****     if(((isrflags & USART_ISR_RXNE) != RESET) && ((cr1its & USART_CR1_RXNEIE) != RESET))
1669:Drivers/STM32F0xx_HAL_Driver/Src/stm32f0xx_hal_uart.c ****     {
1670:Drivers/STM32F0xx_HAL_Driver/Src/stm32f0xx_hal_uart.c ****       UART_Receive_IT(huart);
1671:Drivers/STM32F0xx_HAL_Driver/Src/stm32f0xx_hal_uart.c ****       return;
1672:Drivers/STM32F0xx_HAL_Driver/Src/stm32f0xx_hal_uart.c ****     }
1673:Drivers/STM32F0xx_HAL_Driver/Src/stm32f0xx_hal_uart.c ****   }  
1674:Drivers/STM32F0xx_HAL_Driver/Src/stm32f0xx_hal_uart.c **** 
1675:Drivers/STM32F0xx_HAL_Driver/Src/stm32f0xx_hal_uart.c ****   /* If some errors occur */
1676:Drivers/STM32F0xx_HAL_Driver/Src/stm32f0xx_hal_uart.c ****   cr3its = READ_REG(huart->Instance->CR3);
1677:Drivers/STM32F0xx_HAL_Driver/Src/stm32f0xx_hal_uart.c ****   if(   (errorflags != RESET)
1678:Drivers/STM32F0xx_HAL_Driver/Src/stm32f0xx_hal_uart.c ****      && (   ((cr3its & USART_CR3_EIE) != RESET)
1679:Drivers/STM32F0xx_HAL_Driver/Src/stm32f0xx_hal_uart.c ****          || ((cr1its & (USART_CR1_RXNEIE | USART_CR1_PEIE)) != RESET)) )
1680:Drivers/STM32F0xx_HAL_Driver/Src/stm32f0xx_hal_uart.c ****   {
1681:Drivers/STM32F0xx_HAL_Driver/Src/stm32f0xx_hal_uart.c ****     /* UART parity error interrupt occurred -------------------------------------*/
1682:Drivers/STM32F0xx_HAL_Driver/Src/stm32f0xx_hal_uart.c ****     if(((isrflags & USART_ISR_PE) != RESET) && ((cr1its & USART_CR1_PEIE) != RESET))
1683:Drivers/STM32F0xx_HAL_Driver/Src/stm32f0xx_hal_uart.c ****     {
1684:Drivers/STM32F0xx_HAL_Driver/Src/stm32f0xx_hal_uart.c ****       __HAL_UART_CLEAR_IT(huart, UART_CLEAR_PEF);
1685:Drivers/STM32F0xx_HAL_Driver/Src/stm32f0xx_hal_uart.c **** 
1686:Drivers/STM32F0xx_HAL_Driver/Src/stm32f0xx_hal_uart.c ****       huart->ErrorCode |= HAL_UART_ERROR_PE;
1687:Drivers/STM32F0xx_HAL_Driver/Src/stm32f0xx_hal_uart.c ****     }
1688:Drivers/STM32F0xx_HAL_Driver/Src/stm32f0xx_hal_uart.c **** 
1689:Drivers/STM32F0xx_HAL_Driver/Src/stm32f0xx_hal_uart.c ****     /* UART frame error interrupt occurred --------------------------------------*/
1690:Drivers/STM32F0xx_HAL_Driver/Src/stm32f0xx_hal_uart.c ****     if(((isrflags & USART_ISR_FE) != RESET) && ((cr3its & USART_CR3_EIE) != RESET))
1691:Drivers/STM32F0xx_HAL_Driver/Src/stm32f0xx_hal_uart.c ****     {
1692:Drivers/STM32F0xx_HAL_Driver/Src/stm32f0xx_hal_uart.c ****       __HAL_UART_CLEAR_IT(huart, UART_CLEAR_FEF);
1693:Drivers/STM32F0xx_HAL_Driver/Src/stm32f0xx_hal_uart.c **** 
1694:Drivers/STM32F0xx_HAL_Driver/Src/stm32f0xx_hal_uart.c ****       huart->ErrorCode |= HAL_UART_ERROR_FE;
1695:Drivers/STM32F0xx_HAL_Driver/Src/stm32f0xx_hal_uart.c ****     }
1696:Drivers/STM32F0xx_HAL_Driver/Src/stm32f0xx_hal_uart.c **** 
1697:Drivers/STM32F0xx_HAL_Driver/Src/stm32f0xx_hal_uart.c ****     /* UART noise error interrupt occurred --------------------------------------*/
1698:Drivers/STM32F0xx_HAL_Driver/Src/stm32f0xx_hal_uart.c ****     if(((isrflags & USART_ISR_NE) != RESET) && ((cr3its & USART_CR3_EIE) != RESET))
1699:Drivers/STM32F0xx_HAL_Driver/Src/stm32f0xx_hal_uart.c ****     {
1700:Drivers/STM32F0xx_HAL_Driver/Src/stm32f0xx_hal_uart.c ****       __HAL_UART_CLEAR_IT(huart, UART_CLEAR_NEF);
1701:Drivers/STM32F0xx_HAL_Driver/Src/stm32f0xx_hal_uart.c **** 
1702:Drivers/STM32F0xx_HAL_Driver/Src/stm32f0xx_hal_uart.c ****       huart->ErrorCode |= HAL_UART_ERROR_NE;
1703:Drivers/STM32F0xx_HAL_Driver/Src/stm32f0xx_hal_uart.c ****     }
1704:Drivers/STM32F0xx_HAL_Driver/Src/stm32f0xx_hal_uart.c ****     
1705:Drivers/STM32F0xx_HAL_Driver/Src/stm32f0xx_hal_uart.c ****     /* UART Over-Run interrupt occurred -----------------------------------------*/
1706:Drivers/STM32F0xx_HAL_Driver/Src/stm32f0xx_hal_uart.c ****     if(((isrflags & USART_ISR_ORE) != RESET) &&
1707:Drivers/STM32F0xx_HAL_Driver/Src/stm32f0xx_hal_uart.c ****        (((cr1its & USART_CR1_RXNEIE) != RESET) || ((cr3its & USART_CR3_EIE) != RESET)))
1708:Drivers/STM32F0xx_HAL_Driver/Src/stm32f0xx_hal_uart.c ****     {
1709:Drivers/STM32F0xx_HAL_Driver/Src/stm32f0xx_hal_uart.c ****       __HAL_UART_CLEAR_IT(huart, UART_CLEAR_OREF);
1710:Drivers/STM32F0xx_HAL_Driver/Src/stm32f0xx_hal_uart.c **** 
1711:Drivers/STM32F0xx_HAL_Driver/Src/stm32f0xx_hal_uart.c ****       huart->ErrorCode |= HAL_UART_ERROR_ORE;
ARM GAS  /tmp/ccDDwqiC.s 			page 36


1712:Drivers/STM32F0xx_HAL_Driver/Src/stm32f0xx_hal_uart.c ****     }
1713:Drivers/STM32F0xx_HAL_Driver/Src/stm32f0xx_hal_uart.c **** 
1714:Drivers/STM32F0xx_HAL_Driver/Src/stm32f0xx_hal_uart.c ****     /* Call UART Error Call back function if need be --------------------------*/
1715:Drivers/STM32F0xx_HAL_Driver/Src/stm32f0xx_hal_uart.c ****     if(huart->ErrorCode != HAL_UART_ERROR_NONE)
1716:Drivers/STM32F0xx_HAL_Driver/Src/stm32f0xx_hal_uart.c ****     {
1717:Drivers/STM32F0xx_HAL_Driver/Src/stm32f0xx_hal_uart.c ****       /* UART in mode Receiver ---------------------------------------------------*/
1718:Drivers/STM32F0xx_HAL_Driver/Src/stm32f0xx_hal_uart.c ****       if(((isrflags & USART_ISR_RXNE) != RESET) && ((cr1its & USART_CR1_RXNEIE) != RESET))
1719:Drivers/STM32F0xx_HAL_Driver/Src/stm32f0xx_hal_uart.c ****       {
1720:Drivers/STM32F0xx_HAL_Driver/Src/stm32f0xx_hal_uart.c ****         UART_Receive_IT(huart);
1721:Drivers/STM32F0xx_HAL_Driver/Src/stm32f0xx_hal_uart.c ****       }
1722:Drivers/STM32F0xx_HAL_Driver/Src/stm32f0xx_hal_uart.c **** 
1723:Drivers/STM32F0xx_HAL_Driver/Src/stm32f0xx_hal_uart.c ****       /* If Overrun error occurs, or if any error occurs in DMA mode reception,
1724:Drivers/STM32F0xx_HAL_Driver/Src/stm32f0xx_hal_uart.c ****          consider error as blocking */
1725:Drivers/STM32F0xx_HAL_Driver/Src/stm32f0xx_hal_uart.c ****       if (((huart->ErrorCode & HAL_UART_ERROR_ORE) != RESET) ||
1726:Drivers/STM32F0xx_HAL_Driver/Src/stm32f0xx_hal_uart.c ****           (HAL_IS_BIT_SET(huart->Instance->CR3, USART_CR3_DMAR)))
1727:Drivers/STM32F0xx_HAL_Driver/Src/stm32f0xx_hal_uart.c ****       {  
1728:Drivers/STM32F0xx_HAL_Driver/Src/stm32f0xx_hal_uart.c ****         /* Blocking error : transfer is aborted
1729:Drivers/STM32F0xx_HAL_Driver/Src/stm32f0xx_hal_uart.c ****            Set the UART state ready to be able to start again the process,
1730:Drivers/STM32F0xx_HAL_Driver/Src/stm32f0xx_hal_uart.c ****            Disable Rx Interrupts, and disable Rx DMA request, if ongoing */
1731:Drivers/STM32F0xx_HAL_Driver/Src/stm32f0xx_hal_uart.c ****         UART_EndRxTransfer(huart);
1732:Drivers/STM32F0xx_HAL_Driver/Src/stm32f0xx_hal_uart.c **** 
1733:Drivers/STM32F0xx_HAL_Driver/Src/stm32f0xx_hal_uart.c ****         /* Disable the UART DMA Rx request if enabled */
1734:Drivers/STM32F0xx_HAL_Driver/Src/stm32f0xx_hal_uart.c ****         if (HAL_IS_BIT_SET(huart->Instance->CR3, USART_CR3_DMAR))
1735:Drivers/STM32F0xx_HAL_Driver/Src/stm32f0xx_hal_uart.c ****         {
1736:Drivers/STM32F0xx_HAL_Driver/Src/stm32f0xx_hal_uart.c ****           CLEAR_BIT(huart->Instance->CR3, USART_CR3_DMAR);
1737:Drivers/STM32F0xx_HAL_Driver/Src/stm32f0xx_hal_uart.c **** 
1738:Drivers/STM32F0xx_HAL_Driver/Src/stm32f0xx_hal_uart.c ****           /* Abort the UART DMA Rx channel */
1739:Drivers/STM32F0xx_HAL_Driver/Src/stm32f0xx_hal_uart.c ****           if(huart->hdmarx != NULL)
1740:Drivers/STM32F0xx_HAL_Driver/Src/stm32f0xx_hal_uart.c ****           {
1741:Drivers/STM32F0xx_HAL_Driver/Src/stm32f0xx_hal_uart.c ****             /* Set the UART DMA Abort callback : 
1742:Drivers/STM32F0xx_HAL_Driver/Src/stm32f0xx_hal_uart.c ****                will lead to call HAL_UART_ErrorCallback() at end of DMA abort procedure */
1743:Drivers/STM32F0xx_HAL_Driver/Src/stm32f0xx_hal_uart.c ****             huart->hdmarx->XferAbortCallback = UART_DMAAbortOnError;
1744:Drivers/STM32F0xx_HAL_Driver/Src/stm32f0xx_hal_uart.c **** 
1745:Drivers/STM32F0xx_HAL_Driver/Src/stm32f0xx_hal_uart.c ****             /* Abort DMA RX */
1746:Drivers/STM32F0xx_HAL_Driver/Src/stm32f0xx_hal_uart.c ****             if(HAL_DMA_Abort_IT(huart->hdmarx) != HAL_OK)
1747:Drivers/STM32F0xx_HAL_Driver/Src/stm32f0xx_hal_uart.c ****             {
1748:Drivers/STM32F0xx_HAL_Driver/Src/stm32f0xx_hal_uart.c ****               /* Call Directly huart->hdmarx->XferAbortCallback function in case of error */
1749:Drivers/STM32F0xx_HAL_Driver/Src/stm32f0xx_hal_uart.c ****               huart->hdmarx->XferAbortCallback(huart->hdmarx);
1750:Drivers/STM32F0xx_HAL_Driver/Src/stm32f0xx_hal_uart.c ****             }
1751:Drivers/STM32F0xx_HAL_Driver/Src/stm32f0xx_hal_uart.c ****           }
1752:Drivers/STM32F0xx_HAL_Driver/Src/stm32f0xx_hal_uart.c ****           else
1753:Drivers/STM32F0xx_HAL_Driver/Src/stm32f0xx_hal_uart.c ****           {
1754:Drivers/STM32F0xx_HAL_Driver/Src/stm32f0xx_hal_uart.c ****             /* Call user error callback */
1755:Drivers/STM32F0xx_HAL_Driver/Src/stm32f0xx_hal_uart.c ****             HAL_UART_ErrorCallback(huart);
1756:Drivers/STM32F0xx_HAL_Driver/Src/stm32f0xx_hal_uart.c ****           }
1757:Drivers/STM32F0xx_HAL_Driver/Src/stm32f0xx_hal_uart.c ****         }
1758:Drivers/STM32F0xx_HAL_Driver/Src/stm32f0xx_hal_uart.c ****         else
1759:Drivers/STM32F0xx_HAL_Driver/Src/stm32f0xx_hal_uart.c ****         {
1760:Drivers/STM32F0xx_HAL_Driver/Src/stm32f0xx_hal_uart.c ****           /* Call user error callback */
1761:Drivers/STM32F0xx_HAL_Driver/Src/stm32f0xx_hal_uart.c ****           HAL_UART_ErrorCallback(huart);
1762:Drivers/STM32F0xx_HAL_Driver/Src/stm32f0xx_hal_uart.c ****         }
1763:Drivers/STM32F0xx_HAL_Driver/Src/stm32f0xx_hal_uart.c ****       }
1764:Drivers/STM32F0xx_HAL_Driver/Src/stm32f0xx_hal_uart.c ****       else
1765:Drivers/STM32F0xx_HAL_Driver/Src/stm32f0xx_hal_uart.c ****       {
1766:Drivers/STM32F0xx_HAL_Driver/Src/stm32f0xx_hal_uart.c ****         /* Non Blocking error : transfer could go on. 
1767:Drivers/STM32F0xx_HAL_Driver/Src/stm32f0xx_hal_uart.c ****            Error is notified to user through user error callback */
1768:Drivers/STM32F0xx_HAL_Driver/Src/stm32f0xx_hal_uart.c ****         HAL_UART_ErrorCallback(huart);
ARM GAS  /tmp/ccDDwqiC.s 			page 37


1769:Drivers/STM32F0xx_HAL_Driver/Src/stm32f0xx_hal_uart.c ****         huart->ErrorCode = HAL_UART_ERROR_NONE;
1770:Drivers/STM32F0xx_HAL_Driver/Src/stm32f0xx_hal_uart.c ****       }
1771:Drivers/STM32F0xx_HAL_Driver/Src/stm32f0xx_hal_uart.c ****     }
1772:Drivers/STM32F0xx_HAL_Driver/Src/stm32f0xx_hal_uart.c ****     return;
1773:Drivers/STM32F0xx_HAL_Driver/Src/stm32f0xx_hal_uart.c **** 
1774:Drivers/STM32F0xx_HAL_Driver/Src/stm32f0xx_hal_uart.c ****   } /* End if some error occurs */
1775:Drivers/STM32F0xx_HAL_Driver/Src/stm32f0xx_hal_uart.c **** 
1776:Drivers/STM32F0xx_HAL_Driver/Src/stm32f0xx_hal_uart.c **** #if !defined(STM32F030x6) && !defined(STM32F030x8)&& !defined(STM32F070xB)&& !defined(STM32F070x6)&
1777:Drivers/STM32F0xx_HAL_Driver/Src/stm32f0xx_hal_uart.c ****   /* UART wakeup from Stop mode interrupt occurred ---------------------------*/
1778:Drivers/STM32F0xx_HAL_Driver/Src/stm32f0xx_hal_uart.c ****   if(((isrflags & USART_ISR_WUF) != RESET) && ((cr3its & USART_CR3_WUFIE) != RESET))
1779:Drivers/STM32F0xx_HAL_Driver/Src/stm32f0xx_hal_uart.c ****   {
1780:Drivers/STM32F0xx_HAL_Driver/Src/stm32f0xx_hal_uart.c ****     __HAL_UART_CLEAR_IT(huart, UART_CLEAR_WUF);
1781:Drivers/STM32F0xx_HAL_Driver/Src/stm32f0xx_hal_uart.c ****     /* Set the UART state ready to be able to start again the process */
1782:Drivers/STM32F0xx_HAL_Driver/Src/stm32f0xx_hal_uart.c ****     huart->gState  = HAL_UART_STATE_READY;
1783:Drivers/STM32F0xx_HAL_Driver/Src/stm32f0xx_hal_uart.c ****     huart->RxState = HAL_UART_STATE_READY;
1784:Drivers/STM32F0xx_HAL_Driver/Src/stm32f0xx_hal_uart.c ****     HAL_UARTEx_WakeupCallback(huart);
1785:Drivers/STM32F0xx_HAL_Driver/Src/stm32f0xx_hal_uart.c ****     return;
1786:Drivers/STM32F0xx_HAL_Driver/Src/stm32f0xx_hal_uart.c ****   }
1787:Drivers/STM32F0xx_HAL_Driver/Src/stm32f0xx_hal_uart.c **** #endif /* !defined(STM32F030x6) && !defined(STM32F030x8)&& !defined(STM32F070xB)&& !defined(STM32F0
1788:Drivers/STM32F0xx_HAL_Driver/Src/stm32f0xx_hal_uart.c **** 
1789:Drivers/STM32F0xx_HAL_Driver/Src/stm32f0xx_hal_uart.c ****   /* UART in mode Transmitter ------------------------------------------------*/
1790:Drivers/STM32F0xx_HAL_Driver/Src/stm32f0xx_hal_uart.c ****   if(((isrflags & USART_ISR_TXE) != RESET) && ((cr1its & USART_CR1_TXEIE) != RESET))
1791:Drivers/STM32F0xx_HAL_Driver/Src/stm32f0xx_hal_uart.c ****   {
1792:Drivers/STM32F0xx_HAL_Driver/Src/stm32f0xx_hal_uart.c ****     UART_Transmit_IT(huart);
1793:Drivers/STM32F0xx_HAL_Driver/Src/stm32f0xx_hal_uart.c ****     return;
1794:Drivers/STM32F0xx_HAL_Driver/Src/stm32f0xx_hal_uart.c ****   }
1795:Drivers/STM32F0xx_HAL_Driver/Src/stm32f0xx_hal_uart.c **** 
1796:Drivers/STM32F0xx_HAL_Driver/Src/stm32f0xx_hal_uart.c ****   /* UART in mode Transmitter (transmission end) -----------------------------*/
1797:Drivers/STM32F0xx_HAL_Driver/Src/stm32f0xx_hal_uart.c ****   if(((isrflags & USART_ISR_TC) != RESET) && ((cr1its & USART_CR1_TCIE) != RESET))
1798:Drivers/STM32F0xx_HAL_Driver/Src/stm32f0xx_hal_uart.c ****   {
1799:Drivers/STM32F0xx_HAL_Driver/Src/stm32f0xx_hal_uart.c ****     UART_EndTransmit_IT(huart);
1800:Drivers/STM32F0xx_HAL_Driver/Src/stm32f0xx_hal_uart.c ****     return;
1801:Drivers/STM32F0xx_HAL_Driver/Src/stm32f0xx_hal_uart.c ****   }
1802:Drivers/STM32F0xx_HAL_Driver/Src/stm32f0xx_hal_uart.c **** 
1803:Drivers/STM32F0xx_HAL_Driver/Src/stm32f0xx_hal_uart.c **** }
1804:Drivers/STM32F0xx_HAL_Driver/Src/stm32f0xx_hal_uart.c **** 
1805:Drivers/STM32F0xx_HAL_Driver/Src/stm32f0xx_hal_uart.c **** /**
1806:Drivers/STM32F0xx_HAL_Driver/Src/stm32f0xx_hal_uart.c ****   * @brief Tx Transfer completed callback.
1807:Drivers/STM32F0xx_HAL_Driver/Src/stm32f0xx_hal_uart.c ****   * @param huart UART handle.
1808:Drivers/STM32F0xx_HAL_Driver/Src/stm32f0xx_hal_uart.c ****   * @retval None
1809:Drivers/STM32F0xx_HAL_Driver/Src/stm32f0xx_hal_uart.c ****   */
1810:Drivers/STM32F0xx_HAL_Driver/Src/stm32f0xx_hal_uart.c **** __weak void HAL_UART_TxCpltCallback(UART_HandleTypeDef *huart)
1811:Drivers/STM32F0xx_HAL_Driver/Src/stm32f0xx_hal_uart.c **** {
1812:Drivers/STM32F0xx_HAL_Driver/Src/stm32f0xx_hal_uart.c ****   /* Prevent unused argument(s) compilation warning */
1813:Drivers/STM32F0xx_HAL_Driver/Src/stm32f0xx_hal_uart.c ****   UNUSED(huart);
1814:Drivers/STM32F0xx_HAL_Driver/Src/stm32f0xx_hal_uart.c **** 
1815:Drivers/STM32F0xx_HAL_Driver/Src/stm32f0xx_hal_uart.c ****   /* NOTE : This function should not be modified, when the callback is needed,
1816:Drivers/STM32F0xx_HAL_Driver/Src/stm32f0xx_hal_uart.c ****             the HAL_UART_TxCpltCallback can be implemented in the user file.
1817:Drivers/STM32F0xx_HAL_Driver/Src/stm32f0xx_hal_uart.c ****    */
1818:Drivers/STM32F0xx_HAL_Driver/Src/stm32f0xx_hal_uart.c **** }
1819:Drivers/STM32F0xx_HAL_Driver/Src/stm32f0xx_hal_uart.c **** 
1820:Drivers/STM32F0xx_HAL_Driver/Src/stm32f0xx_hal_uart.c **** /**
1821:Drivers/STM32F0xx_HAL_Driver/Src/stm32f0xx_hal_uart.c ****   * @brief  Tx Half Transfer completed callback.
1822:Drivers/STM32F0xx_HAL_Driver/Src/stm32f0xx_hal_uart.c ****   * @param  huart UART handle.
1823:Drivers/STM32F0xx_HAL_Driver/Src/stm32f0xx_hal_uart.c ****   * @retval None
1824:Drivers/STM32F0xx_HAL_Driver/Src/stm32f0xx_hal_uart.c ****   */
1825:Drivers/STM32F0xx_HAL_Driver/Src/stm32f0xx_hal_uart.c **** __weak void HAL_UART_TxHalfCpltCallback(UART_HandleTypeDef *huart)
ARM GAS  /tmp/ccDDwqiC.s 			page 38


1826:Drivers/STM32F0xx_HAL_Driver/Src/stm32f0xx_hal_uart.c **** {
1827:Drivers/STM32F0xx_HAL_Driver/Src/stm32f0xx_hal_uart.c ****   /* Prevent unused argument(s) compilation warning */
1828:Drivers/STM32F0xx_HAL_Driver/Src/stm32f0xx_hal_uart.c ****   UNUSED(huart);
1829:Drivers/STM32F0xx_HAL_Driver/Src/stm32f0xx_hal_uart.c **** 
1830:Drivers/STM32F0xx_HAL_Driver/Src/stm32f0xx_hal_uart.c ****   /* NOTE: This function should not be modified, when the callback is needed,
1831:Drivers/STM32F0xx_HAL_Driver/Src/stm32f0xx_hal_uart.c ****            the HAL_UART_TxHalfCpltCallback can be implemented in the user file.
1832:Drivers/STM32F0xx_HAL_Driver/Src/stm32f0xx_hal_uart.c ****    */
1833:Drivers/STM32F0xx_HAL_Driver/Src/stm32f0xx_hal_uart.c **** }
1834:Drivers/STM32F0xx_HAL_Driver/Src/stm32f0xx_hal_uart.c **** 
1835:Drivers/STM32F0xx_HAL_Driver/Src/stm32f0xx_hal_uart.c **** /**
1836:Drivers/STM32F0xx_HAL_Driver/Src/stm32f0xx_hal_uart.c ****   * @brief Rx Transfer completed callback.
1837:Drivers/STM32F0xx_HAL_Driver/Src/stm32f0xx_hal_uart.c ****   * @param huart UART handle.
1838:Drivers/STM32F0xx_HAL_Driver/Src/stm32f0xx_hal_uart.c ****   * @retval None
1839:Drivers/STM32F0xx_HAL_Driver/Src/stm32f0xx_hal_uart.c ****   */
1840:Drivers/STM32F0xx_HAL_Driver/Src/stm32f0xx_hal_uart.c **** __weak void HAL_UART_RxCpltCallback(UART_HandleTypeDef *huart)
1841:Drivers/STM32F0xx_HAL_Driver/Src/stm32f0xx_hal_uart.c **** {
1842:Drivers/STM32F0xx_HAL_Driver/Src/stm32f0xx_hal_uart.c ****   /* Prevent unused argument(s) compilation warning */
1843:Drivers/STM32F0xx_HAL_Driver/Src/stm32f0xx_hal_uart.c ****   UNUSED(huart);
1844:Drivers/STM32F0xx_HAL_Driver/Src/stm32f0xx_hal_uart.c **** 
1845:Drivers/STM32F0xx_HAL_Driver/Src/stm32f0xx_hal_uart.c ****   /* NOTE : This function should not be modified, when the callback is needed,
1846:Drivers/STM32F0xx_HAL_Driver/Src/stm32f0xx_hal_uart.c ****             the HAL_UART_RxCpltCallback can be implemented in the user file.
1847:Drivers/STM32F0xx_HAL_Driver/Src/stm32f0xx_hal_uart.c ****    */
1848:Drivers/STM32F0xx_HAL_Driver/Src/stm32f0xx_hal_uart.c **** }
1849:Drivers/STM32F0xx_HAL_Driver/Src/stm32f0xx_hal_uart.c **** 
1850:Drivers/STM32F0xx_HAL_Driver/Src/stm32f0xx_hal_uart.c **** /**
1851:Drivers/STM32F0xx_HAL_Driver/Src/stm32f0xx_hal_uart.c ****   * @brief  Rx Half Transfer completed callback.
1852:Drivers/STM32F0xx_HAL_Driver/Src/stm32f0xx_hal_uart.c ****   * @param  huart UART handle.
1853:Drivers/STM32F0xx_HAL_Driver/Src/stm32f0xx_hal_uart.c ****   * @retval None
1854:Drivers/STM32F0xx_HAL_Driver/Src/stm32f0xx_hal_uart.c ****   */
1855:Drivers/STM32F0xx_HAL_Driver/Src/stm32f0xx_hal_uart.c **** __weak void HAL_UART_RxHalfCpltCallback(UART_HandleTypeDef *huart)
1856:Drivers/STM32F0xx_HAL_Driver/Src/stm32f0xx_hal_uart.c **** {
1857:Drivers/STM32F0xx_HAL_Driver/Src/stm32f0xx_hal_uart.c ****   /* Prevent unused argument(s) compilation warning */
1858:Drivers/STM32F0xx_HAL_Driver/Src/stm32f0xx_hal_uart.c ****   UNUSED(huart);
1859:Drivers/STM32F0xx_HAL_Driver/Src/stm32f0xx_hal_uart.c **** 
1860:Drivers/STM32F0xx_HAL_Driver/Src/stm32f0xx_hal_uart.c ****   /* NOTE: This function should not be modified, when the callback is needed,
1861:Drivers/STM32F0xx_HAL_Driver/Src/stm32f0xx_hal_uart.c ****            the HAL_UART_RxHalfCpltCallback can be implemented in the user file.
1862:Drivers/STM32F0xx_HAL_Driver/Src/stm32f0xx_hal_uart.c ****    */
1863:Drivers/STM32F0xx_HAL_Driver/Src/stm32f0xx_hal_uart.c **** }
1864:Drivers/STM32F0xx_HAL_Driver/Src/stm32f0xx_hal_uart.c **** 
1865:Drivers/STM32F0xx_HAL_Driver/Src/stm32f0xx_hal_uart.c **** /**
1866:Drivers/STM32F0xx_HAL_Driver/Src/stm32f0xx_hal_uart.c ****   * @brief UART error callback.
1867:Drivers/STM32F0xx_HAL_Driver/Src/stm32f0xx_hal_uart.c ****   * @param huart UART handle.
1868:Drivers/STM32F0xx_HAL_Driver/Src/stm32f0xx_hal_uart.c ****   * @retval None
1869:Drivers/STM32F0xx_HAL_Driver/Src/stm32f0xx_hal_uart.c ****   */
1870:Drivers/STM32F0xx_HAL_Driver/Src/stm32f0xx_hal_uart.c **** __weak void HAL_UART_ErrorCallback(UART_HandleTypeDef *huart)
1871:Drivers/STM32F0xx_HAL_Driver/Src/stm32f0xx_hal_uart.c **** {
1872:Drivers/STM32F0xx_HAL_Driver/Src/stm32f0xx_hal_uart.c ****   /* Prevent unused argument(s) compilation warning */
1873:Drivers/STM32F0xx_HAL_Driver/Src/stm32f0xx_hal_uart.c ****   UNUSED(huart);
1874:Drivers/STM32F0xx_HAL_Driver/Src/stm32f0xx_hal_uart.c **** 
1875:Drivers/STM32F0xx_HAL_Driver/Src/stm32f0xx_hal_uart.c ****   /* NOTE : This function should not be modified, when the callback is needed,
1876:Drivers/STM32F0xx_HAL_Driver/Src/stm32f0xx_hal_uart.c ****             the HAL_UART_ErrorCallback can be implemented in the user file.
1877:Drivers/STM32F0xx_HAL_Driver/Src/stm32f0xx_hal_uart.c ****    */
1878:Drivers/STM32F0xx_HAL_Driver/Src/stm32f0xx_hal_uart.c **** }
1879:Drivers/STM32F0xx_HAL_Driver/Src/stm32f0xx_hal_uart.c **** 
1880:Drivers/STM32F0xx_HAL_Driver/Src/stm32f0xx_hal_uart.c **** /**
1881:Drivers/STM32F0xx_HAL_Driver/Src/stm32f0xx_hal_uart.c ****   * @brief  UART Abort Complete callback.
1882:Drivers/STM32F0xx_HAL_Driver/Src/stm32f0xx_hal_uart.c ****   * @param  huart UART handle.
ARM GAS  /tmp/ccDDwqiC.s 			page 39


1883:Drivers/STM32F0xx_HAL_Driver/Src/stm32f0xx_hal_uart.c ****   * @retval None
1884:Drivers/STM32F0xx_HAL_Driver/Src/stm32f0xx_hal_uart.c ****   */
1885:Drivers/STM32F0xx_HAL_Driver/Src/stm32f0xx_hal_uart.c **** __weak void HAL_UART_AbortCpltCallback (UART_HandleTypeDef *huart)
1886:Drivers/STM32F0xx_HAL_Driver/Src/stm32f0xx_hal_uart.c **** {
1887:Drivers/STM32F0xx_HAL_Driver/Src/stm32f0xx_hal_uart.c ****   /* Prevent unused argument(s) compilation warning */
1888:Drivers/STM32F0xx_HAL_Driver/Src/stm32f0xx_hal_uart.c ****   UNUSED(huart);
1889:Drivers/STM32F0xx_HAL_Driver/Src/stm32f0xx_hal_uart.c **** 
1890:Drivers/STM32F0xx_HAL_Driver/Src/stm32f0xx_hal_uart.c ****   /* NOTE : This function should not be modified, when the callback is needed,
1891:Drivers/STM32F0xx_HAL_Driver/Src/stm32f0xx_hal_uart.c ****             the HAL_UART_AbortCpltCallback can be implemented in the user file.
1892:Drivers/STM32F0xx_HAL_Driver/Src/stm32f0xx_hal_uart.c ****    */
1893:Drivers/STM32F0xx_HAL_Driver/Src/stm32f0xx_hal_uart.c **** }
1894:Drivers/STM32F0xx_HAL_Driver/Src/stm32f0xx_hal_uart.c **** 
1895:Drivers/STM32F0xx_HAL_Driver/Src/stm32f0xx_hal_uart.c **** /**
1896:Drivers/STM32F0xx_HAL_Driver/Src/stm32f0xx_hal_uart.c ****   * @brief  UART Abort Complete callback.
1897:Drivers/STM32F0xx_HAL_Driver/Src/stm32f0xx_hal_uart.c ****   * @param  huart UART handle.
1898:Drivers/STM32F0xx_HAL_Driver/Src/stm32f0xx_hal_uart.c ****   * @retval None
1899:Drivers/STM32F0xx_HAL_Driver/Src/stm32f0xx_hal_uart.c ****   */
1900:Drivers/STM32F0xx_HAL_Driver/Src/stm32f0xx_hal_uart.c **** __weak void HAL_UART_AbortTransmitCpltCallback (UART_HandleTypeDef *huart)
1901:Drivers/STM32F0xx_HAL_Driver/Src/stm32f0xx_hal_uart.c **** {
1902:Drivers/STM32F0xx_HAL_Driver/Src/stm32f0xx_hal_uart.c ****   /* Prevent unused argument(s) compilation warning */
1903:Drivers/STM32F0xx_HAL_Driver/Src/stm32f0xx_hal_uart.c ****   UNUSED(huart);
1904:Drivers/STM32F0xx_HAL_Driver/Src/stm32f0xx_hal_uart.c **** 
1905:Drivers/STM32F0xx_HAL_Driver/Src/stm32f0xx_hal_uart.c ****   /* NOTE : This function should not be modified, when the callback is needed,
1906:Drivers/STM32F0xx_HAL_Driver/Src/stm32f0xx_hal_uart.c ****             the HAL_UART_AbortTransmitCpltCallback can be implemented in the user file.
1907:Drivers/STM32F0xx_HAL_Driver/Src/stm32f0xx_hal_uart.c ****    */
1908:Drivers/STM32F0xx_HAL_Driver/Src/stm32f0xx_hal_uart.c **** }
1909:Drivers/STM32F0xx_HAL_Driver/Src/stm32f0xx_hal_uart.c **** 
1910:Drivers/STM32F0xx_HAL_Driver/Src/stm32f0xx_hal_uart.c **** /**
1911:Drivers/STM32F0xx_HAL_Driver/Src/stm32f0xx_hal_uart.c ****   * @brief  UART Abort Receive Complete callback.
1912:Drivers/STM32F0xx_HAL_Driver/Src/stm32f0xx_hal_uart.c ****   * @param  huart UART handle.
1913:Drivers/STM32F0xx_HAL_Driver/Src/stm32f0xx_hal_uart.c ****   * @retval None
1914:Drivers/STM32F0xx_HAL_Driver/Src/stm32f0xx_hal_uart.c ****   */
1915:Drivers/STM32F0xx_HAL_Driver/Src/stm32f0xx_hal_uart.c **** __weak void HAL_UART_AbortReceiveCpltCallback (UART_HandleTypeDef *huart)
1916:Drivers/STM32F0xx_HAL_Driver/Src/stm32f0xx_hal_uart.c **** {
1917:Drivers/STM32F0xx_HAL_Driver/Src/stm32f0xx_hal_uart.c ****   /* Prevent unused argument(s) compilation warning */
1918:Drivers/STM32F0xx_HAL_Driver/Src/stm32f0xx_hal_uart.c ****   UNUSED(huart);
1919:Drivers/STM32F0xx_HAL_Driver/Src/stm32f0xx_hal_uart.c **** 
1920:Drivers/STM32F0xx_HAL_Driver/Src/stm32f0xx_hal_uart.c ****   /* NOTE : This function should not be modified, when the callback is needed,
1921:Drivers/STM32F0xx_HAL_Driver/Src/stm32f0xx_hal_uart.c ****             the HAL_UART_AbortReceiveCpltCallback can be implemented in the user file.
1922:Drivers/STM32F0xx_HAL_Driver/Src/stm32f0xx_hal_uart.c ****    */
1923:Drivers/STM32F0xx_HAL_Driver/Src/stm32f0xx_hal_uart.c **** }
1924:Drivers/STM32F0xx_HAL_Driver/Src/stm32f0xx_hal_uart.c **** 
1925:Drivers/STM32F0xx_HAL_Driver/Src/stm32f0xx_hal_uart.c **** /**
1926:Drivers/STM32F0xx_HAL_Driver/Src/stm32f0xx_hal_uart.c ****   * @}
1927:Drivers/STM32F0xx_HAL_Driver/Src/stm32f0xx_hal_uart.c ****   */
1928:Drivers/STM32F0xx_HAL_Driver/Src/stm32f0xx_hal_uart.c **** 
1929:Drivers/STM32F0xx_HAL_Driver/Src/stm32f0xx_hal_uart.c **** /** @defgroup UART_Exported_Functions_Group3 Peripheral Control functions
1930:Drivers/STM32F0xx_HAL_Driver/Src/stm32f0xx_hal_uart.c ****   *  @brief   UART control functions
1931:Drivers/STM32F0xx_HAL_Driver/Src/stm32f0xx_hal_uart.c ****   *
1932:Drivers/STM32F0xx_HAL_Driver/Src/stm32f0xx_hal_uart.c **** @verbatim
1933:Drivers/STM32F0xx_HAL_Driver/Src/stm32f0xx_hal_uart.c ****  ===============================================================================
1934:Drivers/STM32F0xx_HAL_Driver/Src/stm32f0xx_hal_uart.c ****                       ##### Peripheral Control functions #####
1935:Drivers/STM32F0xx_HAL_Driver/Src/stm32f0xx_hal_uart.c ****  ===============================================================================
1936:Drivers/STM32F0xx_HAL_Driver/Src/stm32f0xx_hal_uart.c ****     [..]
1937:Drivers/STM32F0xx_HAL_Driver/Src/stm32f0xx_hal_uart.c ****     This subsection provides a set of functions allowing to control the UART.
1938:Drivers/STM32F0xx_HAL_Driver/Src/stm32f0xx_hal_uart.c ****      (+) HAL_MultiProcessor_EnableMuteMode() API enables mute mode
1939:Drivers/STM32F0xx_HAL_Driver/Src/stm32f0xx_hal_uart.c ****      (+) HAL_MultiProcessor_DisableMuteMode() API disables mute mode
ARM GAS  /tmp/ccDDwqiC.s 			page 40


1940:Drivers/STM32F0xx_HAL_Driver/Src/stm32f0xx_hal_uart.c ****      (+) HAL_MultiProcessor_EnterMuteMode() API enters mute mode
1941:Drivers/STM32F0xx_HAL_Driver/Src/stm32f0xx_hal_uart.c ****      (+) HAL_HalfDuplex_EnableTransmitter() API disables receiver and enables transmitter
1942:Drivers/STM32F0xx_HAL_Driver/Src/stm32f0xx_hal_uart.c ****      (+) HAL_HalfDuplex_EnableReceiver() API disables transmitter and enables receiver
1943:Drivers/STM32F0xx_HAL_Driver/Src/stm32f0xx_hal_uart.c **** @endverbatim
1944:Drivers/STM32F0xx_HAL_Driver/Src/stm32f0xx_hal_uart.c ****   * @{
1945:Drivers/STM32F0xx_HAL_Driver/Src/stm32f0xx_hal_uart.c ****   */
1946:Drivers/STM32F0xx_HAL_Driver/Src/stm32f0xx_hal_uart.c **** 
1947:Drivers/STM32F0xx_HAL_Driver/Src/stm32f0xx_hal_uart.c **** /**
1948:Drivers/STM32F0xx_HAL_Driver/Src/stm32f0xx_hal_uart.c ****   * @brief Enable UART in mute mode (does not mean UART enters mute mode;
1949:Drivers/STM32F0xx_HAL_Driver/Src/stm32f0xx_hal_uart.c ****   * to enter mute mode, HAL_MultiProcessor_EnterMuteMode() API must be called).
1950:Drivers/STM32F0xx_HAL_Driver/Src/stm32f0xx_hal_uart.c ****   * @param huart UART handle.
1951:Drivers/STM32F0xx_HAL_Driver/Src/stm32f0xx_hal_uart.c ****   * @retval HAL status
1952:Drivers/STM32F0xx_HAL_Driver/Src/stm32f0xx_hal_uart.c ****   */
1953:Drivers/STM32F0xx_HAL_Driver/Src/stm32f0xx_hal_uart.c **** HAL_StatusTypeDef HAL_MultiProcessor_EnableMuteMode(UART_HandleTypeDef *huart)
1954:Drivers/STM32F0xx_HAL_Driver/Src/stm32f0xx_hal_uart.c **** {
1955:Drivers/STM32F0xx_HAL_Driver/Src/stm32f0xx_hal_uart.c ****   /* Process Locked */
1956:Drivers/STM32F0xx_HAL_Driver/Src/stm32f0xx_hal_uart.c ****   __HAL_LOCK(huart);
1957:Drivers/STM32F0xx_HAL_Driver/Src/stm32f0xx_hal_uart.c **** 
1958:Drivers/STM32F0xx_HAL_Driver/Src/stm32f0xx_hal_uart.c ****   huart->gState = HAL_UART_STATE_BUSY;
1959:Drivers/STM32F0xx_HAL_Driver/Src/stm32f0xx_hal_uart.c **** 
1960:Drivers/STM32F0xx_HAL_Driver/Src/stm32f0xx_hal_uart.c ****   /* Enable USART mute mode by setting the MME bit in the CR1 register */
1961:Drivers/STM32F0xx_HAL_Driver/Src/stm32f0xx_hal_uart.c ****   SET_BIT(huart->Instance->CR1, USART_CR1_MME);
1962:Drivers/STM32F0xx_HAL_Driver/Src/stm32f0xx_hal_uart.c **** 
1963:Drivers/STM32F0xx_HAL_Driver/Src/stm32f0xx_hal_uart.c ****   huart->gState = HAL_UART_STATE_READY;
1964:Drivers/STM32F0xx_HAL_Driver/Src/stm32f0xx_hal_uart.c **** 
1965:Drivers/STM32F0xx_HAL_Driver/Src/stm32f0xx_hal_uart.c ****   return (UART_CheckIdleState(huart));
1966:Drivers/STM32F0xx_HAL_Driver/Src/stm32f0xx_hal_uart.c **** }
1967:Drivers/STM32F0xx_HAL_Driver/Src/stm32f0xx_hal_uart.c **** 
1968:Drivers/STM32F0xx_HAL_Driver/Src/stm32f0xx_hal_uart.c **** /**
1969:Drivers/STM32F0xx_HAL_Driver/Src/stm32f0xx_hal_uart.c ****   * @brief  Disable UART mute mode (does not mean the UART actually exits mute mode
1970:Drivers/STM32F0xx_HAL_Driver/Src/stm32f0xx_hal_uart.c ****   *         as it may not have been in mute mode at this very moment).
1971:Drivers/STM32F0xx_HAL_Driver/Src/stm32f0xx_hal_uart.c ****   * @param  huart UART handle.
1972:Drivers/STM32F0xx_HAL_Driver/Src/stm32f0xx_hal_uart.c ****   * @retval HAL status
1973:Drivers/STM32F0xx_HAL_Driver/Src/stm32f0xx_hal_uart.c ****   */
1974:Drivers/STM32F0xx_HAL_Driver/Src/stm32f0xx_hal_uart.c **** HAL_StatusTypeDef HAL_MultiProcessor_DisableMuteMode(UART_HandleTypeDef *huart)
1975:Drivers/STM32F0xx_HAL_Driver/Src/stm32f0xx_hal_uart.c **** {
1976:Drivers/STM32F0xx_HAL_Driver/Src/stm32f0xx_hal_uart.c ****   /* Process Locked */
1977:Drivers/STM32F0xx_HAL_Driver/Src/stm32f0xx_hal_uart.c ****   __HAL_LOCK(huart);
1978:Drivers/STM32F0xx_HAL_Driver/Src/stm32f0xx_hal_uart.c **** 
1979:Drivers/STM32F0xx_HAL_Driver/Src/stm32f0xx_hal_uart.c ****   huart->gState = HAL_UART_STATE_BUSY;
1980:Drivers/STM32F0xx_HAL_Driver/Src/stm32f0xx_hal_uart.c **** 
1981:Drivers/STM32F0xx_HAL_Driver/Src/stm32f0xx_hal_uart.c ****    /* Disable USART mute mode by clearing the MME bit in the CR1 register */
1982:Drivers/STM32F0xx_HAL_Driver/Src/stm32f0xx_hal_uart.c ****   CLEAR_BIT(huart->Instance->CR1, USART_CR1_MME);
1983:Drivers/STM32F0xx_HAL_Driver/Src/stm32f0xx_hal_uart.c **** 
1984:Drivers/STM32F0xx_HAL_Driver/Src/stm32f0xx_hal_uart.c ****   huart->gState = HAL_UART_STATE_READY;
1985:Drivers/STM32F0xx_HAL_Driver/Src/stm32f0xx_hal_uart.c **** 
1986:Drivers/STM32F0xx_HAL_Driver/Src/stm32f0xx_hal_uart.c ****   return (UART_CheckIdleState(huart));
1987:Drivers/STM32F0xx_HAL_Driver/Src/stm32f0xx_hal_uart.c **** }
1988:Drivers/STM32F0xx_HAL_Driver/Src/stm32f0xx_hal_uart.c **** 
1989:Drivers/STM32F0xx_HAL_Driver/Src/stm32f0xx_hal_uart.c **** /**
1990:Drivers/STM32F0xx_HAL_Driver/Src/stm32f0xx_hal_uart.c ****   * @brief Enter UART mute mode (means UART actually enters mute mode).
1991:Drivers/STM32F0xx_HAL_Driver/Src/stm32f0xx_hal_uart.c ****   * @note  To exit from mute mode, HAL_MultiProcessor_DisableMuteMode() API must be called.
1992:Drivers/STM32F0xx_HAL_Driver/Src/stm32f0xx_hal_uart.c ****   * @param huart UART handle.
1993:Drivers/STM32F0xx_HAL_Driver/Src/stm32f0xx_hal_uart.c ****   * @retval None
1994:Drivers/STM32F0xx_HAL_Driver/Src/stm32f0xx_hal_uart.c ****   */
1995:Drivers/STM32F0xx_HAL_Driver/Src/stm32f0xx_hal_uart.c **** void HAL_MultiProcessor_EnterMuteMode(UART_HandleTypeDef *huart)
1996:Drivers/STM32F0xx_HAL_Driver/Src/stm32f0xx_hal_uart.c **** {
ARM GAS  /tmp/ccDDwqiC.s 			page 41


1997:Drivers/STM32F0xx_HAL_Driver/Src/stm32f0xx_hal_uart.c ****   __HAL_UART_SEND_REQ(huart, UART_MUTE_MODE_REQUEST);
1998:Drivers/STM32F0xx_HAL_Driver/Src/stm32f0xx_hal_uart.c **** }
1999:Drivers/STM32F0xx_HAL_Driver/Src/stm32f0xx_hal_uart.c **** 
2000:Drivers/STM32F0xx_HAL_Driver/Src/stm32f0xx_hal_uart.c **** /**
2001:Drivers/STM32F0xx_HAL_Driver/Src/stm32f0xx_hal_uart.c ****   * @brief  Enable the UART transmitter and disable the UART receiver.
2002:Drivers/STM32F0xx_HAL_Driver/Src/stm32f0xx_hal_uart.c ****   * @param  huart UART handle.
2003:Drivers/STM32F0xx_HAL_Driver/Src/stm32f0xx_hal_uart.c ****   * @retval HAL status
2004:Drivers/STM32F0xx_HAL_Driver/Src/stm32f0xx_hal_uart.c ****   */
2005:Drivers/STM32F0xx_HAL_Driver/Src/stm32f0xx_hal_uart.c **** HAL_StatusTypeDef HAL_HalfDuplex_EnableTransmitter(UART_HandleTypeDef *huart)
2006:Drivers/STM32F0xx_HAL_Driver/Src/stm32f0xx_hal_uart.c **** {
2007:Drivers/STM32F0xx_HAL_Driver/Src/stm32f0xx_hal_uart.c ****   /* Process Locked */
2008:Drivers/STM32F0xx_HAL_Driver/Src/stm32f0xx_hal_uart.c ****   __HAL_LOCK(huart);
2009:Drivers/STM32F0xx_HAL_Driver/Src/stm32f0xx_hal_uart.c ****   huart->gState = HAL_UART_STATE_BUSY;
2010:Drivers/STM32F0xx_HAL_Driver/Src/stm32f0xx_hal_uart.c **** 
2011:Drivers/STM32F0xx_HAL_Driver/Src/stm32f0xx_hal_uart.c ****   /* Clear TE and RE bits */
2012:Drivers/STM32F0xx_HAL_Driver/Src/stm32f0xx_hal_uart.c ****   CLEAR_BIT(huart->Instance->CR1, (USART_CR1_TE | USART_CR1_RE));
2013:Drivers/STM32F0xx_HAL_Driver/Src/stm32f0xx_hal_uart.c ****   /* Enable the USART's transmit interface by setting the TE bit in the USART CR1 register */
2014:Drivers/STM32F0xx_HAL_Driver/Src/stm32f0xx_hal_uart.c ****   SET_BIT(huart->Instance->CR1, USART_CR1_TE);
2015:Drivers/STM32F0xx_HAL_Driver/Src/stm32f0xx_hal_uart.c **** 
2016:Drivers/STM32F0xx_HAL_Driver/Src/stm32f0xx_hal_uart.c ****   huart->gState = HAL_UART_STATE_READY;
2017:Drivers/STM32F0xx_HAL_Driver/Src/stm32f0xx_hal_uart.c **** 
2018:Drivers/STM32F0xx_HAL_Driver/Src/stm32f0xx_hal_uart.c ****   /* Process Unlocked */
2019:Drivers/STM32F0xx_HAL_Driver/Src/stm32f0xx_hal_uart.c ****   __HAL_UNLOCK(huart);
2020:Drivers/STM32F0xx_HAL_Driver/Src/stm32f0xx_hal_uart.c **** 
2021:Drivers/STM32F0xx_HAL_Driver/Src/stm32f0xx_hal_uart.c ****   return HAL_OK;
2022:Drivers/STM32F0xx_HAL_Driver/Src/stm32f0xx_hal_uart.c **** }
2023:Drivers/STM32F0xx_HAL_Driver/Src/stm32f0xx_hal_uart.c **** 
2024:Drivers/STM32F0xx_HAL_Driver/Src/stm32f0xx_hal_uart.c **** /**
2025:Drivers/STM32F0xx_HAL_Driver/Src/stm32f0xx_hal_uart.c ****   * @brief  Enable the UART receiver and disable the UART transmitter.
2026:Drivers/STM32F0xx_HAL_Driver/Src/stm32f0xx_hal_uart.c ****   * @param  huart UART handle.
2027:Drivers/STM32F0xx_HAL_Driver/Src/stm32f0xx_hal_uart.c ****   * @retval HAL status.
2028:Drivers/STM32F0xx_HAL_Driver/Src/stm32f0xx_hal_uart.c ****   */
2029:Drivers/STM32F0xx_HAL_Driver/Src/stm32f0xx_hal_uart.c **** HAL_StatusTypeDef HAL_HalfDuplex_EnableReceiver(UART_HandleTypeDef *huart)
2030:Drivers/STM32F0xx_HAL_Driver/Src/stm32f0xx_hal_uart.c **** {
2031:Drivers/STM32F0xx_HAL_Driver/Src/stm32f0xx_hal_uart.c ****   /* Process Locked */
2032:Drivers/STM32F0xx_HAL_Driver/Src/stm32f0xx_hal_uart.c ****   __HAL_LOCK(huart);
2033:Drivers/STM32F0xx_HAL_Driver/Src/stm32f0xx_hal_uart.c ****   huart->gState = HAL_UART_STATE_BUSY;
2034:Drivers/STM32F0xx_HAL_Driver/Src/stm32f0xx_hal_uart.c **** 
2035:Drivers/STM32F0xx_HAL_Driver/Src/stm32f0xx_hal_uart.c ****   /* Clear TE and RE bits */
2036:Drivers/STM32F0xx_HAL_Driver/Src/stm32f0xx_hal_uart.c ****   CLEAR_BIT(huart->Instance->CR1, (USART_CR1_TE | USART_CR1_RE));
2037:Drivers/STM32F0xx_HAL_Driver/Src/stm32f0xx_hal_uart.c ****   /* Enable the USART's receive interface by setting the RE bit in the USART CR1 register */
2038:Drivers/STM32F0xx_HAL_Driver/Src/stm32f0xx_hal_uart.c ****   SET_BIT(huart->Instance->CR1, USART_CR1_RE);
2039:Drivers/STM32F0xx_HAL_Driver/Src/stm32f0xx_hal_uart.c **** 
2040:Drivers/STM32F0xx_HAL_Driver/Src/stm32f0xx_hal_uart.c ****   huart->gState = HAL_UART_STATE_READY;
2041:Drivers/STM32F0xx_HAL_Driver/Src/stm32f0xx_hal_uart.c ****   /* Process Unlocked */
2042:Drivers/STM32F0xx_HAL_Driver/Src/stm32f0xx_hal_uart.c ****   __HAL_UNLOCK(huart);
2043:Drivers/STM32F0xx_HAL_Driver/Src/stm32f0xx_hal_uart.c **** 
2044:Drivers/STM32F0xx_HAL_Driver/Src/stm32f0xx_hal_uart.c ****   return HAL_OK;
2045:Drivers/STM32F0xx_HAL_Driver/Src/stm32f0xx_hal_uart.c **** }
2046:Drivers/STM32F0xx_HAL_Driver/Src/stm32f0xx_hal_uart.c **** 
2047:Drivers/STM32F0xx_HAL_Driver/Src/stm32f0xx_hal_uart.c **** /**
2048:Drivers/STM32F0xx_HAL_Driver/Src/stm32f0xx_hal_uart.c ****   * @}
2049:Drivers/STM32F0xx_HAL_Driver/Src/stm32f0xx_hal_uart.c ****   */
2050:Drivers/STM32F0xx_HAL_Driver/Src/stm32f0xx_hal_uart.c **** 
2051:Drivers/STM32F0xx_HAL_Driver/Src/stm32f0xx_hal_uart.c **** /** @defgroup UART_Exported_Functions_Group4 Peripheral State and Error functions
2052:Drivers/STM32F0xx_HAL_Driver/Src/stm32f0xx_hal_uart.c ****  *  @brief   UART Peripheral State functions
2053:Drivers/STM32F0xx_HAL_Driver/Src/stm32f0xx_hal_uart.c ****  *
ARM GAS  /tmp/ccDDwqiC.s 			page 42


2054:Drivers/STM32F0xx_HAL_Driver/Src/stm32f0xx_hal_uart.c **** @verbatim
2055:Drivers/STM32F0xx_HAL_Driver/Src/stm32f0xx_hal_uart.c ****   ==============================================================================
2056:Drivers/STM32F0xx_HAL_Driver/Src/stm32f0xx_hal_uart.c ****             ##### Peripheral State and Error functions #####
2057:Drivers/STM32F0xx_HAL_Driver/Src/stm32f0xx_hal_uart.c ****   ==============================================================================
2058:Drivers/STM32F0xx_HAL_Driver/Src/stm32f0xx_hal_uart.c ****     [..]
2059:Drivers/STM32F0xx_HAL_Driver/Src/stm32f0xx_hal_uart.c ****     This subsection provides functions allowing to :
2060:Drivers/STM32F0xx_HAL_Driver/Src/stm32f0xx_hal_uart.c ****       (+) Return the UART handle state.
2061:Drivers/STM32F0xx_HAL_Driver/Src/stm32f0xx_hal_uart.c ****       (+) Return the UART handle error code
2062:Drivers/STM32F0xx_HAL_Driver/Src/stm32f0xx_hal_uart.c **** 
2063:Drivers/STM32F0xx_HAL_Driver/Src/stm32f0xx_hal_uart.c **** @endverbatim
2064:Drivers/STM32F0xx_HAL_Driver/Src/stm32f0xx_hal_uart.c ****   * @{
2065:Drivers/STM32F0xx_HAL_Driver/Src/stm32f0xx_hal_uart.c ****   */
2066:Drivers/STM32F0xx_HAL_Driver/Src/stm32f0xx_hal_uart.c **** 
2067:Drivers/STM32F0xx_HAL_Driver/Src/stm32f0xx_hal_uart.c **** /**
2068:Drivers/STM32F0xx_HAL_Driver/Src/stm32f0xx_hal_uart.c ****   * @brief  Return the UART handle state.
2069:Drivers/STM32F0xx_HAL_Driver/Src/stm32f0xx_hal_uart.c ****   * @param  huart Pointer to a UART_HandleTypeDef structure that contains
2070:Drivers/STM32F0xx_HAL_Driver/Src/stm32f0xx_hal_uart.c ****   *               the configuration information for the specified UART.
2071:Drivers/STM32F0xx_HAL_Driver/Src/stm32f0xx_hal_uart.c ****   * @retval HAL state
2072:Drivers/STM32F0xx_HAL_Driver/Src/stm32f0xx_hal_uart.c ****   */
2073:Drivers/STM32F0xx_HAL_Driver/Src/stm32f0xx_hal_uart.c **** HAL_UART_StateTypeDef HAL_UART_GetState(UART_HandleTypeDef *huart)
2074:Drivers/STM32F0xx_HAL_Driver/Src/stm32f0xx_hal_uart.c **** {
2075:Drivers/STM32F0xx_HAL_Driver/Src/stm32f0xx_hal_uart.c ****   uint32_t temp1= 0x00U, temp2 = 0x00U;
2076:Drivers/STM32F0xx_HAL_Driver/Src/stm32f0xx_hal_uart.c ****   temp1 = huart->gState;
2077:Drivers/STM32F0xx_HAL_Driver/Src/stm32f0xx_hal_uart.c ****   temp2 = huart->RxState;
2078:Drivers/STM32F0xx_HAL_Driver/Src/stm32f0xx_hal_uart.c **** 
2079:Drivers/STM32F0xx_HAL_Driver/Src/stm32f0xx_hal_uart.c ****   return (HAL_UART_StateTypeDef)(temp1 | temp2);
2080:Drivers/STM32F0xx_HAL_Driver/Src/stm32f0xx_hal_uart.c **** }
2081:Drivers/STM32F0xx_HAL_Driver/Src/stm32f0xx_hal_uart.c **** 
2082:Drivers/STM32F0xx_HAL_Driver/Src/stm32f0xx_hal_uart.c **** /**
2083:Drivers/STM32F0xx_HAL_Driver/Src/stm32f0xx_hal_uart.c ****   * @brief  Return the UART handle error code.
2084:Drivers/STM32F0xx_HAL_Driver/Src/stm32f0xx_hal_uart.c ****   * @param  huart Pointer to a UART_HandleTypeDef structure that contains
2085:Drivers/STM32F0xx_HAL_Driver/Src/stm32f0xx_hal_uart.c ****   *               the configuration information for the specified UART.
2086:Drivers/STM32F0xx_HAL_Driver/Src/stm32f0xx_hal_uart.c ****   * @retval UART Error Code
2087:Drivers/STM32F0xx_HAL_Driver/Src/stm32f0xx_hal_uart.c ****   */
2088:Drivers/STM32F0xx_HAL_Driver/Src/stm32f0xx_hal_uart.c **** uint32_t HAL_UART_GetError(UART_HandleTypeDef *huart)
2089:Drivers/STM32F0xx_HAL_Driver/Src/stm32f0xx_hal_uart.c **** {
2090:Drivers/STM32F0xx_HAL_Driver/Src/stm32f0xx_hal_uart.c ****   return huart->ErrorCode;
2091:Drivers/STM32F0xx_HAL_Driver/Src/stm32f0xx_hal_uart.c **** }
2092:Drivers/STM32F0xx_HAL_Driver/Src/stm32f0xx_hal_uart.c **** /**
2093:Drivers/STM32F0xx_HAL_Driver/Src/stm32f0xx_hal_uart.c ****   * @}
2094:Drivers/STM32F0xx_HAL_Driver/Src/stm32f0xx_hal_uart.c ****   */
2095:Drivers/STM32F0xx_HAL_Driver/Src/stm32f0xx_hal_uart.c **** 
2096:Drivers/STM32F0xx_HAL_Driver/Src/stm32f0xx_hal_uart.c **** /**
2097:Drivers/STM32F0xx_HAL_Driver/Src/stm32f0xx_hal_uart.c ****   * @}
2098:Drivers/STM32F0xx_HAL_Driver/Src/stm32f0xx_hal_uart.c ****   */
2099:Drivers/STM32F0xx_HAL_Driver/Src/stm32f0xx_hal_uart.c **** 
2100:Drivers/STM32F0xx_HAL_Driver/Src/stm32f0xx_hal_uart.c **** /** @defgroup UART_Private_Functions UART Private Functions
2101:Drivers/STM32F0xx_HAL_Driver/Src/stm32f0xx_hal_uart.c ****   * @{
2102:Drivers/STM32F0xx_HAL_Driver/Src/stm32f0xx_hal_uart.c ****   */
2103:Drivers/STM32F0xx_HAL_Driver/Src/stm32f0xx_hal_uart.c **** 
2104:Drivers/STM32F0xx_HAL_Driver/Src/stm32f0xx_hal_uart.c **** /**
2105:Drivers/STM32F0xx_HAL_Driver/Src/stm32f0xx_hal_uart.c ****   * @brief Configure the UART peripheral.
2106:Drivers/STM32F0xx_HAL_Driver/Src/stm32f0xx_hal_uart.c ****   * @param huart UART handle.
2107:Drivers/STM32F0xx_HAL_Driver/Src/stm32f0xx_hal_uart.c ****   * @retval HAL status
2108:Drivers/STM32F0xx_HAL_Driver/Src/stm32f0xx_hal_uart.c ****   */
2109:Drivers/STM32F0xx_HAL_Driver/Src/stm32f0xx_hal_uart.c **** HAL_StatusTypeDef UART_SetConfig(UART_HandleTypeDef *huart)
2110:Drivers/STM32F0xx_HAL_Driver/Src/stm32f0xx_hal_uart.c **** {
ARM GAS  /tmp/ccDDwqiC.s 			page 43


2111:Drivers/STM32F0xx_HAL_Driver/Src/stm32f0xx_hal_uart.c ****   uint32_t tmpreg                     = 0x00000000U;
2112:Drivers/STM32F0xx_HAL_Driver/Src/stm32f0xx_hal_uart.c ****   UART_ClockSourceTypeDef clocksource = UART_CLOCKSOURCE_UNDEFINED;
2113:Drivers/STM32F0xx_HAL_Driver/Src/stm32f0xx_hal_uart.c ****   uint16_t brrtemp                    = 0x0000U;
2114:Drivers/STM32F0xx_HAL_Driver/Src/stm32f0xx_hal_uart.c ****   uint16_t usartdiv                   = 0x0000U;
2115:Drivers/STM32F0xx_HAL_Driver/Src/stm32f0xx_hal_uart.c ****   HAL_StatusTypeDef ret               = HAL_OK;
2116:Drivers/STM32F0xx_HAL_Driver/Src/stm32f0xx_hal_uart.c **** 
2117:Drivers/STM32F0xx_HAL_Driver/Src/stm32f0xx_hal_uart.c ****   /* Check the parameters */
2118:Drivers/STM32F0xx_HAL_Driver/Src/stm32f0xx_hal_uart.c ****   assert_param(IS_UART_BAUDRATE(huart->Init.BaudRate));
2119:Drivers/STM32F0xx_HAL_Driver/Src/stm32f0xx_hal_uart.c ****   assert_param(IS_UART_WORD_LENGTH(huart->Init.WordLength));
2120:Drivers/STM32F0xx_HAL_Driver/Src/stm32f0xx_hal_uart.c ****   assert_param(IS_UART_STOPBITS(huart->Init.StopBits));
2121:Drivers/STM32F0xx_HAL_Driver/Src/stm32f0xx_hal_uart.c ****   assert_param(IS_UART_PARITY(huart->Init.Parity));
2122:Drivers/STM32F0xx_HAL_Driver/Src/stm32f0xx_hal_uart.c ****   assert_param(IS_UART_MODE(huart->Init.Mode));
2123:Drivers/STM32F0xx_HAL_Driver/Src/stm32f0xx_hal_uart.c ****   assert_param(IS_UART_HARDWARE_FLOW_CONTROL(huart->Init.HwFlowCtl));
2124:Drivers/STM32F0xx_HAL_Driver/Src/stm32f0xx_hal_uart.c ****   assert_param(IS_UART_ONE_BIT_SAMPLE(huart->Init.OneBitSampling));
2125:Drivers/STM32F0xx_HAL_Driver/Src/stm32f0xx_hal_uart.c ****   assert_param(IS_UART_OVERSAMPLING(huart->Init.OverSampling));
2126:Drivers/STM32F0xx_HAL_Driver/Src/stm32f0xx_hal_uart.c **** 
2127:Drivers/STM32F0xx_HAL_Driver/Src/stm32f0xx_hal_uart.c **** 
2128:Drivers/STM32F0xx_HAL_Driver/Src/stm32f0xx_hal_uart.c ****   /*-------------------------- USART CR1 Configuration -----------------------*/
2129:Drivers/STM32F0xx_HAL_Driver/Src/stm32f0xx_hal_uart.c ****   /* Clear M, PCE, PS, TE, RE and OVER8 bits and configure
2130:Drivers/STM32F0xx_HAL_Driver/Src/stm32f0xx_hal_uart.c ****    *  the UART Word Length, Parity, Mode and oversampling:
2131:Drivers/STM32F0xx_HAL_Driver/Src/stm32f0xx_hal_uart.c ****    *  set the M bits according to huart->Init.WordLength value
2132:Drivers/STM32F0xx_HAL_Driver/Src/stm32f0xx_hal_uart.c ****    *  set PCE and PS bits according to huart->Init.Parity value
2133:Drivers/STM32F0xx_HAL_Driver/Src/stm32f0xx_hal_uart.c ****    *  set TE and RE bits according to huart->Init.Mode value
2134:Drivers/STM32F0xx_HAL_Driver/Src/stm32f0xx_hal_uart.c ****    *  set OVER8 bit according to huart->Init.OverSampling value */
2135:Drivers/STM32F0xx_HAL_Driver/Src/stm32f0xx_hal_uart.c ****   tmpreg = (uint32_t)huart->Init.WordLength | huart->Init.Parity | huart->Init.Mode | huart->Init.O
2136:Drivers/STM32F0xx_HAL_Driver/Src/stm32f0xx_hal_uart.c ****   MODIFY_REG(huart->Instance->CR1, UART_CR1_FIELDS, tmpreg);
2137:Drivers/STM32F0xx_HAL_Driver/Src/stm32f0xx_hal_uart.c **** 
2138:Drivers/STM32F0xx_HAL_Driver/Src/stm32f0xx_hal_uart.c ****   /*-------------------------- USART CR2 Configuration -----------------------*/
2139:Drivers/STM32F0xx_HAL_Driver/Src/stm32f0xx_hal_uart.c ****   /* Configure the UART Stop Bits: Set STOP[13:12] bits according
2140:Drivers/STM32F0xx_HAL_Driver/Src/stm32f0xx_hal_uart.c ****    * to huart->Init.StopBits value */
2141:Drivers/STM32F0xx_HAL_Driver/Src/stm32f0xx_hal_uart.c ****   MODIFY_REG(huart->Instance->CR2, USART_CR2_STOP, huart->Init.StopBits);
2142:Drivers/STM32F0xx_HAL_Driver/Src/stm32f0xx_hal_uart.c **** 
2143:Drivers/STM32F0xx_HAL_Driver/Src/stm32f0xx_hal_uart.c ****   /*-------------------------- USART CR3 Configuration -----------------------*/
2144:Drivers/STM32F0xx_HAL_Driver/Src/stm32f0xx_hal_uart.c ****   /* Configure
2145:Drivers/STM32F0xx_HAL_Driver/Src/stm32f0xx_hal_uart.c ****    * - UART HardWare Flow Control: set CTSE and RTSE bits according
2146:Drivers/STM32F0xx_HAL_Driver/Src/stm32f0xx_hal_uart.c ****    *   to huart->Init.HwFlowCtl value
2147:Drivers/STM32F0xx_HAL_Driver/Src/stm32f0xx_hal_uart.c ****    * - one-bit sampling method versus three samples' majority rule according
2148:Drivers/STM32F0xx_HAL_Driver/Src/stm32f0xx_hal_uart.c ****    *   to huart->Init.OneBitSampling */
2149:Drivers/STM32F0xx_HAL_Driver/Src/stm32f0xx_hal_uart.c ****   tmpreg = (uint32_t)huart->Init.HwFlowCtl | huart->Init.OneBitSampling ;
2150:Drivers/STM32F0xx_HAL_Driver/Src/stm32f0xx_hal_uart.c ****   MODIFY_REG(huart->Instance->CR3, (USART_CR3_RTSE | USART_CR3_CTSE | USART_CR3_ONEBIT), tmpreg);
2151:Drivers/STM32F0xx_HAL_Driver/Src/stm32f0xx_hal_uart.c **** 
2152:Drivers/STM32F0xx_HAL_Driver/Src/stm32f0xx_hal_uart.c ****   /*-------------------------- USART BRR Configuration -----------------------*/
2153:Drivers/STM32F0xx_HAL_Driver/Src/stm32f0xx_hal_uart.c ****   UART_GETCLOCKSOURCE(huart, clocksource);
2154:Drivers/STM32F0xx_HAL_Driver/Src/stm32f0xx_hal_uart.c ****   
2155:Drivers/STM32F0xx_HAL_Driver/Src/stm32f0xx_hal_uart.c ****   /* Check UART Over Sampling to set Baud Rate Register */
2156:Drivers/STM32F0xx_HAL_Driver/Src/stm32f0xx_hal_uart.c ****   if (huart->Init.OverSampling == UART_OVERSAMPLING_8)
2157:Drivers/STM32F0xx_HAL_Driver/Src/stm32f0xx_hal_uart.c ****   {
2158:Drivers/STM32F0xx_HAL_Driver/Src/stm32f0xx_hal_uart.c ****     switch (clocksource)
2159:Drivers/STM32F0xx_HAL_Driver/Src/stm32f0xx_hal_uart.c ****     {
2160:Drivers/STM32F0xx_HAL_Driver/Src/stm32f0xx_hal_uart.c ****       case UART_CLOCKSOURCE_PCLK1:
2161:Drivers/STM32F0xx_HAL_Driver/Src/stm32f0xx_hal_uart.c ****         usartdiv = (uint16_t)(UART_DIV_SAMPLING8(HAL_RCC_GetPCLK1Freq(), huart->Init.BaudRate));
2162:Drivers/STM32F0xx_HAL_Driver/Src/stm32f0xx_hal_uart.c ****         break;
2163:Drivers/STM32F0xx_HAL_Driver/Src/stm32f0xx_hal_uart.c ****       case UART_CLOCKSOURCE_HSI:
2164:Drivers/STM32F0xx_HAL_Driver/Src/stm32f0xx_hal_uart.c ****         usartdiv = (uint16_t)(UART_DIV_SAMPLING8(HSI_VALUE, huart->Init.BaudRate));
2165:Drivers/STM32F0xx_HAL_Driver/Src/stm32f0xx_hal_uart.c ****         break;
2166:Drivers/STM32F0xx_HAL_Driver/Src/stm32f0xx_hal_uart.c ****       case UART_CLOCKSOURCE_SYSCLK:
2167:Drivers/STM32F0xx_HAL_Driver/Src/stm32f0xx_hal_uart.c ****         usartdiv = (uint16_t)(UART_DIV_SAMPLING8(HAL_RCC_GetSysClockFreq(), huart->Init.BaudRate));
ARM GAS  /tmp/ccDDwqiC.s 			page 44


2168:Drivers/STM32F0xx_HAL_Driver/Src/stm32f0xx_hal_uart.c ****         break;
2169:Drivers/STM32F0xx_HAL_Driver/Src/stm32f0xx_hal_uart.c ****       case UART_CLOCKSOURCE_LSE:
2170:Drivers/STM32F0xx_HAL_Driver/Src/stm32f0xx_hal_uart.c ****         usartdiv = (uint16_t)(UART_DIV_SAMPLING8(LSE_VALUE, huart->Init.BaudRate));
2171:Drivers/STM32F0xx_HAL_Driver/Src/stm32f0xx_hal_uart.c ****         break;
2172:Drivers/STM32F0xx_HAL_Driver/Src/stm32f0xx_hal_uart.c ****       case UART_CLOCKSOURCE_UNDEFINED:
2173:Drivers/STM32F0xx_HAL_Driver/Src/stm32f0xx_hal_uart.c ****       default:
2174:Drivers/STM32F0xx_HAL_Driver/Src/stm32f0xx_hal_uart.c ****         ret = HAL_ERROR;
2175:Drivers/STM32F0xx_HAL_Driver/Src/stm32f0xx_hal_uart.c ****         break;
2176:Drivers/STM32F0xx_HAL_Driver/Src/stm32f0xx_hal_uart.c ****     }
2177:Drivers/STM32F0xx_HAL_Driver/Src/stm32f0xx_hal_uart.c **** 
2178:Drivers/STM32F0xx_HAL_Driver/Src/stm32f0xx_hal_uart.c ****     brrtemp = usartdiv & 0xFFF0U;
2179:Drivers/STM32F0xx_HAL_Driver/Src/stm32f0xx_hal_uart.c ****     brrtemp |= (uint16_t)((usartdiv & (uint16_t)0x000FU) >> 1U);
2180:Drivers/STM32F0xx_HAL_Driver/Src/stm32f0xx_hal_uart.c ****     huart->Instance->BRR = brrtemp;
2181:Drivers/STM32F0xx_HAL_Driver/Src/stm32f0xx_hal_uart.c ****   }
2182:Drivers/STM32F0xx_HAL_Driver/Src/stm32f0xx_hal_uart.c ****   else
2183:Drivers/STM32F0xx_HAL_Driver/Src/stm32f0xx_hal_uart.c ****   {
2184:Drivers/STM32F0xx_HAL_Driver/Src/stm32f0xx_hal_uart.c ****     switch (clocksource)
2185:Drivers/STM32F0xx_HAL_Driver/Src/stm32f0xx_hal_uart.c ****     {
2186:Drivers/STM32F0xx_HAL_Driver/Src/stm32f0xx_hal_uart.c ****       case UART_CLOCKSOURCE_PCLK1:
2187:Drivers/STM32F0xx_HAL_Driver/Src/stm32f0xx_hal_uart.c ****         huart->Instance->BRR = (uint16_t)(UART_DIV_SAMPLING16(HAL_RCC_GetPCLK1Freq(), huart->Init.B
2188:Drivers/STM32F0xx_HAL_Driver/Src/stm32f0xx_hal_uart.c ****         break;
2189:Drivers/STM32F0xx_HAL_Driver/Src/stm32f0xx_hal_uart.c ****       case UART_CLOCKSOURCE_HSI:
2190:Drivers/STM32F0xx_HAL_Driver/Src/stm32f0xx_hal_uart.c ****         huart->Instance->BRR = (uint16_t)(UART_DIV_SAMPLING16(HSI_VALUE, huart->Init.BaudRate));
2191:Drivers/STM32F0xx_HAL_Driver/Src/stm32f0xx_hal_uart.c ****         break;
2192:Drivers/STM32F0xx_HAL_Driver/Src/stm32f0xx_hal_uart.c ****       case UART_CLOCKSOURCE_SYSCLK:
2193:Drivers/STM32F0xx_HAL_Driver/Src/stm32f0xx_hal_uart.c ****         huart->Instance->BRR = (uint16_t)(UART_DIV_SAMPLING16(HAL_RCC_GetSysClockFreq(), huart->Ini
2194:Drivers/STM32F0xx_HAL_Driver/Src/stm32f0xx_hal_uart.c ****         break;
2195:Drivers/STM32F0xx_HAL_Driver/Src/stm32f0xx_hal_uart.c ****       case UART_CLOCKSOURCE_LSE:
2196:Drivers/STM32F0xx_HAL_Driver/Src/stm32f0xx_hal_uart.c ****         huart->Instance->BRR = (uint16_t)(UART_DIV_SAMPLING16(LSE_VALUE, huart->Init.BaudRate));
2197:Drivers/STM32F0xx_HAL_Driver/Src/stm32f0xx_hal_uart.c ****         break;
2198:Drivers/STM32F0xx_HAL_Driver/Src/stm32f0xx_hal_uart.c ****       case UART_CLOCKSOURCE_UNDEFINED:
2199:Drivers/STM32F0xx_HAL_Driver/Src/stm32f0xx_hal_uart.c ****       default:
2200:Drivers/STM32F0xx_HAL_Driver/Src/stm32f0xx_hal_uart.c ****         ret = HAL_ERROR;
2201:Drivers/STM32F0xx_HAL_Driver/Src/stm32f0xx_hal_uart.c ****         break;
2202:Drivers/STM32F0xx_HAL_Driver/Src/stm32f0xx_hal_uart.c ****     }
2203:Drivers/STM32F0xx_HAL_Driver/Src/stm32f0xx_hal_uart.c ****   }
2204:Drivers/STM32F0xx_HAL_Driver/Src/stm32f0xx_hal_uart.c **** 
2205:Drivers/STM32F0xx_HAL_Driver/Src/stm32f0xx_hal_uart.c ****   return ret;
2206:Drivers/STM32F0xx_HAL_Driver/Src/stm32f0xx_hal_uart.c **** 
2207:Drivers/STM32F0xx_HAL_Driver/Src/stm32f0xx_hal_uart.c **** }
2208:Drivers/STM32F0xx_HAL_Driver/Src/stm32f0xx_hal_uart.c **** 
2209:Drivers/STM32F0xx_HAL_Driver/Src/stm32f0xx_hal_uart.c **** /**
2210:Drivers/STM32F0xx_HAL_Driver/Src/stm32f0xx_hal_uart.c ****   * @brief Configure the UART peripheral advanced features.
2211:Drivers/STM32F0xx_HAL_Driver/Src/stm32f0xx_hal_uart.c ****   * @param huart UART handle.
2212:Drivers/STM32F0xx_HAL_Driver/Src/stm32f0xx_hal_uart.c ****   * @retval None
2213:Drivers/STM32F0xx_HAL_Driver/Src/stm32f0xx_hal_uart.c ****   */
2214:Drivers/STM32F0xx_HAL_Driver/Src/stm32f0xx_hal_uart.c **** void UART_AdvFeatureConfig(UART_HandleTypeDef *huart)
2215:Drivers/STM32F0xx_HAL_Driver/Src/stm32f0xx_hal_uart.c **** {
2216:Drivers/STM32F0xx_HAL_Driver/Src/stm32f0xx_hal_uart.c ****   /* Check whether the set of advanced features to configure is properly set */
2217:Drivers/STM32F0xx_HAL_Driver/Src/stm32f0xx_hal_uart.c ****   assert_param(IS_UART_ADVFEATURE_INIT(huart->AdvancedInit.AdvFeatureInit));
2218:Drivers/STM32F0xx_HAL_Driver/Src/stm32f0xx_hal_uart.c **** 
2219:Drivers/STM32F0xx_HAL_Driver/Src/stm32f0xx_hal_uart.c ****   /* if required, configure TX pin active level inversion */
2220:Drivers/STM32F0xx_HAL_Driver/Src/stm32f0xx_hal_uart.c ****   if(HAL_IS_BIT_SET(huart->AdvancedInit.AdvFeatureInit, UART_ADVFEATURE_TXINVERT_INIT))
2221:Drivers/STM32F0xx_HAL_Driver/Src/stm32f0xx_hal_uart.c ****   {
2222:Drivers/STM32F0xx_HAL_Driver/Src/stm32f0xx_hal_uart.c ****     assert_param(IS_UART_ADVFEATURE_TXINV(huart->AdvancedInit.TxPinLevelInvert));
2223:Drivers/STM32F0xx_HAL_Driver/Src/stm32f0xx_hal_uart.c ****     MODIFY_REG(huart->Instance->CR2, USART_CR2_TXINV, huart->AdvancedInit.TxPinLevelInvert);
2224:Drivers/STM32F0xx_HAL_Driver/Src/stm32f0xx_hal_uart.c ****   }
ARM GAS  /tmp/ccDDwqiC.s 			page 45


2225:Drivers/STM32F0xx_HAL_Driver/Src/stm32f0xx_hal_uart.c **** 
2226:Drivers/STM32F0xx_HAL_Driver/Src/stm32f0xx_hal_uart.c ****   /* if required, configure RX pin active level inversion */
2227:Drivers/STM32F0xx_HAL_Driver/Src/stm32f0xx_hal_uart.c ****   if(HAL_IS_BIT_SET(huart->AdvancedInit.AdvFeatureInit, UART_ADVFEATURE_RXINVERT_INIT))
2228:Drivers/STM32F0xx_HAL_Driver/Src/stm32f0xx_hal_uart.c ****   {
2229:Drivers/STM32F0xx_HAL_Driver/Src/stm32f0xx_hal_uart.c ****     assert_param(IS_UART_ADVFEATURE_RXINV(huart->AdvancedInit.RxPinLevelInvert));
2230:Drivers/STM32F0xx_HAL_Driver/Src/stm32f0xx_hal_uart.c ****     MODIFY_REG(huart->Instance->CR2, USART_CR2_RXINV, huart->AdvancedInit.RxPinLevelInvert);
2231:Drivers/STM32F0xx_HAL_Driver/Src/stm32f0xx_hal_uart.c ****   }
2232:Drivers/STM32F0xx_HAL_Driver/Src/stm32f0xx_hal_uart.c **** 
2233:Drivers/STM32F0xx_HAL_Driver/Src/stm32f0xx_hal_uart.c ****   /* if required, configure data inversion */
2234:Drivers/STM32F0xx_HAL_Driver/Src/stm32f0xx_hal_uart.c ****   if(HAL_IS_BIT_SET(huart->AdvancedInit.AdvFeatureInit, UART_ADVFEATURE_DATAINVERT_INIT))
2235:Drivers/STM32F0xx_HAL_Driver/Src/stm32f0xx_hal_uart.c ****   {
2236:Drivers/STM32F0xx_HAL_Driver/Src/stm32f0xx_hal_uart.c ****     assert_param(IS_UART_ADVFEATURE_DATAINV(huart->AdvancedInit.DataInvert));
2237:Drivers/STM32F0xx_HAL_Driver/Src/stm32f0xx_hal_uart.c ****     MODIFY_REG(huart->Instance->CR2, USART_CR2_DATAINV, huart->AdvancedInit.DataInvert);
2238:Drivers/STM32F0xx_HAL_Driver/Src/stm32f0xx_hal_uart.c ****   }
2239:Drivers/STM32F0xx_HAL_Driver/Src/stm32f0xx_hal_uart.c **** 
2240:Drivers/STM32F0xx_HAL_Driver/Src/stm32f0xx_hal_uart.c ****   /* if required, configure RX/TX pins swap */
2241:Drivers/STM32F0xx_HAL_Driver/Src/stm32f0xx_hal_uart.c ****   if(HAL_IS_BIT_SET(huart->AdvancedInit.AdvFeatureInit, UART_ADVFEATURE_SWAP_INIT))
2242:Drivers/STM32F0xx_HAL_Driver/Src/stm32f0xx_hal_uart.c ****   {
2243:Drivers/STM32F0xx_HAL_Driver/Src/stm32f0xx_hal_uart.c ****     assert_param(IS_UART_ADVFEATURE_SWAP(huart->AdvancedInit.Swap));
2244:Drivers/STM32F0xx_HAL_Driver/Src/stm32f0xx_hal_uart.c ****     MODIFY_REG(huart->Instance->CR2, USART_CR2_SWAP, huart->AdvancedInit.Swap);
2245:Drivers/STM32F0xx_HAL_Driver/Src/stm32f0xx_hal_uart.c ****   }
2246:Drivers/STM32F0xx_HAL_Driver/Src/stm32f0xx_hal_uart.c **** 
2247:Drivers/STM32F0xx_HAL_Driver/Src/stm32f0xx_hal_uart.c ****   /* if required, configure RX overrun detection disabling */
2248:Drivers/STM32F0xx_HAL_Driver/Src/stm32f0xx_hal_uart.c ****   if(HAL_IS_BIT_SET(huart->AdvancedInit.AdvFeatureInit, UART_ADVFEATURE_RXOVERRUNDISABLE_INIT))
2249:Drivers/STM32F0xx_HAL_Driver/Src/stm32f0xx_hal_uart.c ****   {
2250:Drivers/STM32F0xx_HAL_Driver/Src/stm32f0xx_hal_uart.c ****     assert_param(IS_UART_OVERRUN(huart->AdvancedInit.OverrunDisable));
2251:Drivers/STM32F0xx_HAL_Driver/Src/stm32f0xx_hal_uart.c ****     MODIFY_REG(huart->Instance->CR3, USART_CR3_OVRDIS, huart->AdvancedInit.OverrunDisable);
2252:Drivers/STM32F0xx_HAL_Driver/Src/stm32f0xx_hal_uart.c ****   }
2253:Drivers/STM32F0xx_HAL_Driver/Src/stm32f0xx_hal_uart.c **** 
2254:Drivers/STM32F0xx_HAL_Driver/Src/stm32f0xx_hal_uart.c ****   /* if required, configure DMA disabling on reception error */
2255:Drivers/STM32F0xx_HAL_Driver/Src/stm32f0xx_hal_uart.c ****   if(HAL_IS_BIT_SET(huart->AdvancedInit.AdvFeatureInit, UART_ADVFEATURE_DMADISABLEONERROR_INIT))
2256:Drivers/STM32F0xx_HAL_Driver/Src/stm32f0xx_hal_uart.c ****   {
2257:Drivers/STM32F0xx_HAL_Driver/Src/stm32f0xx_hal_uart.c ****     assert_param(IS_UART_ADVFEATURE_DMAONRXERROR(huart->AdvancedInit.DMADisableonRxError));
2258:Drivers/STM32F0xx_HAL_Driver/Src/stm32f0xx_hal_uart.c ****     MODIFY_REG(huart->Instance->CR3, USART_CR3_DDRE, huart->AdvancedInit.DMADisableonRxError);
2259:Drivers/STM32F0xx_HAL_Driver/Src/stm32f0xx_hal_uart.c ****   }
2260:Drivers/STM32F0xx_HAL_Driver/Src/stm32f0xx_hal_uart.c **** 
2261:Drivers/STM32F0xx_HAL_Driver/Src/stm32f0xx_hal_uart.c ****   /* if required, configure auto Baud rate detection scheme */
2262:Drivers/STM32F0xx_HAL_Driver/Src/stm32f0xx_hal_uart.c ****   if(HAL_IS_BIT_SET(huart->AdvancedInit.AdvFeatureInit, UART_ADVFEATURE_AUTOBAUDRATE_INIT))
2263:Drivers/STM32F0xx_HAL_Driver/Src/stm32f0xx_hal_uart.c ****   {
2264:Drivers/STM32F0xx_HAL_Driver/Src/stm32f0xx_hal_uart.c ****     assert_param(IS_USART_AUTOBAUDRATE_DETECTION_INSTANCE(huart->Instance));
2265:Drivers/STM32F0xx_HAL_Driver/Src/stm32f0xx_hal_uart.c ****     assert_param(IS_UART_ADVFEATURE_AUTOBAUDRATE(huart->AdvancedInit.AutoBaudRateEnable));
2266:Drivers/STM32F0xx_HAL_Driver/Src/stm32f0xx_hal_uart.c ****     MODIFY_REG(huart->Instance->CR2, USART_CR2_ABREN, huart->AdvancedInit.AutoBaudRateEnable);
2267:Drivers/STM32F0xx_HAL_Driver/Src/stm32f0xx_hal_uart.c ****     /* set auto Baudrate detection parameters if detection is enabled */
2268:Drivers/STM32F0xx_HAL_Driver/Src/stm32f0xx_hal_uart.c ****     if(huart->AdvancedInit.AutoBaudRateEnable == UART_ADVFEATURE_AUTOBAUDRATE_ENABLE)
2269:Drivers/STM32F0xx_HAL_Driver/Src/stm32f0xx_hal_uart.c ****     {
2270:Drivers/STM32F0xx_HAL_Driver/Src/stm32f0xx_hal_uart.c ****       assert_param(IS_UART_ADVFEATURE_AUTOBAUDRATEMODE(huart->AdvancedInit.AutoBaudRateMode));
2271:Drivers/STM32F0xx_HAL_Driver/Src/stm32f0xx_hal_uart.c ****       MODIFY_REG(huart->Instance->CR2, USART_CR2_ABRMODE, huart->AdvancedInit.AutoBaudRateMode);
2272:Drivers/STM32F0xx_HAL_Driver/Src/stm32f0xx_hal_uart.c ****     }
2273:Drivers/STM32F0xx_HAL_Driver/Src/stm32f0xx_hal_uart.c ****   }
2274:Drivers/STM32F0xx_HAL_Driver/Src/stm32f0xx_hal_uart.c **** 
2275:Drivers/STM32F0xx_HAL_Driver/Src/stm32f0xx_hal_uart.c ****   /* if required, configure MSB first on communication line */
2276:Drivers/STM32F0xx_HAL_Driver/Src/stm32f0xx_hal_uart.c ****   if(HAL_IS_BIT_SET(huart->AdvancedInit.AdvFeatureInit, UART_ADVFEATURE_MSBFIRST_INIT))
2277:Drivers/STM32F0xx_HAL_Driver/Src/stm32f0xx_hal_uart.c ****   {
2278:Drivers/STM32F0xx_HAL_Driver/Src/stm32f0xx_hal_uart.c ****     assert_param(IS_UART_ADVFEATURE_MSBFIRST(huart->AdvancedInit.MSBFirst));
2279:Drivers/STM32F0xx_HAL_Driver/Src/stm32f0xx_hal_uart.c ****     MODIFY_REG(huart->Instance->CR2, USART_CR2_MSBFIRST, huart->AdvancedInit.MSBFirst);
2280:Drivers/STM32F0xx_HAL_Driver/Src/stm32f0xx_hal_uart.c ****   }
2281:Drivers/STM32F0xx_HAL_Driver/Src/stm32f0xx_hal_uart.c **** }
ARM GAS  /tmp/ccDDwqiC.s 			page 46


2282:Drivers/STM32F0xx_HAL_Driver/Src/stm32f0xx_hal_uart.c **** 
2283:Drivers/STM32F0xx_HAL_Driver/Src/stm32f0xx_hal_uart.c **** /**
2284:Drivers/STM32F0xx_HAL_Driver/Src/stm32f0xx_hal_uart.c ****   * @brief Check the UART Idle State.
2285:Drivers/STM32F0xx_HAL_Driver/Src/stm32f0xx_hal_uart.c ****   * @param huart UART handle.
2286:Drivers/STM32F0xx_HAL_Driver/Src/stm32f0xx_hal_uart.c ****   * @retval HAL status
2287:Drivers/STM32F0xx_HAL_Driver/Src/stm32f0xx_hal_uart.c ****   */
2288:Drivers/STM32F0xx_HAL_Driver/Src/stm32f0xx_hal_uart.c **** HAL_StatusTypeDef UART_CheckIdleState(UART_HandleTypeDef *huart)
2289:Drivers/STM32F0xx_HAL_Driver/Src/stm32f0xx_hal_uart.c **** {
2290:Drivers/STM32F0xx_HAL_Driver/Src/stm32f0xx_hal_uart.c **** #if !defined(STM32F030x6) && !defined(STM32F030x8)&& !defined(STM32F070xB)&& !defined(STM32F070x6)&
2291:Drivers/STM32F0xx_HAL_Driver/Src/stm32f0xx_hal_uart.c ****   uint32_t tickstart = 0U;
2292:Drivers/STM32F0xx_HAL_Driver/Src/stm32f0xx_hal_uart.c **** #endif /* !defined(STM32F030x6) && !defined(STM32F030x8)&& !defined(STM32F070xB)&& !defined(STM32F0
2293:Drivers/STM32F0xx_HAL_Driver/Src/stm32f0xx_hal_uart.c **** 
2294:Drivers/STM32F0xx_HAL_Driver/Src/stm32f0xx_hal_uart.c ****   /* Initialize the UART ErrorCode */
2295:Drivers/STM32F0xx_HAL_Driver/Src/stm32f0xx_hal_uart.c ****   huart->ErrorCode = HAL_UART_ERROR_NONE;
2296:Drivers/STM32F0xx_HAL_Driver/Src/stm32f0xx_hal_uart.c **** 
2297:Drivers/STM32F0xx_HAL_Driver/Src/stm32f0xx_hal_uart.c **** #if !defined(STM32F030x6) && !defined(STM32F030x8)&& !defined(STM32F070xB)&& !defined(STM32F070x6)&
2298:Drivers/STM32F0xx_HAL_Driver/Src/stm32f0xx_hal_uart.c ****   /* Init tickstart for timeout managment*/
2299:Drivers/STM32F0xx_HAL_Driver/Src/stm32f0xx_hal_uart.c ****   tickstart = HAL_GetTick();
2300:Drivers/STM32F0xx_HAL_Driver/Src/stm32f0xx_hal_uart.c **** 
2301:Drivers/STM32F0xx_HAL_Driver/Src/stm32f0xx_hal_uart.c ****   /* TEACK and REACK bits in ISR are checked only when available (not available on all F0 devices).
2302:Drivers/STM32F0xx_HAL_Driver/Src/stm32f0xx_hal_uart.c ****      Bits are defined for some specific devices, and are available only for UART instances supporti
2303:Drivers/STM32F0xx_HAL_Driver/Src/stm32f0xx_hal_uart.c ****   */
2304:Drivers/STM32F0xx_HAL_Driver/Src/stm32f0xx_hal_uart.c ****   if (IS_UART_WAKEUP_FROMSTOP_INSTANCE(huart->Instance))
2305:Drivers/STM32F0xx_HAL_Driver/Src/stm32f0xx_hal_uart.c ****   {
2306:Drivers/STM32F0xx_HAL_Driver/Src/stm32f0xx_hal_uart.c ****     /* Check if the Transmitter is enabled */
2307:Drivers/STM32F0xx_HAL_Driver/Src/stm32f0xx_hal_uart.c ****     if((huart->Instance->CR1 & USART_CR1_TE) == USART_CR1_TE)
2308:Drivers/STM32F0xx_HAL_Driver/Src/stm32f0xx_hal_uart.c ****     {
2309:Drivers/STM32F0xx_HAL_Driver/Src/stm32f0xx_hal_uart.c ****       /* Wait until TEACK flag is set */
2310:Drivers/STM32F0xx_HAL_Driver/Src/stm32f0xx_hal_uart.c ****       if(UART_WaitOnFlagUntilTimeout(huart, USART_ISR_TEACK, RESET, tickstart, HAL_UART_TIMEOUT_VAL
2311:Drivers/STM32F0xx_HAL_Driver/Src/stm32f0xx_hal_uart.c ****       {
2312:Drivers/STM32F0xx_HAL_Driver/Src/stm32f0xx_hal_uart.c ****         /* Timeout occurred */
2313:Drivers/STM32F0xx_HAL_Driver/Src/stm32f0xx_hal_uart.c ****         return HAL_TIMEOUT;
2314:Drivers/STM32F0xx_HAL_Driver/Src/stm32f0xx_hal_uart.c ****       }
2315:Drivers/STM32F0xx_HAL_Driver/Src/stm32f0xx_hal_uart.c ****     }
2316:Drivers/STM32F0xx_HAL_Driver/Src/stm32f0xx_hal_uart.c **** 
2317:Drivers/STM32F0xx_HAL_Driver/Src/stm32f0xx_hal_uart.c ****     /* Check if the Receiver is enabled */
2318:Drivers/STM32F0xx_HAL_Driver/Src/stm32f0xx_hal_uart.c ****     if((huart->Instance->CR1 & USART_CR1_RE) == USART_CR1_RE)
2319:Drivers/STM32F0xx_HAL_Driver/Src/stm32f0xx_hal_uart.c ****     {
2320:Drivers/STM32F0xx_HAL_Driver/Src/stm32f0xx_hal_uart.c ****       /* Wait until REACK flag is set */
2321:Drivers/STM32F0xx_HAL_Driver/Src/stm32f0xx_hal_uart.c ****       if(UART_WaitOnFlagUntilTimeout(huart, USART_ISR_REACK, RESET, tickstart, HAL_UART_TIMEOUT_VAL
2322:Drivers/STM32F0xx_HAL_Driver/Src/stm32f0xx_hal_uart.c ****       {
2323:Drivers/STM32F0xx_HAL_Driver/Src/stm32f0xx_hal_uart.c ****         /* Timeout occurred */
2324:Drivers/STM32F0xx_HAL_Driver/Src/stm32f0xx_hal_uart.c ****         return HAL_TIMEOUT;
2325:Drivers/STM32F0xx_HAL_Driver/Src/stm32f0xx_hal_uart.c ****       }
2326:Drivers/STM32F0xx_HAL_Driver/Src/stm32f0xx_hal_uart.c ****     }
2327:Drivers/STM32F0xx_HAL_Driver/Src/stm32f0xx_hal_uart.c ****   }
2328:Drivers/STM32F0xx_HAL_Driver/Src/stm32f0xx_hal_uart.c **** #endif /* !defined(STM32F030x6) && !defined(STM32F030x8)&& !defined(STM32F070xB)&& !defined(STM32F0
2329:Drivers/STM32F0xx_HAL_Driver/Src/stm32f0xx_hal_uart.c **** 
2330:Drivers/STM32F0xx_HAL_Driver/Src/stm32f0xx_hal_uart.c ****   /* Initialize the UART State */
2331:Drivers/STM32F0xx_HAL_Driver/Src/stm32f0xx_hal_uart.c ****   huart->gState  = HAL_UART_STATE_READY;
2332:Drivers/STM32F0xx_HAL_Driver/Src/stm32f0xx_hal_uart.c ****   huart->RxState = HAL_UART_STATE_READY;
2333:Drivers/STM32F0xx_HAL_Driver/Src/stm32f0xx_hal_uart.c **** 
2334:Drivers/STM32F0xx_HAL_Driver/Src/stm32f0xx_hal_uart.c ****   /* Process Unlocked */
2335:Drivers/STM32F0xx_HAL_Driver/Src/stm32f0xx_hal_uart.c ****   __HAL_UNLOCK(huart);
2336:Drivers/STM32F0xx_HAL_Driver/Src/stm32f0xx_hal_uart.c **** 
2337:Drivers/STM32F0xx_HAL_Driver/Src/stm32f0xx_hal_uart.c ****   return HAL_OK;
2338:Drivers/STM32F0xx_HAL_Driver/Src/stm32f0xx_hal_uart.c **** }
ARM GAS  /tmp/ccDDwqiC.s 			page 47


2339:Drivers/STM32F0xx_HAL_Driver/Src/stm32f0xx_hal_uart.c **** 
2340:Drivers/STM32F0xx_HAL_Driver/Src/stm32f0xx_hal_uart.c **** /**
2341:Drivers/STM32F0xx_HAL_Driver/Src/stm32f0xx_hal_uart.c ****   * @brief  Handle UART Communication Timeout.
2342:Drivers/STM32F0xx_HAL_Driver/Src/stm32f0xx_hal_uart.c ****   * @param  huart UART handle.
2343:Drivers/STM32F0xx_HAL_Driver/Src/stm32f0xx_hal_uart.c ****   * @param  Flag Specifies the UART flag to check
2344:Drivers/STM32F0xx_HAL_Driver/Src/stm32f0xx_hal_uart.c ****   * @param  Status Flag status (SET or RESET)
2345:Drivers/STM32F0xx_HAL_Driver/Src/stm32f0xx_hal_uart.c ****   * @param  Tickstart Tick start value
2346:Drivers/STM32F0xx_HAL_Driver/Src/stm32f0xx_hal_uart.c ****   * @param  Timeout Timeout duration
2347:Drivers/STM32F0xx_HAL_Driver/Src/stm32f0xx_hal_uart.c ****   * @retval HAL status
2348:Drivers/STM32F0xx_HAL_Driver/Src/stm32f0xx_hal_uart.c ****   */
2349:Drivers/STM32F0xx_HAL_Driver/Src/stm32f0xx_hal_uart.c **** HAL_StatusTypeDef UART_WaitOnFlagUntilTimeout(UART_HandleTypeDef *huart, uint32_t Flag, FlagStatus 
2350:Drivers/STM32F0xx_HAL_Driver/Src/stm32f0xx_hal_uart.c **** {
2351:Drivers/STM32F0xx_HAL_Driver/Src/stm32f0xx_hal_uart.c ****   /* Wait until flag is set */
2352:Drivers/STM32F0xx_HAL_Driver/Src/stm32f0xx_hal_uart.c ****   while((__HAL_UART_GET_FLAG(huart, Flag) ? SET : RESET) == Status)
 254              		.loc 1 2352 10 discriminator 2 view .LVU66
 255 004e 2E33     		adds	r3, r3, #46
 256              	.LBE23:
 257              	.LBE22:
 722:Drivers/STM32F0xx_HAL_Driver/Src/stm32f0xx_hal_uart.c **** 
 258              		.loc 1 722 17 discriminator 2 view .LVU67
 259 0050 8146     		mov	r9, r0
 260              	.LVL11:
 724:Drivers/STM32F0xx_HAL_Driver/Src/stm32f0xx_hal_uart.c ****     huart->TxXferCount = Size;
 261              		.loc 1 724 5 is_stmt 1 discriminator 2 view .LVU68
 725:Drivers/STM32F0xx_HAL_Driver/Src/stm32f0xx_hal_uart.c ****     while(huart->TxXferCount > 0)
 262              		.loc 1 725 5 discriminator 2 view .LVU69
 726:Drivers/STM32F0xx_HAL_Driver/Src/stm32f0xx_hal_uart.c ****     {
 263              		.loc 1 726 5 discriminator 2 view .LVU70
 726:Drivers/STM32F0xx_HAL_Driver/Src/stm32f0xx_hal_uart.c ****     {
 264              		.loc 1 726 16 is_stmt 0 discriminator 2 view .LVU71
 265 0052 5226     		movs	r6, #82
